_RNvXs9_CseqPaQU5Ex3q_9arbitraryRShNtB5_9Arbitrary9size_hintCs9kGaKDyuozi_20fuzz_arbitrary_bytes:
  673|  1.96k|    fn size_hint(_depth: usize) -> (usize, Option<usize>) {
  674|  1.96k|        (0, None)
  675|  1.96k|    }
_RNvXs9_CseqPaQU5Ex3q_9arbitraryRShNtB5_9Arbitrary19arbitrary_take_restCs9kGaKDyuozi_20fuzz_arbitrary_bytes:
  668|  1.96k|    fn arbitrary_take_rest(u: Unstructured<'a>) -> Result<Self> {
  669|  1.96k|        Ok(u.take_rest())
  670|  1.96k|    }

_RNCNvNtCseqPaQU5Ex3q_9arbitrary9size_hint3and0Cs9kGaKDyuozi_20fuzz_arbitrary_bytes:
   28|  1.96k|    let upper = lhs.1.and_then(|lhs| rhs.1.map(|rhs| lhs + rhs));
_RNvNtCseqPaQU5Ex3q_9arbitrary9size_hint3andCs9kGaKDyuozi_20fuzz_arbitrary_bytes:
   26|  1.96k|pub fn and(lhs: (usize, Option<usize>), rhs: (usize, Option<usize>)) -> (usize, Option<usize>) {
   27|  1.96k|    let lower = lhs.0 + rhs.0;
   28|  1.96k|    let upper = lhs.1.and_then(|lhs| rhs.1.map(|rhs| lhs + rhs));
   29|  1.96k|    (lower, upper)
   30|  1.96k|}
_RNvNtCseqPaQU5Ex3q_9arbitrary9size_hint7and_allCs9kGaKDyuozi_20fuzz_arbitrary_bytes:
   37|  1.96k|pub fn and_all(hints: &[(usize, Option<usize>)]) -> (usize, Option<usize>) {
   38|  1.96k|    hints.iter().copied().fold((0, Some(0)), and)
   39|  1.96k|}
_RINvNtCseqPaQU5Ex3q_9arbitrary9size_hint15recursion_guardNCNvXNvCs9kGaKDyuozi_20fuzz_arbitrary_bytess_1__NtB10_16DisplayableBytesNtB4_9Arbitrary9size_hint0EB10_:
   12|  1.96k|pub fn recursion_guard(
   13|  1.96k|    depth: usize,
   14|  1.96k|    f: impl FnOnce(usize) -> (usize, Option<usize>),
   15|  1.96k|) -> (usize, Option<usize>) {
   16|  1.96k|    const MAX_DEPTH: usize = 20;
   17|  1.96k|    if depth > MAX_DEPTH {
   18|      0|        (0, None)
   19|       |    } else {
   20|  1.96k|        f(depth + 1)
   21|       |    }
   22|  1.96k|}

_RNvMNtCseqPaQU5Ex3q_9arbitrary12unstructuredNtB2_12Unstructured3newCs9kGaKDyuozi_20fuzz_arbitrary_bytes:
   85|  1.96k|    pub fn new(data: &'a [u8]) -> Self {
   86|  1.96k|        Unstructured { data }
   87|  1.96k|    }
_RNvMNtCseqPaQU5Ex3q_9arbitrary12unstructuredNtB2_12Unstructured3lenCs9kGaKDyuozi_20fuzz_arbitrary_bytes:
  108|  1.96k|    pub fn len(&self) -> usize {
  109|  1.96k|        self.data.len()
  110|  1.96k|    }
_RNvMNtCseqPaQU5Ex3q_9arbitrary12unstructuredNtB2_12Unstructured8is_emptyCs9kGaKDyuozi_20fuzz_arbitrary_bytes:
  132|  1.96k|    pub fn is_empty(&self) -> bool {
  133|  1.96k|        self.len() == 0
  134|  1.96k|    }
_RNvMNtCseqPaQU5Ex3q_9arbitrary12unstructuredNtB2_12Unstructured9take_restCs9kGaKDyuozi_20fuzz_arbitrary_bytes:
  598|  1.96k|    pub fn take_rest(mut self) -> &'a [u8] {
  599|  1.96k|        mem::take(&mut self.data)
  600|  1.96k|    }

_RNvMs_Cs9LliYg8ug9X_13libfuzzer_sysNtB4_6Corpus17to_libfuzzer_codeCs9kGaKDyuozi_20fuzz_arbitrary_bytes:
   40|  1.96k|    pub fn to_libfuzzer_code(self) -> i32 {
   41|  1.96k|        match self {
   42|  1.96k|            Corpus::Keep => 0,
   43|      0|            Corpus::Reject => -1,
   44|       |        }
   45|  1.96k|    }
_RNvXCs9LliYg8ug9X_13libfuzzer_sysNtB2_6CorpusINtNtCslATUeuPuGvJ_4core7convert4FromuE4fromCs9kGaKDyuozi_20fuzz_arbitrary_bytes:
   30|  1.96k|    fn from(_: ()) -> Self {
   31|  1.96k|        Self::Keep
   32|  1.96k|    }
_RNvNvCs9kGaKDyuozi_20fuzz_arbitrary_bytes1__19___libfuzzer_sys_run:
  303|  1.96k|            fn __libfuzzer_sys_run($data: $dty) -> $rty {
  304|  1.96k|                $body
  305|  1.96k|            }
rust_fuzzer_test_input:
  259|  1.96k|            pub extern "C" fn rust_fuzzer_test_input(bytes: &[u8]) -> i32 {
  260|  1.96k|                use $crate::arbitrary::{Arbitrary, Unstructured};
  261|  1.96k|
  262|  1.96k|                // Early exit if we don't have enough bytes for the `Arbitrary`
  263|  1.96k|                // implementation. This helps the fuzzer avoid exploring all the
  264|  1.96k|                // different not-enough-input-bytes paths inside the `Arbitrary`
  265|  1.96k|                // implementation. Additionally, it exits faster, letting the fuzzer
  266|  1.96k|                // get to longer inputs that actually lead to interesting executions
  267|  1.96k|                // quicker.
  268|  1.96k|                if bytes.len() < <$dty as Arbitrary>::size_hint(0).0 {
  269|      0|                    return -1;
  270|  1.96k|                }
  271|  1.96k|
  272|  1.96k|                let mut u = Unstructured::new(bytes);
  273|  1.96k|                let data = <$dty as Arbitrary>::arbitrary_take_rest(u);
  274|       |
  275|       |                // When `RUST_LIBFUZZER_DEBUG_PATH` is set, write the debug
  276|       |                // formatting of the input to that file. This is only intended for
  277|       |                // `cargo fuzz`'s use!
  278|       |
  279|       |                // `RUST_LIBFUZZER_DEBUG_PATH` is set in initialization.
  280|  1.96k|                if let Some(path) = $crate::RUST_LIBFUZZER_DEBUG_PATH.get() {
  281|       |                    use std::io::Write;
  282|      0|                    let mut file = std::fs::File::create(path)
  283|      0|                        .expect("failed to create `RUST_LIBFUZZER_DEBUG_PATH` file");
  284|      0|                    (match data {
  285|      0|                        Ok(data) => writeln!(&mut file, "{:#?}", data),
  286|      0|                        Err(err) => writeln!(&mut file, "Arbitrary Error: {}", err),
  287|       |                    })
  288|      0|                    .expect("failed to write to `RUST_LIBFUZZER_DEBUG_PATH` file");
  289|      0|                    return -1;
  290|  1.96k|                }
  291|       |
  292|  1.96k|                let data = match data {
  293|  1.96k|                    Ok(d) => d,
  294|      0|                    Err(_) => return -1,
  295|       |                };
  296|       |
  297|  1.96k|                let result = ::libfuzzer_sys::Corpus::from(__libfuzzer_sys_run(data));
  298|  1.96k|                result.to_libfuzzer_code()
  299|  1.96k|            }
LLVMFuzzerTestOneInput:
   58|  1.96k|pub fn test_input_wrap(data: *const u8, size: usize) -> i32 {
   59|  1.96k|    let test_input = ::std::panic::catch_unwind(|| unsafe {
   60|       |        let data_slice = ::std::slice::from_raw_parts(data, size);
   61|       |        rust_fuzzer_test_input(data_slice)
   62|  1.96k|    });
   63|  1.96k|
   64|  1.96k|    match test_input {
   65|  1.96k|        Ok(i) => i,
   66|       |        Err(_) => {
   67|       |            // hopefully the custom panic hook will be called before and abort the
   68|       |            // process before the stack frames are unwinded.
   69|      0|            ::std::process::abort();
   70|       |        }
   71|       |    }
   72|  1.96k|}
_RNCNvCs9LliYg8ug9X_13libfuzzer_sys15test_input_wrap0B3_:
   59|  1.96k|    let test_input = ::std::panic::catch_unwind(|| unsafe {
   60|  1.96k|        let data_slice = ::std::slice::from_raw_parts(data, size);
   61|  1.96k|        rust_fuzzer_test_input(data_slice)
   62|  1.96k|    });
LLVMFuzzerInitialize:
   79|      2|pub fn initialize(_argc: *const isize, _argv: *const *const *const u8) -> isize {
   80|      2|    // Registers a panic hook that aborts the process before unwinding.
   81|      2|    // It is useful to abort before unwinding so that the fuzzer will then be
   82|      2|    // able to analyse the process stack frames to tell different bugs appart.
   83|      2|    //
   84|      2|    // HACK / FIXME: it would be better to use `-C panic=abort` but it's currently
   85|      2|    // impossible to build code using compiler plugins with this flag.
   86|      2|    // We will be able to remove this code when
   87|      2|    // https://github.com/rust-lang/cargo/issues/5423 is fixed.
   88|      2|    let default_hook = ::std::panic::take_hook();
   89|      2|    ::std::panic::set_hook(Box::new(move |panic_info| {
   90|       |        default_hook(panic_info);
   91|       |        ::std::process::abort();
   92|      2|    }));
   93|       |
   94|       |    // Initialize the `RUST_LIBFUZZER_DEBUG_PATH` cell with the path so it can be
   95|       |    // reused with little overhead.
   96|      2|    if let Ok(path) = std::env::var("RUST_LIBFUZZER_DEBUG_PATH") {
   97|      0|        RUST_LIBFUZZER_DEBUG_PATH
   98|      0|            .set(path)
   99|      0|            .expect("Since this is initialize it is only called once so can never fail");
  100|      2|    }
  101|      2|    0
  102|      2|}

_RNvXs_Cs7f28p97iUrb_3logNtB4_5LevelINtNtCslATUeuPuGvJ_4core3cmp10PartialOrdNtB4_11LevelFilterE11partial_cmpCs9kGaKDyuozi_20fuzz_arbitrary_bytes:
  464|  1.83M|    fn partial_cmp(&self, other: &LevelFilter) -> Option<cmp::Ordering> {
  465|  1.83M|        Some((*self as usize).cmp(&(*other as usize)))
  466|  1.83M|    }
_RNvCs7f28p97iUrb_3log9max_level:
 1270|  1.02M|pub fn max_level() -> LevelFilter {
 1271|  1.02M|    // Since `LevelFilter` is `repr(usize)`,
 1272|  1.02M|    // this transmute is sound if and only if `MAX_LOG_LEVEL_FILTER`
 1273|  1.02M|    // is set to a usize that is a valid discriminant for `LevelFilter`.
 1274|  1.02M|    // Since `MAX_LOG_LEVEL_FILTER` is private, the only time it's set
 1275|  1.02M|    // is by `set_max_level` above, i.e. by casting a `LevelFilter` to `usize`.
 1276|  1.02M|    // So any usize stored in `MAX_LOG_LEVEL_FILTER` is a valid discriminant.
 1277|  1.02M|    unsafe { mem::transmute(MAX_LOG_LEVEL_FILTER.load(Ordering::Relaxed)) }
 1278|  1.02M|}
_RNvXs_Cs7f28p97iUrb_3logNtB4_5LevelINtNtCslATUeuPuGvJ_4core3cmp10PartialOrdNtB4_11LevelFilterE11partial_cmpCseKOJhBLZIbD_8rsonpath:
  464|   215k|    fn partial_cmp(&self, other: &LevelFilter) -> Option<cmp::Ordering> {
  465|   215k|        Some((*self as usize).cmp(&(*other as usize)))
  466|   215k|    }

_RINvNtCsijflsOnQTe0_3nom6branch3altRecINtNtB4_5error5ErrorBx_ETNCINvNtB4_10combinator6verifyBx_ccBA_NCINvNtNtB4_9character8complete7none_ofBx_Bx_BA_E0NCNvNtNtCseKOJhBLZIbD_8rsonpath5query6parser9unescaped0E0NCINvB1F_4charBx_BA_E0EEB2w_:
   47|  3.92k|pub fn alt<I: Clone, O, E: ParseError<I>, List: Alt<I, O, E>>(
   48|  3.92k|  mut l: List,
   49|  3.92k|) -> impl FnMut(I) -> IResult<I, O, E> {
   50|       |  move |i: I| l.choice(i)
   51|  3.92k|}
_RINvNtCsijflsOnQTe0_3nom6branch3altReNtNtNtCseKOJhBLZIbD_8rsonpath5query6parser5TokenINtNtB4_5error5ErrorBx_ETNCINvNtB4_10combinator3mapBx_cBz_B1l_NCIB0_Bx_cB1l_TNCINvNtB4_8sequence8precededBx_ccB1l_NCINvNtNtB4_9character8complete4charBx_B1l_E0B3b_E0NCINvB2F_9delimitedBx_cccB1l_B3b_B3b_B3b_E0EE0NCNvBB_23wildcard_child_selector0E0NCIB1N_Bx_NtBB_12MemberStringBz_B1l_NCIB0_Bx_B5t_B1l_TNCIB2D_Bx_cB5t_B1l_B3b_NCIB1N_Bx_Bx_B5t_B1l_NCINvB1P_9recognizeBx_TcINtNtCshJIxznpEM8j_5alloc3vec3VeccEEB1l_NCINvB2F_4pairBx_cB7h_B1l_NCINvB1P_6verifyBx_ccB1l_INvB3g_7anycharBx_B1l_ENCNvBB_12member_first0E0NCINvNtB4_5multi5many0Bx_cB1l_NCIB8o_Bx_ccB1l_B8K_NCNvBB_16member_character0E0E0E0E0NcNtB5t_8Borrowed0E0E0NCIB43_Bx_cB5t_cB1l_B3b_NCIB0_Bx_B5t_B1l_TNCIB43_Bx_cB5t_cB1l_B3b_NCIB1N_Bx_INtNtCslATUeuPuGvJ_4core6option6OptionNtNtB7m_6string6StringEB5t_B1l_NCINvB1P_3optBx_Bd3_B1l_NCINvNtNtB4_5bytes8complete17escaped_transformBx_B1l_NCIB1N_Bx_IB7i_NtBB_16MaybeEscapedCharENtBB_19MaybeEscapedCharVecB1l_NCINvB9A_5many1Bx_Bf2_B1l_NCIB0_Bx_Bf2_B1l_TNCIB1N_Bx_cBf2_B1l_NCIB8o_Bx_ccB1l_NCINvB3g_7none_ofBx_Bx_B1l_E0NCNvBB_9unescaped0E0NcNtBf2_4Char0E0NCIB1N_Bx_cBf2_B1l_B3b_NcNtBf2_7Escaped0E0EE0E0NcBfq_0E0NCIB0_Bx_Bx_B1l_TNCIB0_Bx_Bx_B1l_TNCINvB1P_5valueBx_Bx_Bx_B1l_NCINvBe1_3tagBx_Bx_B1l_E0E0BjG_BjG_BjG_BjG_BjG_BjG_EE0BjG_EE0Bfq_Bx_cBd3_E0E0NvYB5t_INtNtBcw_7convert4FromBcr_E4fromE0B3b_E0NCIB43_Bx_cB5t_cB1l_B3b_NCIB1N_Bx_Bcr_B5t_B1l_NCIBdB_Bx_Bd3_B1l_NCIBdZ_Bx_B1l_NCIB6W_Bx_B7h_B1l_NCIBfX_Bx_cB1l_NCIB0_Bx_cB1l_TBgV_B3b_EE0E0E0Bj8_Bx_Bx_cBd3_E0E0Bln_E0B3b_E0EE0B3b_E0EE0NcNtBz_5Child0E0NCIB1N_Bx_NtNtBD_23nonnegative_array_index21NonNegativeArrayIndexBz_B1l_NCIB43_Bx_cBpw_cB1l_B3b_NCINvB1P_7map_resBx_yBpw_B1l_NtNtBD_5error15ArrayIndexErrorNCIBqX_Bx_Bx_yB1l_NtNtNtBcw_3num5error13ParseIntErrorNCIBqX_Bx_Bx_Bx_B1l_Brn_INvB3g_6digit1Bx_B1l_ENCNvBB_26length_limited_array_index0E0INvMNtBcw_3stre5parseyEE0NvYyINtBlx_7TryIntoBpw_E8try_intoE0B3b_E0NcNtBz_15ArrayIndexChild0E0NCIB1N_Bx_cBz_B1l_NCIB2D_Bx_Bx_cB1l_Bk8_NCIB0_Bx_cB1l_TB3b_B40_EE0E0NCNvBB_28wildcard_descendant_selector0E0NCIB2D_Bx_Bx_Bz_B1l_Bk8_NCIB0_Bx_Bz_B1l_TNCIB1N_Bx_B5t_Bz_B1l_NCIB0_Bx_B5t_B1l_TB6y_Bbd_EE0NcNtBz_10Descendant0E0NCIB1N_Bx_Bpw_Bz_B1l_Bqw_NcNtBz_20ArrayIndexDescendant0E0EE0E0EEBF_:
   47|  1.96k|pub fn alt<I: Clone, O, E: ParseError<I>, List: Alt<I, O, E>>(
   48|  1.96k|  mut l: List,
   49|  1.96k|) -> impl FnMut(I) -> IResult<I, O, E> {
   50|       |  move |i: I| l.choice(i)
   51|  1.96k|}
_RNvXs_NtCsijflsOnQTe0_3nom6branchTNCINvNtNtB6_9character8complete4charReINtNtB6_5error5ErrorB16_EE0NCINvNtB6_8sequence9delimitedB16_cccB18_Bw_Bw_Bw_E0EINtB4_3AltB16_cB18_E6choiceCseKOJhBLZIbD_8rsonpath:
  134|  1.96k|      fn choice(&mut self, input: Input) -> IResult<Input, Output, Error> {
  135|  1.96k|        match self.0.parse(input.clone()) {
  136|      0|          Err(Err::Error(e)) => alt_trait_inner!(1, self, input, e, $($id)+),
  137|  1.96k|          res => res,
  138|       |        }
  139|  1.96k|      }
_RNCINvNtCsijflsOnQTe0_3nom6branch3altRecINtNtB6_5error5ErrorBz_ETNCINvNtNtB6_9character8complete4charBz_BC_E0NCINvNtB6_8sequence9delimitedBz_cccBC_B11_B11_B11_E0EE0CseKOJhBLZIbD_8rsonpath:
   50|  1.96k|  move |i: I| l.choice(i)
_RINvNtCsijflsOnQTe0_3nom6branch3altReNtNtNtCseKOJhBLZIbD_8rsonpath5query6parser5TokenINtNtB4_5error5ErrorBx_ETNCINvNtB4_10combinator3mapBx_NtBB_12MemberStringBz_B1l_NCIB0_Bx_B2d_B1l_TNCIB1N_Bx_Bx_B2d_B1l_NCINvB1P_9recognizeBx_TcINtNtCshJIxznpEM8j_5alloc3vec3VeccEEB1l_NCINvNtB4_8sequence4pairBx_cB3E_B1l_NCINvB1P_6verifyBx_ccB1l_INvNtNtB4_9character8complete7anycharBx_B1l_ENCNvBB_12member_first0E0NCINvNtB4_5multi5many0Bx_cB1l_NCIB4V_Bx_ccB1l_B5h_NCNvBB_16member_character0E0E0E0E0NcNtB2d_8Borrowed0E0NCINvB4n_9delimitedBx_cB2d_cB1l_NCINvB5k_4charBx_B1l_E0NCIB0_Bx_B2d_B1l_TNCIB87_Bx_cB2d_cB1l_B8A_NCIB1N_Bx_INtNtCslATUeuPuGvJ_4core6option6OptionNtNtB3J_6string6StringEB2d_B1l_NCINvB1P_3optBx_Bap_B1l_NCINvNtNtB4_5bytes8complete17escaped_transformBx_B1l_NCIB1N_Bx_IB3F_NtBB_16MaybeEscapedCharENtBB_19MaybeEscapedCharVecB1l_NCINvB6t_5many1Bx_Bco_B1l_NCIB0_Bx_Bco_B1l_TNCIB1N_Bx_cBco_B1l_NCIB4V_Bx_ccB1l_NCINvB5k_7none_ofBx_Bx_B1l_E0NCNvBB_9unescaped0E0NcNtBco_4Char0E0NCIB1N_Bx_cBco_B1l_B8A_NcNtBco_7Escaped0E0EE0E0NcBcM_0E0NCIB0_Bx_Bx_B1l_TNCIB0_Bx_Bx_B1l_TNCINvB1P_5valueBx_Bx_Bx_B1l_NCINvBbn_3tagBx_Bx_B1l_E0E0Bh2_Bh2_Bh2_Bh2_Bh2_Bh2_EE0Bh2_EE0BcM_Bx_cBap_E0E0NvYB2d_INtNtB9S_7convert4FromB9N_E4fromE0B8A_E0NCIB87_Bx_cB2d_cB1l_B8A_NCIB1N_Bx_B9N_B2d_B1l_NCIBaX_Bx_Bap_B1l_NCIBbl_Bx_B1l_NCIB3j_Bx_B3E_B1l_NCIBdj_Bx_cB1l_NCIB0_Bx_cB1l_TBeh_B8A_EE0E0E0Bgu_Bx_Bx_cBap_E0E0BiJ_E0B8A_E0EE0B8A_E0EE0NcNtBz_10Descendant0E0NCIB1N_Bx_NtNtBD_23nonnegative_array_index21NonNegativeArrayIndexBz_B1l_NCIB87_Bx_cBmY_cB1l_B8A_NCINvB1P_7map_resBx_yBmY_B1l_NtNtBD_5error15ArrayIndexErrorNCIBop_Bx_Bx_yB1l_NtNtNtB9S_3num5error13ParseIntErrorNCIBop_Bx_Bx_Bx_B1l_BoP_INvB5k_6digit1Bx_B1l_ENCNvBB_26length_limited_array_index0E0INvMNtB9S_3stre5parseyEE0NvYyINtBiT_7TryIntoBmY_E8try_intoE0B8A_E0NcNtBz_20ArrayIndexDescendant0E0EEBF_:
   47|  1.96k|pub fn alt<I: Clone, O, E: ParseError<I>, List: Alt<I, O, E>>(
   48|  1.96k|  mut l: List,
   49|  1.96k|) -> impl FnMut(I) -> IResult<I, O, E> {
   50|       |  move |i: I| l.choice(i)
   51|  1.96k|}
_RNCINvNtCsijflsOnQTe0_3nom6branch3altRecINtNtB6_5error5ErrorBz_ETNCINvNtB6_8sequence8precededBz_ccBC_NCINvNtNtB6_9character8complete4charBz_BC_E0B1B_E0NCINvB16_9delimitedBz_cccBC_B1B_B1B_B1B_E0EE0CseKOJhBLZIbD_8rsonpath:
   50|  3.92k|  move |i: I| l.choice(i)
_RINvNtCsijflsOnQTe0_3nom6branch3altReNtNtNtCseKOJhBLZIbD_8rsonpath5query6parser12MemberStringINtNtB4_5error5ErrorBx_ETNCINvNtB4_8sequence9delimitedBx_cBz_cB1t_NCINvNtNtB4_9character8complete4charBx_B1t_E0NCINvNtB4_10combinator3mapBx_INtNtCslATUeuPuGvJ_4core6option6OptionNtNtCshJIxznpEM8j_5alloc6string6StringEBz_B1t_NCINvB3l_3optBx_B4l_B1t_NCINvNtNtB4_5bytes8complete17escaped_transformBx_B1t_NCIB3j_Bx_INtNtB4p_3vec3VecNtBB_16MaybeEscapedCharENtBB_19MaybeEscapedCharVecB1t_NCINvNtB4_5multi5many1Bx_B6L_B1t_NCIB0_Bx_B6L_B1t_TNCIB3j_Bx_cB6L_B1t_NCINvB3l_6verifyBx_ccB1t_NCINvB2C_7none_ofBx_Bx_B1t_E0NCNvBB_9unescaped0E0NcNtB6L_4Char0E0NCIB3j_Bx_cB6L_B1t_B2x_NcNtB6L_7Escaped0E0EE0E0NcB79_0E0NCIB0_Bx_Bx_B1t_TNCIB0_Bx_Bx_B1t_TNCINvB3l_5valueBx_Bx_Bx_B1t_NCINvB5y_3tagBx_Bx_B1t_E0E0BbF_BbF_BbF_BbF_BbF_BbF_EE0BbF_EE0B79_Bx_cB4l_E0E0NvYBz_INtNtB3O_7convert4FromB3J_E4fromE0B2x_E0NCIB1V_Bx_cBz_cB1t_B2x_NCIB3j_Bx_B3J_Bz_B1t_NCIB58_Bx_B4l_B1t_NCIB5w_Bx_B1t_NCINvB3l_9recognizeBx_IB6v_cEB1t_NCIB7G_Bx_cB1t_NCIB0_Bx_cB1t_TB8L_B2x_EE0E0E0Bb7_Bx_Bx_cB4l_E0E0Bdm_E0B2x_E0EEBF_:
   47|  3.92k|pub fn alt<I: Clone, O, E: ParseError<I>, List: Alt<I, O, E>>(
   48|  3.92k|  mut l: List,
   49|  3.92k|) -> impl FnMut(I) -> IResult<I, O, E> {
   50|       |  move |i: I| l.choice(i)
   51|  3.92k|}
_RINvNtCsijflsOnQTe0_3nom6branch3altReBx_INtNtB4_5error5ErrorBx_ETNCINvNtB4_10combinator5valueBx_Bx_Bx_BC_NCINvNtNtB4_5bytes8complete3tagBx_Bx_BC_E0E0B11_B11_B11_B11_B11_B11_EECseKOJhBLZIbD_8rsonpath:
   47|  7.84k|pub fn alt<I: Clone, O, E: ParseError<I>, List: Alt<I, O, E>>(
   48|  7.84k|  mut l: List,
   49|  7.84k|) -> impl FnMut(I) -> IResult<I, O, E> {
   50|       |  move |i: I| l.choice(i)
   51|  7.84k|}
_RINvNtCsijflsOnQTe0_3nom6branch3altReNtNtNtCseKOJhBLZIbD_8rsonpath5query6parser12MemberStringINtNtB4_5error5ErrorBx_ETNCINvNtB4_8sequence8precededBx_cBz_B1t_NCINvNtNtB4_9character8complete4charBx_B1t_E0NCINvNtB4_10combinator3mapBx_Bx_Bz_B1t_NCINvB3j_9recognizeBx_TcINtNtCshJIxznpEM8j_5alloc3vec3VeccEEB1t_NCINvB1X_4pairBx_cB4f_B1t_NCINvB3j_6verifyBx_ccB1t_INvB2A_7anycharBx_B1t_ENCNvBB_12member_first0E0NCINvNtB4_5multi5many0Bx_cB1t_NCIB5m_Bx_ccB1t_B5I_NCNvBB_16member_character0E0E0E0E0NcNtBz_8Borrowed0E0E0NCINvB1X_9delimitedBx_cBz_cB1t_B2v_NCIB0_Bx_Bz_B1t_TNCIB8d_Bx_cBz_cB1t_B2v_NCIB3h_Bx_INtNtCslATUeuPuGvJ_4core6option6OptionNtNtB4k_6string6StringEBz_B1t_NCINvB3j_3optBx_Ba9_B1t_NCINvNtNtB4_5bytes8complete17escaped_transformBx_B1t_NCIB3h_Bx_IB4g_NtBB_16MaybeEscapedCharENtBB_19MaybeEscapedCharVecB1t_NCINvB6y_5many1Bx_Bc7_B1t_NCIB0_Bx_Bc7_B1t_TNCIB3h_Bx_cBc7_B1t_NCIB5m_Bx_ccB1t_NCINvB2A_7none_ofBx_Bx_B1t_E0NCNvBB_9unescaped0E0NcNtBc7_4Char0E0NCIB3h_Bx_cBc7_B1t_B2v_NcNtBc7_7Escaped0E0EE0E0NcBcv_0E0NCIB0_Bx_Bx_B1t_TNCIB0_Bx_Bx_B1t_TNCINvB3j_5valueBx_Bx_Bx_B1t_NCINvBb6_3tagBx_Bx_B1t_E0E0BgL_BgL_BgL_BgL_BgL_BgL_EE0BgL_EE0Bcv_Bx_cBa9_E0E0NvYBz_INtNtB9C_7convert4FromB9x_E4fromE0B2v_E0NCIB8d_Bx_cBz_cB1t_B2v_NCIB3h_Bx_B9x_Bz_B1t_NCIBaG_Bx_Ba9_B1t_NCIBb4_Bx_B1t_NCIB3U_Bx_B4f_B1t_NCIBd2_Bx_cB1t_NCIB0_Bx_cB1t_TBe0_B2v_EE0E0E0Bgd_Bx_Bx_cBa9_E0E0Bis_E0B2v_E0EE0B2v_E0EEBF_:
   47|  1.96k|pub fn alt<I: Clone, O, E: ParseError<I>, List: Alt<I, O, E>>(
   48|  1.96k|  mut l: List,
   49|  1.96k|) -> impl FnMut(I) -> IResult<I, O, E> {
   50|       |  move |i: I| l.choice(i)
   51|  1.96k|}
_RINvNtCsijflsOnQTe0_3nom6branch3altReNtNtNtCseKOJhBLZIbD_8rsonpath5query6parser12MemberStringINtNtB4_5error5ErrorBx_ETNCINvNtB4_10combinator3mapBx_Bx_Bz_B1t_NCINvB1X_9recognizeBx_TcINtNtCshJIxznpEM8j_5alloc3vec3VeccEEB1t_NCINvNtB4_8sequence4pairBx_cB2T_B1t_NCINvB1X_6verifyBx_ccB1t_INvNtNtB4_9character8complete7anycharBx_B1t_ENCNvBB_12member_first0E0NCINvNtB4_5multi5many0Bx_cB1t_NCIB4a_Bx_ccB1t_B4w_NCNvBB_16member_character0E0E0E0E0NcNtBz_8Borrowed0E0NCINvB3C_9delimitedBx_cBz_cB1t_NCINvB4z_4charBx_B1t_E0NCIB0_Bx_Bz_B1t_TNCIB7l_Bx_cBz_cB1t_B7N_NCIB1V_Bx_INtNtCslATUeuPuGvJ_4core6option6OptionNtNtB2Y_6string6StringEBz_B1t_NCINvB1X_3optBx_B9A_B1t_NCINvNtNtB4_5bytes8complete17escaped_transformBx_B1t_NCIB1V_Bx_IB2U_NtBB_16MaybeEscapedCharENtBB_19MaybeEscapedCharVecB1t_NCINvB5I_5many1Bx_Bby_B1t_NCIB0_Bx_Bby_B1t_TNCIB1V_Bx_cBby_B1t_NCIB4a_Bx_ccB1t_NCINvB4z_7none_ofBx_Bx_B1t_E0NCNvBB_9unescaped0E0NcNtBby_4Char0E0NCIB1V_Bx_cBby_B1t_B7N_NcNtBby_7Escaped0E0EE0E0NcBbW_0E0NCIB0_Bx_Bx_B1t_TNCIB0_Bx_Bx_B1t_TNCINvB1X_5valueBx_Bx_Bx_B1t_NCINvBax_3tagBx_Bx_B1t_E0E0Bgc_Bgc_Bgc_Bgc_Bgc_Bgc_EE0Bgc_EE0BbW_Bx_cB9A_E0E0NvYBz_INtNtB93_7convert4FromB8Y_E4fromE0B7N_E0NCIB7l_Bx_cBz_cB1t_B7N_NCIB1V_Bx_B8Y_Bz_B1t_NCIBa7_Bx_B9A_B1t_NCIBav_Bx_B1t_NCIB2y_Bx_B2T_B1t_NCIBct_Bx_cB1t_NCIB0_Bx_cB1t_TBdr_B7N_EE0E0E0BfE_Bx_Bx_cB9A_E0E0BhT_E0B7N_E0EE0B7N_E0EEBF_:
   47|  1.96k|pub fn alt<I: Clone, O, E: ParseError<I>, List: Alt<I, O, E>>(
   48|  1.96k|  mut l: List,
   49|  1.96k|) -> impl FnMut(I) -> IResult<I, O, E> {
   50|       |  move |i: I| l.choice(i)
   51|  1.96k|}
_RNvXs2_NtCsijflsOnQTe0_3nom6branchTNCINvNtB7_10combinator3mapRecNtNtNtCseKOJhBLZIbD_8rsonpath5query6parser5TokenINtNtB7_5error5ErrorBX_ENCINvB5_3altBX_cB1M_TNCINvNtB7_8sequence8precededBX_ccB1M_NCINvNtNtB7_9character8complete4charBX_B1M_E0B36_E0NCINvB2A_9delimitedBX_cccB1M_B36_B36_B36_E0EE0NCNvB12_23wildcard_child_selector0E0NCIBA_BX_NtB12_12MemberStringB10_B1M_NCIB2d_BX_B5o_B1M_TNCIB2y_BX_cB5o_B1M_B36_NCIBA_BX_BX_B5o_B1M_NCINvBC_9recognizeBX_TcINtNtCshJIxznpEM8j_5alloc3vec3VeccEEB1M_NCINvB2A_4pairBX_cB7d_B1M_NCINvBC_6verifyBX_ccB1M_INvB3b_7anycharBX_B1M_ENCNvB12_12member_first0E0NCINvNtB7_5multi5many0BX_cB1M_NCIB8k_BX_ccB1M_B8F_NCNvB12_16member_character0E0E0E0E0NcNtB5o_8Borrowed0E0E0NCIB3Y_BX_cB5o_cB1M_B36_NCIB2d_BX_B5o_B1M_TNCIB3Y_BX_cB5o_cB1M_B36_NCIBA_BX_INtNtCslATUeuPuGvJ_4core6option6OptionNtNtB7i_6string6StringEB5o_B1M_NCINvBC_3optBX_Bd0_B1M_NCINvNtNtB7_5bytes8complete17escaped_transformBX_B1M_NCIBA_BX_IB7e_NtB12_16MaybeEscapedCharENtB12_19MaybeEscapedCharVecB1M_NCINvB9w_5many1BX_BeX_B1M_NCIB2d_BX_BeX_B1M_TNCIBA_BX_cBeX_B1M_NCIB8k_BX_ccB1M_NCINvB3b_7none_ofBX_BX_B1M_E0NCNvB12_9unescaped0E0NcNtBeX_4Char0E0NCIBA_BX_cBeX_B1M_B36_NcNtBeX_7Escaped0E0EE0E0NcBfm_0E0NCIB2d_BX_BX_B1M_TNCIB2d_BX_BX_B1M_TNCINvBC_5valueBX_BX_BX_B1M_NCINvBdX_3tagBX_BX_B1M_E0E0BjF_BjF_BjF_BjF_BjF_BjF_EE0BjF_EE0Bfm_BX_cBd0_E0E0NvYB5o_INtNtBct_7convert4FromBco_E4fromE0B36_E0NCIB3Y_BX_cB5o_cB1M_B36_NCIBA_BX_Bco_B5o_B1M_NCIBdy_BX_Bd0_B1M_NCIBdV_BX_B1M_NCIB6T_BX_B7d_B1M_NCIBfU_BX_cB1M_NCIB2d_BX_cB1M_TBgS_B36_EE0E0E0Bj5_BX_BX_cBd0_E0E0Bll_E0B36_E0EE0B36_E0EE0NcNtB10_5Child0E0NCIBA_BX_NtNtB14_23nonnegative_array_index21NonNegativeArrayIndexB10_B1M_NCIB3Y_BX_cBpu_cB1M_B36_NCINvBC_7map_resBX_yBpu_B1M_NtNtB14_5error15ArrayIndexErrorNCIBqX_BX_BX_yB1M_NtNtNtBct_3num5error13ParseIntErrorNCIBqX_BX_BX_BX_B1M_Brm_INvB3b_6digit1BX_B1M_ENCNvB12_26length_limited_array_index0E0INvMNtBct_3stre5parseyEE0NvYyINtBlv_7TryIntoBpu_E8try_intoE0B36_E0NcNtB10_15ArrayIndexChild0E0NCIBA_BX_cB10_B1M_NCIB2y_BX_BX_cB1M_Bk6_NCIB2d_BX_cB1M_TB36_B3V_EE0E0NCNvB12_28wildcard_descendant_selector0E0NCIB2y_BX_BX_B10_B1M_Bk6_NCIB2d_BX_B10_B1M_TNCIBA_BX_B5o_B10_B1M_NCIB2d_BX_B5o_B1M_TB6w_Bba_EE0NcNtB10_10Descendant0E0NCIBA_BX_Bpu_B10_B1M_Bqw_NcNtB10_20ArrayIndexDescendant0E0EE0E0EINtB5_3AltBX_B10_B1M_E6choiceB16_:
  134|  3.92k|      fn choice(&mut self, input: Input) -> IResult<Input, Output, Error> {
  135|  3.92k|        match self.0.parse(input.clone()) {
  136|  3.92k|          Err(Err::Error(e)) => alt_trait_inner!(1, self, input, e, $($id)+),
  137|      0|          res => res,
  138|       |        }
  139|  3.92k|      }
_RINvNtCsijflsOnQTe0_3nom6branch3altRecINtNtB4_5error5ErrorBx_ETNCINvNtNtB4_9character8complete4charBx_BA_E0NCINvNtB4_8sequence9delimitedBx_cccBA_BZ_BZ_BZ_E0EECseKOJhBLZIbD_8rsonpath:
   47|  1.96k|pub fn alt<I: Clone, O, E: ParseError<I>, List: Alt<I, O, E>>(
   48|  1.96k|  mut l: List,
   49|  1.96k|) -> impl FnMut(I) -> IResult<I, O, E> {
   50|       |  move |i: I| l.choice(i)
   51|  1.96k|}
_RINvNtCsijflsOnQTe0_3nom6branch3altReBx_INtNtB4_5error5ErrorBx_ETNCIB0_Bx_Bx_BC_TNCINvNtB4_10combinator5valueBx_Bx_Bx_BC_NCINvNtNtB4_5bytes8complete3tagBx_Bx_BC_E0E0B1h_B1h_B1h_B1h_B1h_B1h_EE0B1h_EECseKOJhBLZIbD_8rsonpath:
   47|  7.84k|pub fn alt<I: Clone, O, E: ParseError<I>, List: Alt<I, O, E>>(
   48|  7.84k|  mut l: List,
   49|  7.84k|) -> impl FnMut(I) -> IResult<I, O, E> {
   50|       |  move |i: I| l.choice(i)
   51|  7.84k|}
_RNCINvNtCsijflsOnQTe0_3nom6branch3altReNtNtNtCseKOJhBLZIbD_8rsonpath5query6parser5TokenINtNtB6_5error5ErrorBz_ETNCINvNtB6_10combinator3mapBz_cBB_B1n_NCIB2_Bz_cB1n_TNCINvNtB6_8sequence8precededBz_ccB1n_NCINvNtNtB6_9character8complete4charBz_B1n_E0B3d_E0NCINvB2H_9delimitedBz_cccB1n_B3d_B3d_B3d_E0EE0NCNvBD_23wildcard_child_selector0E0NCIB1P_Bz_NtBD_12MemberStringBB_B1n_NCIB2_Bz_B5v_B1n_TNCIB2F_Bz_cB5v_B1n_B3d_NCIB1P_Bz_Bz_B5v_B1n_NCINvB1R_9recognizeBz_TcINtNtCshJIxznpEM8j_5alloc3vec3VeccEEB1n_NCINvB2H_4pairBz_cB7j_B1n_NCINvB1R_6verifyBz_ccB1n_INvB3i_7anycharBz_B1n_ENCNvBD_12member_first0E0NCINvNtB6_5multi5many0Bz_cB1n_NCIB8q_Bz_ccB1n_B8M_NCNvBD_16member_character0E0E0E0E0NcNtB5v_8Borrowed0E0E0NCIB45_Bz_cB5v_cB1n_B3d_NCIB2_Bz_B5v_B1n_TNCIB45_Bz_cB5v_cB1n_B3d_NCIB1P_Bz_INtNtCslATUeuPuGvJ_4core6option6OptionNtNtB7o_6string6StringEB5v_B1n_NCINvB1R_3optBz_Bd5_B1n_NCINvNtNtB6_5bytes8complete17escaped_transformBz_B1n_NCIB1P_Bz_IB7k_NtBD_16MaybeEscapedCharENtBD_19MaybeEscapedCharVecB1n_NCINvB9C_5many1Bz_Bf4_B1n_NCIB2_Bz_Bf4_B1n_TNCIB1P_Bz_cBf4_B1n_NCIB8q_Bz_ccB1n_NCINvB3i_7none_ofBz_Bz_B1n_E0NCNvBD_9unescaped0E0NcNtBf4_4Char0E0NCIB1P_Bz_cBf4_B1n_B3d_NcNtBf4_7Escaped0E0EE0E0NcBfs_0E0NCIB2_Bz_Bz_B1n_TNCIB2_Bz_Bz_B1n_TNCINvB1R_5valueBz_Bz_Bz_B1n_NCINvBe3_3tagBz_Bz_B1n_E0E0BjI_BjI_BjI_BjI_BjI_BjI_EE0BjI_EE0Bfs_Bz_cBd5_E0E0NvYB5v_INtNtBcy_7convert4FromBct_E4fromE0B3d_E0NCIB45_Bz_cB5v_cB1n_B3d_NCIB1P_Bz_Bct_B5v_B1n_NCIBdD_Bz_Bd5_B1n_NCIBe1_Bz_B1n_NCIB6Y_Bz_B7j_B1n_NCIBfZ_Bz_cB1n_NCIB2_Bz_cB1n_TBgX_B3d_EE0E0E0Bja_Bz_Bz_cBd5_E0E0Blp_E0B3d_E0EE0B3d_E0EE0NcNtBB_5Child0E0NCIB1P_Bz_NtNtBF_23nonnegative_array_index21NonNegativeArrayIndexBB_B1n_NCIB45_Bz_cBpy_cB1n_B3d_NCINvB1R_7map_resBz_yBpy_B1n_NtNtBF_5error15ArrayIndexErrorNCIBqZ_Bz_Bz_yB1n_NtNtNtBcy_3num5error13ParseIntErrorNCIBqZ_Bz_Bz_Bz_B1n_Brp_INvB3i_6digit1Bz_B1n_ENCNvBD_26length_limited_array_index0E0INvMNtBcy_3stre5parseyEE0NvYyINtBlz_7TryIntoBpy_E8try_intoE0B3d_E0NcNtBB_15ArrayIndexChild0E0NCIB1P_Bz_cBB_B1n_NCIB2F_Bz_Bz_cB1n_Bka_NCIB2_Bz_cB1n_TB3d_B42_EE0E0NCNvBD_28wildcard_descendant_selector0E0NCIB2F_Bz_Bz_BB_B1n_Bka_NCIB2_Bz_BB_B1n_TNCIB1P_Bz_B5v_BB_B1n_NCIB2_Bz_B5v_B1n_TB6A_Bbf_EE0NcNtBB_10Descendant0E0NCIB1P_Bz_Bpy_BB_B1n_Bqy_NcNtBB_20ArrayIndexDescendant0E0EE0E0EE0BH_:
   50|  3.92k|  move |i: I| l.choice(i)
_RINvNtCsijflsOnQTe0_3nom6branch3altReNtNtNtCseKOJhBLZIbD_8rsonpath5query6parser16MaybeEscapedCharINtNtB4_5error5ErrorBx_ETNCINvNtB4_10combinator3mapBx_cBz_B1x_NCINvB21_6verifyBx_ccB1x_NCINvNtNtB4_9character8complete7none_ofBx_Bx_B1x_E0NCNvBB_9unescaped0E0NcNtBz_4Char0E0NCIB1Z_Bx_cBz_B1x_NCINvB31_4charBx_B1x_E0NcNtBz_7Escaped0E0EEBF_:
   47|  3.92k|pub fn alt<I: Clone, O, E: ParseError<I>, List: Alt<I, O, E>>(
   48|  3.92k|  mut l: List,
   49|  3.92k|) -> impl FnMut(I) -> IResult<I, O, E> {
   50|       |  move |i: I| l.choice(i)
   51|  3.92k|}
_RINvNtCsijflsOnQTe0_3nom6branch3altRecINtNtB4_5error5ErrorBx_ETNCINvNtB4_8sequence8precededBx_ccBA_NCINvNtNtB4_9character8complete4charBx_BA_E0B1z_E0NCINvB14_9delimitedBx_cccBA_B1z_B1z_B1z_E0EECseKOJhBLZIbD_8rsonpath:
   47|  1.96k|pub fn alt<I: Clone, O, E: ParseError<I>, List: Alt<I, O, E>>(
   48|  1.96k|  mut l: List,
   49|  1.96k|) -> impl FnMut(I) -> IResult<I, O, E> {
   50|       |  move |i: I| l.choice(i)
   51|  1.96k|}
_RNCINvNtCsijflsOnQTe0_3nom6branch3altReNtNtNtCseKOJhBLZIbD_8rsonpath5query6parser12MemberStringINtNtB6_5error5ErrorBz_ETNCINvNtB6_8sequence8precededBz_cBB_B1v_NCINvNtNtB6_9character8complete4charBz_B1v_E0NCINvNtB6_10combinator3mapBz_Bz_BB_B1v_NCINvB3l_9recognizeBz_TcINtNtCshJIxznpEM8j_5alloc3vec3VeccEEB1v_NCINvB1Z_4pairBz_cB4h_B1v_NCINvB3l_6verifyBz_ccB1v_INvB2C_7anycharBz_B1v_ENCNvBD_12member_first0E0NCINvNtB6_5multi5many0Bz_cB1v_NCIB5o_Bz_ccB1v_B5K_NCNvBD_16member_character0E0E0E0E0NcNtBB_8Borrowed0E0E0NCINvB1Z_9delimitedBz_cBB_cB1v_B2x_NCIB2_Bz_BB_B1v_TNCIB8f_Bz_cBB_cB1v_B2x_NCIB3j_Bz_INtNtCslATUeuPuGvJ_4core6option6OptionNtNtB4m_6string6StringEBB_B1v_NCINvB3l_3optBz_Bab_B1v_NCINvNtNtB6_5bytes8complete17escaped_transformBz_B1v_NCIB3j_Bz_IB4i_NtBD_16MaybeEscapedCharENtBD_19MaybeEscapedCharVecB1v_NCINvB6A_5many1Bz_Bc9_B1v_NCIB2_Bz_Bc9_B1v_TNCIB3j_Bz_cBc9_B1v_NCIB5o_Bz_ccB1v_NCINvB2C_7none_ofBz_Bz_B1v_E0NCNvBD_9unescaped0E0NcNtBc9_4Char0E0NCIB3j_Bz_cBc9_B1v_B2x_NcNtBc9_7Escaped0E0EE0E0NcBcx_0E0NCIB2_Bz_Bz_B1v_TNCIB2_Bz_Bz_B1v_TNCINvB3l_5valueBz_Bz_Bz_B1v_NCINvBb8_3tagBz_Bz_B1v_E0E0BgN_BgN_BgN_BgN_BgN_BgN_EE0BgN_EE0Bcx_Bz_cBab_E0E0NvYBB_INtNtB9E_7convert4FromB9z_E4fromE0B2x_E0NCIB8f_Bz_cBB_cB1v_B2x_NCIB3j_Bz_B9z_BB_B1v_NCIBaI_Bz_Bab_B1v_NCIBb6_Bz_B1v_NCIB3W_Bz_B4h_B1v_NCIBd4_Bz_cB1v_NCIB2_Bz_cB1v_TBe2_B2x_EE0E0E0Bgf_Bz_Bz_cBab_E0E0Biu_E0B2x_E0EE0B2x_E0EE0BH_:
   50|  3.92k|  move |i: I| l.choice(i)
_RNvXs_NtCsijflsOnQTe0_3nom6branchTNCINvNtB6_8sequence8precededReccINtNtB6_5error5ErrorBY_ENCINvNtNtB6_9character8complete4charBY_B12_E0B1q_E0NCINvBB_9delimitedBY_cccB12_B1q_B1q_B1q_E0EINtB4_3AltBY_cB12_E6choiceCseKOJhBLZIbD_8rsonpath:
  134|  3.92k|      fn choice(&mut self, input: Input) -> IResult<Input, Output, Error> {
  135|  3.92k|        match self.0.parse(input.clone()) {
  136|  3.92k|          Err(Err::Error(e)) => alt_trait_inner!(1, self, input, e, $($id)+),
  137|      0|          res => res,
  138|       |        }
  139|  3.92k|      }
_RNvXs_NtCsijflsOnQTe0_3nom6branchTNCINvNtB6_8sequence8precededRecNtNtNtCseKOJhBLZIbD_8rsonpath5query6parser12MemberStringINtNtB6_5error5ErrorBY_ENCINvNtNtB6_9character8complete4charBY_B1V_E0NCINvNtB6_10combinator3mapBY_BY_B11_B1V_NCINvB37_9recognizeBY_TcINtNtCshJIxznpEM8j_5alloc3vec3VeccEEB1V_NCINvBB_4pairBY_cB44_B1V_NCINvB37_6verifyBY_ccB1V_INvB2o_7anycharBY_B1V_ENCNvB13_12member_first0E0NCINvNtB6_5multi5many0BY_cB1V_NCIB5a_BY_ccB1V_B5w_NCNvB13_16member_character0E0E0E0E0NcNtB11_8Borrowed0E0E0NCINvBB_9delimitedBY_cB11_cB1V_B2j_NCINvB4_3altBY_B11_B1V_TNCIB84_BY_cB11_cB1V_B2j_NCIB35_BY_INtNtCslATUeuPuGvJ_4core6option6OptionNtNtB49_6string6StringEB11_B1V_NCINvB37_3optBY_Ba8_B1V_NCINvNtNtB6_5bytes8complete17escaped_transformBY_B1V_NCIB35_BY_IB45_NtB13_16MaybeEscapedCharENtB13_19MaybeEscapedCharVecB1V_NCINvB6n_5many1BY_Bc7_B1V_NCIB8D_BY_Bc7_B1V_TNCIB35_BY_cBc7_B1V_NCIB5a_BY_ccB1V_NCINvB2o_7none_ofBY_BY_B1V_E0NCNvB13_9unescaped0E0NcNtBc7_4Char0E0NCIB35_BY_cBc7_B1V_B2j_NcNtBc7_7Escaped0E0EE0E0NcBcw_0E0NCIB8D_BY_BY_B1V_TNCIB8D_BY_BY_B1V_TNCINvB37_5valueBY_BY_BY_B1V_NCINvBb6_3tagBY_BY_B1V_E0E0BgR_BgR_BgR_BgR_BgR_BgR_EE0BgR_EE0Bcw_BY_cBa8_E0E0NvYB11_INtNtB9B_7convert4FromB9w_E4fromE0B2j_E0NCIB84_BY_cB11_cB1V_B2j_NCIB35_BY_B9w_B11_B1V_NCIBaG_BY_Ba8_B1V_NCIBb4_BY_B1V_NCIB3J_BY_B44_B1V_NCIBd4_BY_cB1V_NCIB8D_BY_cB1V_TBe3_B2j_EE0E0E0Bgh_BY_BY_cBa8_E0E0Biy_E0B2j_E0EE0B2j_E0EINtB4_3AltBY_B11_B1V_E6choiceB17_:
  134|  3.92k|      fn choice(&mut self, input: Input) -> IResult<Input, Output, Error> {
  135|  3.92k|        match self.0.parse(input.clone()) {
  136|  3.92k|          Err(Err::Error(e)) => alt_trait_inner!(1, self, input, e, $($id)+),
  137|      0|          res => res,
  138|       |        }
  139|  3.92k|      }

_RINvNtNtCsijflsOnQTe0_3nom5bytes8complete17escaped_transformReINtNtB6_5error5ErrorBW_ENCINvNtB6_10combinator9recognizeBW_INtNtCshJIxznpEM8j_5alloc3vec3VeccEBY_NCINvNtB6_5multi5many1BW_cBY_NCINvNtB6_6branch3altBW_cBY_TNCINvB1r_6verifyBW_ccBY_NCINvNtNtB6_9character8complete7none_ofBW_BW_BY_E0NCNvNtNtCseKOJhBLZIbD_8rsonpath5query6parser9unescaped0E0NCINvB3W_4charBW_BY_E0EE0E0E0NCIB33_BW_BW_BY_TNCIB33_BW_BW_BY_TNCINvB1r_5valueBW_BW_BW_BY_NCINvB2_3tagBW_BW_BY_E0E0B6B_B6B_B6B_B6B_B6B_B6B_EE0B6B_EE0BW_BW_cNtNtB20_6string6StringEB4N_:
  623|  3.92k|pub fn escaped_transform<Input, Error, F, G, O1, O2, ExtendItem, Output>(
  624|  3.92k|  mut normal: F,
  625|  3.92k|  control_char: char,
  626|  3.92k|  mut transform: G,
  627|  3.92k|) -> impl FnMut(Input) -> IResult<Input, Output, Error>
  628|  3.92k|where
  629|  3.92k|  Input: Clone
  630|  3.92k|    + crate::traits::Offset
  631|  3.92k|    + InputLength
  632|  3.92k|    + InputTake
  633|  3.92k|    + InputTakeAtPosition
  634|  3.92k|    + Slice<RangeFrom<usize>>
  635|  3.92k|    + InputIter,
  636|  3.92k|  Input: crate::traits::ExtendInto<Item = ExtendItem, Extender = Output>,
  637|  3.92k|  O1: crate::traits::ExtendInto<Item = ExtendItem, Extender = Output>,
  638|  3.92k|  O2: crate::traits::ExtendInto<Item = ExtendItem, Extender = Output>,
  639|  3.92k|  <Input as InputIter>::Item: crate::traits::AsChar,
  640|  3.92k|  F: Parser<Input, O1, Error>,
  641|  3.92k|  G: Parser<Input, O2, Error>,
  642|  3.92k|  Error: ParseError<Input>,
  643|  3.92k|{
  644|       |  use crate::traits::AsChar;
  645|       |
  646|       |  move |input: Input| {
  647|       |    let mut index = 0;
  648|       |    let mut res = input.new_builder();
  649|       |
  650|       |    let i = input.clone();
  651|       |
  652|       |    while index < i.input_len() {
  653|       |      let current_len = i.input_len();
  654|       |      let remainder = i.slice(index..);
  655|       |      match normal.parse(remainder.clone()) {
  656|       |        Ok((i2, o)) => {
  657|       |          o.extend_into(&mut res);
  658|       |          if i2.input_len() == 0 {
  659|       |            return Ok((i.slice(i.input_len()..), res));
  660|       |          } else if i2.input_len() == current_len {
  661|       |            return Ok((remainder, res));
  662|       |          } else {
  663|       |            index = input.offset(&i2);
  664|       |          }
  665|       |        }
  666|       |        Err(Err::Error(_)) => {
  667|       |          // unwrap() should be safe here since index < $i.input_len()
  668|       |          if remainder.iter_elements().next().unwrap().as_char() == control_char {
  669|       |            let next = index + control_char.len_utf8();
  670|       |            let input_len = input.input_len();
  671|       |
  672|       |            if next >= input_len {
  673|       |              return Err(Err::Error(Error::from_error_kind(
  674|       |                remainder,
  675|       |                ErrorKind::EscapedTransform,
  676|       |              )));
  677|       |            } else {
  678|       |              match transform.parse(i.slice(next..)) {
  679|       |                Ok((i2, o)) => {
  680|       |                  o.extend_into(&mut res);
  681|       |                  if i2.input_len() == 0 {
  682|       |                    return Ok((i.slice(i.input_len()..), res));
  683|       |                  } else {
  684|       |                    index = input.offset(&i2);
  685|       |                  }
  686|       |                }
  687|       |                Err(e) => return Err(e),
  688|       |              }
  689|       |            }
  690|       |          } else {
  691|       |            if index == 0 {
  692|       |              return Err(Err::Error(Error::from_error_kind(
  693|       |                remainder,
  694|       |                ErrorKind::EscapedTransform,
  695|       |              )));
  696|       |            }
  697|       |            return Ok((remainder, res));
  698|       |          }
  699|       |        }
  700|       |        Err(e) => return Err(e),
  701|       |      }
  702|       |    }
  703|       |    Ok((input.slice(index..), res))
  704|       |  }
  705|  3.92k|}
_RINvNtNtCsijflsOnQTe0_3nom5bytes8complete3tagReBH_INtNtB6_5error5ErrorBH_EECseKOJhBLZIbD_8rsonpath:
   32|  66.6k|pub fn tag<T, Input, Error: ParseError<Input>>(
   33|  66.6k|  tag: T,
   34|  66.6k|) -> impl Fn(Input) -> IResult<Input, Input, Error>
   35|  66.6k|where
   36|  66.6k|  Input: InputTake + Compare<T>,
   37|  66.6k|  T: InputLength + Clone,
   38|  66.6k|{
   39|       |  move |i: Input| {
   40|       |    let tag_len = tag.input_len();
   41|       |    let t = tag.clone();
   42|       |    let res: IResult<_, _, Error> = match i.compare(t) {
   43|       |      CompareResult::Ok => Ok(i.take_split(tag_len)),
   44|       |      _ => {
   45|       |        let e: ErrorKind = ErrorKind::Tag;
   46|       |        Err(Err::Error(Error::from_error_kind(i, e)))
   47|       |      }
   48|       |    };
   49|       |    res
   50|       |  }
   51|  66.6k|}
_RINvNtNtCsijflsOnQTe0_3nom5bytes8complete17escaped_transformReINtNtB6_5error5ErrorBW_ENCINvNtB6_10combinator3mapBW_INtNtCshJIxznpEM8j_5alloc3vec3VecNtNtNtCseKOJhBLZIbD_8rsonpath5query6parser16MaybeEscapedCharENtB2o_19MaybeEscapedCharVecBY_NCINvNtB6_5multi5many1BW_B2m_BY_NCINvNtB6_6branch3altBW_B2m_BY_TNCIB1p_BW_cB2m_BY_NCINvB1r_6verifyBW_ccBY_NCINvNtNtB6_9character8complete7none_ofBW_BW_BY_E0NCNvB2o_9unescaped0E0NcNtB2m_4Char0E0NCIB1p_BW_cB2m_BY_NCINvB5C_4charBW_BY_E0NcNtB2m_7Escaped0E0EE0E0NcB3l_0E0NCIB4o_BW_BW_BY_TNCIB4o_BW_BW_BY_TNCINvB1r_5valueBW_BW_BW_BY_NCINvB2_3tagBW_BW_BY_E0E0B8F_B8F_B8F_B8F_B8F_B8F_EE0B8F_EE0B3l_BW_cNtNtB1U_6string6StringEB2s_:
  623|  3.92k|pub fn escaped_transform<Input, Error, F, G, O1, O2, ExtendItem, Output>(
  624|  3.92k|  mut normal: F,
  625|  3.92k|  control_char: char,
  626|  3.92k|  mut transform: G,
  627|  3.92k|) -> impl FnMut(Input) -> IResult<Input, Output, Error>
  628|  3.92k|where
  629|  3.92k|  Input: Clone
  630|  3.92k|    + crate::traits::Offset
  631|  3.92k|    + InputLength
  632|  3.92k|    + InputTake
  633|  3.92k|    + InputTakeAtPosition
  634|  3.92k|    + Slice<RangeFrom<usize>>
  635|  3.92k|    + InputIter,
  636|  3.92k|  Input: crate::traits::ExtendInto<Item = ExtendItem, Extender = Output>,
  637|  3.92k|  O1: crate::traits::ExtendInto<Item = ExtendItem, Extender = Output>,
  638|  3.92k|  O2: crate::traits::ExtendInto<Item = ExtendItem, Extender = Output>,
  639|  3.92k|  <Input as InputIter>::Item: crate::traits::AsChar,
  640|  3.92k|  F: Parser<Input, O1, Error>,
  641|  3.92k|  G: Parser<Input, O2, Error>,
  642|  3.92k|  Error: ParseError<Input>,
  643|  3.92k|{
  644|       |  use crate::traits::AsChar;
  645|       |
  646|       |  move |input: Input| {
  647|       |    let mut index = 0;
  648|       |    let mut res = input.new_builder();
  649|       |
  650|       |    let i = input.clone();
  651|       |
  652|       |    while index < i.input_len() {
  653|       |      let current_len = i.input_len();
  654|       |      let remainder = i.slice(index..);
  655|       |      match normal.parse(remainder.clone()) {
  656|       |        Ok((i2, o)) => {
  657|       |          o.extend_into(&mut res);
  658|       |          if i2.input_len() == 0 {
  659|       |            return Ok((i.slice(i.input_len()..), res));
  660|       |          } else if i2.input_len() == current_len {
  661|       |            return Ok((remainder, res));
  662|       |          } else {
  663|       |            index = input.offset(&i2);
  664|       |          }
  665|       |        }
  666|       |        Err(Err::Error(_)) => {
  667|       |          // unwrap() should be safe here since index < $i.input_len()
  668|       |          if remainder.iter_elements().next().unwrap().as_char() == control_char {
  669|       |            let next = index + control_char.len_utf8();
  670|       |            let input_len = input.input_len();
  671|       |
  672|       |            if next >= input_len {
  673|       |              return Err(Err::Error(Error::from_error_kind(
  674|       |                remainder,
  675|       |                ErrorKind::EscapedTransform,
  676|       |              )));
  677|       |            } else {
  678|       |              match transform.parse(i.slice(next..)) {
  679|       |                Ok((i2, o)) => {
  680|       |                  o.extend_into(&mut res);
  681|       |                  if i2.input_len() == 0 {
  682|       |                    return Ok((i.slice(i.input_len()..), res));
  683|       |                  } else {
  684|       |                    index = input.offset(&i2);
  685|       |                  }
  686|       |                }
  687|       |                Err(e) => return Err(e),
  688|       |              }
  689|       |            }
  690|       |          } else {
  691|       |            if index == 0 {
  692|       |              return Err(Err::Error(Error::from_error_kind(
  693|       |                remainder,
  694|       |                ErrorKind::EscapedTransform,
  695|       |              )));
  696|       |            }
  697|       |            return Ok((remainder, res));
  698|       |          }
  699|       |        }
  700|       |        Err(e) => return Err(e),
  701|       |      }
  702|       |    }
  703|       |    Ok((input.slice(index..), res))
  704|       |  }
  705|  3.92k|}
_RNCINvNtNtCsijflsOnQTe0_3nom5bytes8complete3tagReBJ_INtNtB8_5error5ErrorBJ_EE0CseKOJhBLZIbD_8rsonpath:
   39|  5.88k|  move |i: Input| {
   40|  5.88k|    let tag_len = tag.input_len();
   41|  5.88k|    let t = tag.clone();
   42|  5.88k|    let res: IResult<_, _, Error> = match i.compare(t) {
   43|  1.96k|      CompareResult::Ok => Ok(i.take_split(tag_len)),
   44|       |      _ => {
   45|  3.92k|        let e: ErrorKind = ErrorKind::Tag;
   46|  3.92k|        Err(Err::Error(Error::from_error_kind(i, e)))
   47|       |      }
   48|       |    };
   49|  5.88k|    res
   50|  5.88k|  }

_RINvNtNtCsijflsOnQTe0_3nom9character8complete7none_ofReBP_INtNtB6_5error5ErrorBP_EECseKOJhBLZIbD_8rsonpath:
  113|  7.84k|pub fn none_of<I, T, Error: ParseError<I>>(list: T) -> impl Fn(I) -> IResult<I, char, Error>
  114|  7.84k|where
  115|  7.84k|  I: Slice<RangeFrom<usize>> + InputIter,
  116|  7.84k|  <I as InputIter>::Item: AsChar + Copy,
  117|  7.84k|  T: FindToken<<I as InputIter>::Item>,
  118|  7.84k|{
  119|       |  move |i: I| match (i).iter_elements().next().map(|c| (c, !list.find_token(c))) {
  120|       |    Some((c, true)) => Ok((i.slice(c.len()..), c.as_char())),
  121|       |    _ => Err(Err::Error(Error::from_error_kind(i, ErrorKind::NoneOf))),
  122|       |  }
  123|  7.84k|}
_RINvNtNtCsijflsOnQTe0_3nom9character8complete7anycharReINtNtB6_5error5ErrorBP_EECseKOJhBLZIbD_8rsonpath:
  309|  1.96k|pub fn anychar<T, E: ParseError<T>>(input: T) -> IResult<T, char, E>
  310|  1.96k|where
  311|  1.96k|  T: InputIter + InputLength + Slice<RangeFrom<usize>>,
  312|  1.96k|  <T as InputIter>::Item: AsChar,
  313|  1.96k|{
  314|  1.96k|  let mut it = input.iter_indices();
  315|  1.96k|  match it.next() {
  316|      0|    None => Err(Err::Error(E::from_error_kind(input, ErrorKind::Eof))),
  317|  1.96k|    Some((_, c)) => match it.next() {
  318|      0|      None => Ok((input.slice(input.input_len()..), c.as_char())),
  319|  1.96k|      Some((idx, _)) => Ok((input.slice(idx..), c.as_char())),
  320|       |    },
  321|       |  }
  322|  1.96k|}
_RNCNCINvNtNtCsijflsOnQTe0_3nom9character8complete4charReINtNtBa_5error5ErrorBQ_EE00CseKOJhBLZIbD_8rsonpath:
   37|  15.6k|  move |i: I| match (i).iter_elements().next().map(|t| {
   38|  15.6k|    let b = t.as_char() == c;
   39|  15.6k|    (&c, b)
   40|  15.6k|  }) {
_RNCINvNtNtCsijflsOnQTe0_3nom9character8complete4charReINtNtB8_5error5ErrorBO_EE0CseKOJhBLZIbD_8rsonpath:
   37|  25.4k|  move |i: I| match (i).iter_elements().next().map(|t| {
   38|       |    let b = t.as_char() == c;
   39|       |    (&c, b)
   40|  25.4k|  }) {
   41|  7.84k|    Some((c, true)) => Ok((i.slice(c.len()..), c.as_char())),
   42|  17.6k|    _ => Err(Err::Error(Error::from_char(i, c))),
   43|  25.4k|  }
_RINvNtNtCsijflsOnQTe0_3nom9character8complete4charReINtNtB6_5error5ErrorBM_EECseKOJhBLZIbD_8rsonpath:
   32|  60.7k|pub fn char<I, Error: ParseError<I>>(c: char) -> impl Fn(I) -> IResult<I, char, Error>
   33|  60.7k|where
   34|  60.7k|  I: Slice<RangeFrom<usize>> + InputIter,
   35|  60.7k|  <I as InputIter>::Item: AsChar,
   36|  60.7k|{
   37|       |  move |i: I| match (i).iter_elements().next().map(|t| {
   38|       |    let b = t.as_char() == c;
   39|       |    (&c, b)
   40|       |  }) {
   41|       |    Some((c, true)) => Ok((i.slice(c.len()..), c.as_char())),
   42|       |    _ => Err(Err::Error(Error::from_char(i, c))),
   43|       |  }
   44|  60.7k|}

_RNCINvNtCsijflsOnQTe0_3nom10combinator3mapReNtNtNtCseKOJhBLZIbD_8rsonpath5query23nonnegative_array_index21NonNegativeArrayIndexNtNtBK_6parser5TokenINtNtB6_5error5ErrorBE_ENCINvNtB6_8sequence9delimitedBE_cBG_cB2l_NCINvNtNtB6_9character8complete4charBE_B2l_E0NCINvB4_7map_resBE_yBG_B2l_NtNtBK_5error15ArrayIndexErrorNCIB4a_BE_BE_yB2l_NtNtNtCslATUeuPuGvJ_4core3num5error13ParseIntErrorNCIB4a_BE_BE_BE_B2l_B4y_INvB3t_6digit1BE_B2l_ENCNvB23_26length_limited_array_index0E0INvMNtB5q_3stre5parseyEE0NvYyINtNtB5q_7convert7TryIntoBG_E8try_intoE0B3o_E0NcNtB21_15ArrayIndexChild0E0BM_:
   78|  3.92k|  move |input: I| {
   79|  3.92k|    let (input, o1) = parser.parse(input)?;
   80|      0|    Ok((input, f(o1)))
   81|  3.92k|  }
_RINvNtCsijflsOnQTe0_3nom10combinator7map_resReBG_BG_INtNtB4_5error5ErrorBG_ENtNtNtCseKOJhBLZIbD_8rsonpath5query5error15ArrayIndexErrorINvNtNtB4_9character8complete6digit1BG_BO_ENCNvNtB1g_6parser26length_limited_array_index0EB1i_:
  104|  3.92k|pub fn map_res<I: Clone, O1, O2, E: FromExternalError<I, E2>, E2, F, G>(
  105|  3.92k|  mut parser: F,
  106|  3.92k|  mut f: G,
  107|  3.92k|) -> impl FnMut(I) -> IResult<I, O2, E>
  108|  3.92k|where
  109|  3.92k|  F: Parser<I, O1, E>,
  110|  3.92k|  G: FnMut(O1) -> Result<O2, E2>,
  111|  3.92k|{
  112|       |  move |input: I| {
  113|       |    let i = input.clone();
  114|       |    let (input, o1) = parser.parse(input)?;
  115|       |    match f(o1) {
  116|       |      Ok(o2) => Ok((input, o2)),
  117|       |      Err(e) => Err(Err::Error(E::from_external_error(i, ErrorKind::MapRes, e))),
  118|       |    }
  119|       |  }
  120|  3.92k|}
_RNCINvNtCsijflsOnQTe0_3nom10combinator3mapRecNtNtNtCseKOJhBLZIbD_8rsonpath5query6parser5TokenINtNtB6_5error5ErrorBE_ENCINvNtB6_6branch3altBE_cB1t_TNCINvNtB6_8sequence8precededBE_ccB1t_NCINvNtNtB6_9character8complete4charBE_B1t_E0B2W_E0NCINvB2q_9delimitedBE_cccB1t_B2W_B2W_B2W_E0EE0NCNvBJ_23wildcard_child_selector0E0BN_:
   78|  3.92k|  move |input: I| {
   79|  3.92k|    let (input, o1) = parser.parse(input)?;
   80|      0|    Ok((input, f(o1)))
   81|  3.92k|  }
_RINvNtCsijflsOnQTe0_3nom10combinator3mapReINtNtCslATUeuPuGvJ_4core6option6OptionNtNtCshJIxznpEM8j_5alloc6string6StringENtNtNtCseKOJhBLZIbD_8rsonpath5query6parser12MemberStringINtNtB4_5error5ErrorBC_ENCINvB2_3optBC_B1g_B2N_NCINvNtNtB4_5bytes8complete17escaped_transformBC_B2N_NCINvB2_9recognizeBC_INtNtB1k_3vec3VeccEB2N_NCINvNtB4_5multi5many1BC_cB2N_NCINvNtB4_6branch3altBC_cB2N_TNCINvB2_6verifyBC_ccB2N_NCINvNtNtB4_9character8complete7none_ofBC_BC_B2N_E0NCNvB1V_9unescaped0E0NCINvB6y_4charBC_B2N_E0EE0E0E0NCIB5E_BC_BC_B2N_TNCIB5E_BC_BC_B2N_TNCINvB2_5valueBC_BC_BC_B2N_NCINvB3D_3tagBC_BC_B2N_E0E0B8H_B8H_B8H_B8H_B8H_B8H_EE0B8H_EE0BC_BC_cB1g_E0E0NvYB1T_INtNtBJ_7convert4FromBE_E4fromEB1Z_:
   73|  3.92k|pub fn map<I, O1, O2, E, F, G>(mut parser: F, mut f: G) -> impl FnMut(I) -> IResult<I, O2, E>
   74|  3.92k|where
   75|  3.92k|  F: Parser<I, O1, E>,
   76|  3.92k|  G: FnMut(O1) -> O2,
   77|  3.92k|{
   78|       |  move |input: I| {
   79|       |    let (input, o1) = parser.parse(input)?;
   80|       |    Ok((input, f(o1)))
   81|       |  }
   82|  3.92k|}
_RINvNtCsijflsOnQTe0_3nom10combinator3optReNtNtCshJIxznpEM8j_5alloc6string6StringINtNtB4_5error5ErrorBC_ENCINvNtNtB4_5bytes8complete17escaped_transformBC_B1g_NCINvB2_9recognizeBC_INtNtBI_3vec3VeccEB1g_NCINvNtB4_5multi5many1BC_cB1g_NCINvNtB4_6branch3altBC_cB1g_TNCINvB2_6verifyBC_ccB1g_NCINvNtNtB4_9character8complete7none_ofBC_BC_B1g_E0NCNvNtNtCseKOJhBLZIbD_8rsonpath5query6parser9unescaped0E0NCINvB4D_4charBC_B1g_E0EE0E0E0NCIB3J_BC_BC_B1g_TNCIB3J_BC_BC_B1g_TNCINvB2_5valueBC_BC_BC_B1g_NCINvB1J_3tagBC_BC_B1g_E0E0B7m_B7m_B7m_B7m_B7m_B7m_EE0B7m_EE0BC_BC_cBE_E0EB5v_:
  239|  3.92k|pub fn opt<I: Clone, O, E: ParseError<I>, F>(mut f: F) -> impl FnMut(I) -> IResult<I, Option<O>, E>
  240|  3.92k|where
  241|  3.92k|  F: Parser<I, O, E>,
  242|  3.92k|{
  243|       |  move |input: I| {
  244|       |    let i = input.clone();
  245|       |    match f.parse(input) {
  246|       |      Ok((i, o)) => Ok((i, Some(o))),
  247|       |      Err(Err::Error(_)) => Ok((i, None)),
  248|       |      Err(e) => Err(e),
  249|       |    }
  250|       |  }
  251|  3.92k|}
_RINvNtCsijflsOnQTe0_3nom10combinator3mapReNtNtNtCseKOJhBLZIbD_8rsonpath5query23nonnegative_array_index21NonNegativeArrayIndexNtNtBI_6parser5TokenINtNtB4_5error5ErrorBC_ENCINvNtB4_8sequence9delimitedBC_cBE_cB2j_NCINvNtNtB4_9character8complete4charBC_B2j_E0NCINvB2_7map_resBC_yBE_B2j_NtNtBI_5error15ArrayIndexErrorNCIB48_BC_BC_yB2j_NtNtNtCslATUeuPuGvJ_4core3num5error13ParseIntErrorNCIB48_BC_BC_BC_B2j_B4w_INvB3r_6digit1BC_B2j_ENCNvB21_26length_limited_array_index0E0INvMNtB5o_3stre5parseyEE0NvYyINtNtB5o_7convert7TryIntoBE_E8try_intoE0B3m_E0NcNtB1Z_20ArrayIndexDescendant0EBK_:
   73|  1.96k|pub fn map<I, O1, O2, E, F, G>(mut parser: F, mut f: G) -> impl FnMut(I) -> IResult<I, O2, E>
   74|  1.96k|where
   75|  1.96k|  F: Parser<I, O1, E>,
   76|  1.96k|  G: FnMut(O1) -> O2,
   77|  1.96k|{
   78|       |  move |input: I| {
   79|       |    let (input, o1) = parser.parse(input)?;
   80|       |    Ok((input, f(o1)))
   81|       |  }
   82|  1.96k|}
_RNCINvNtCsijflsOnQTe0_3nom10combinator3mapReNtNtNtCseKOJhBLZIbD_8rsonpath5query6parser12MemberStringNtBI_5TokenINtNtB6_5error5ErrorBE_ENCINvNtB6_6branch3altBE_BG_B1L_TNCINvNtB6_8sequence8precededBE_cBG_B1L_NCINvNtNtB6_9character8complete4charBE_B1L_E0NCIB2_BE_BE_BG_B1L_NCINvB4_9recognizeBE_TcINtNtCshJIxznpEM8j_5alloc3vec3VeccEEB1L_NCINvB2K_4pairBE_cB4H_B1L_NCINvB4_6verifyBE_ccB1L_INvB3n_7anycharBE_B1L_ENCNvBI_12member_first0E0NCINvNtB6_5multi5many0BE_cB1L_NCIB5O_BE_ccB1L_B69_NCNvBI_16member_character0E0E0E0E0NcNtBG_8Borrowed0E0E0NCINvB2K_9delimitedBE_cBG_cB1L_B3i_NCIB2c_BE_BG_B1L_TNCIB8E_BE_cBG_cB1L_B3i_NCIB2_BE_INtNtCslATUeuPuGvJ_4core6option6OptionNtNtB4M_6string6StringEBG_B1L_NCINvB4_3optBE_BaA_B1L_NCINvNtNtB6_5bytes8complete17escaped_transformBE_B1L_NCIB2_BE_IB4I_NtBI_16MaybeEscapedCharENtBI_19MaybeEscapedCharVecB1L_NCINvB6Z_5many1BE_Bcw_B1L_NCIB2c_BE_Bcw_B1L_TNCIB2_BE_cBcw_B1L_NCIB5O_BE_ccB1L_NCINvB3n_7none_ofBE_BE_B1L_E0NCNvBI_9unescaped0E0NcNtBcw_4Char0E0NCIB2_BE_cBcw_B1L_B3i_NcNtBcw_7Escaped0E0EE0E0NcBcU_0E0NCIB2c_BE_BE_B1L_TNCIB2c_BE_BE_B1L_TNCINvB4_5valueBE_BE_BE_B1L_NCINvBbw_3tagBE_BE_B1L_E0E0Bhb_Bhb_Bhb_Bhb_Bhb_Bhb_EE0Bhb_EE0BcU_BE_cBaA_E0E0NvYBG_INtNtBa3_7convert4FromB9Y_E4fromE0B3i_E0NCIB8E_BE_cBG_cB1L_B3i_NCIB2_BE_B9Y_BG_B1L_NCIBb7_BE_BaA_B1L_NCIBbu_BE_B1L_NCIB4n_BE_B4H_B1L_NCIBdr_BE_cB1L_NCIB2c_BE_cB1L_TBep_B3i_EE0E0E0BgB_BE_BE_cBaA_E0E0BiR_E0B3i_E0EE0B3i_E0EE0NcNtB1A_5Child0E0BM_:
   78|  3.92k|  move |input: I| {
   79|  3.92k|    let (input, o1) = parser.parse(input)?;
   80|      0|    Ok((input, f(o1)))
   81|  3.92k|  }
_RINvNtCsijflsOnQTe0_3nom10combinator3mapRecNtNtNtCseKOJhBLZIbD_8rsonpath5query6parser16MaybeEscapedCharINtNtB4_5error5ErrorBC_ENCINvNtNtB4_9character8complete4charBC_B1D_E0NcNtBF_7Escaped0EBL_:
   73|  3.92k|pub fn map<I, O1, O2, E, F, G>(mut parser: F, mut f: G) -> impl FnMut(I) -> IResult<I, O2, E>
   74|  3.92k|where
   75|  3.92k|  F: Parser<I, O1, E>,
   76|  3.92k|  G: FnMut(O1) -> O2,
   77|  3.92k|{
   78|       |  move |input: I| {
   79|       |    let (input, o1) = parser.parse(input)?;
   80|       |    Ok((input, f(o1)))
   81|       |  }
   82|  3.92k|}
_RINvNtCsijflsOnQTe0_3nom10combinator3optReNtNtNtCseKOJhBLZIbD_8rsonpath5query6parser5TokenINtNtB4_5error5ErrorBC_ENCINvB2_3mapBC_cBE_B1q_NCINvNtNtB4_9character8complete4charBC_B1q_E0NCNvBG_8jsonpath0E0EBK_:
  239|  1.96k|pub fn opt<I: Clone, O, E: ParseError<I>, F>(mut f: F) -> impl FnMut(I) -> IResult<I, Option<O>, E>
  240|  1.96k|where
  241|  1.96k|  F: Parser<I, O, E>,
  242|  1.96k|{
  243|       |  move |input: I| {
  244|       |    let i = input.clone();
  245|       |    match f.parse(input) {
  246|       |      Ok((i, o)) => Ok((i, Some(o))),
  247|       |      Err(Err::Error(_)) => Ok((i, None)),
  248|       |      Err(e) => Err(e),
  249|       |    }
  250|       |  }
  251|  1.96k|}
_RNCINvNtCsijflsOnQTe0_3nom10combinator6verifyReccINtNtB6_5error5ErrorBH_EINvNtNtB6_9character8complete7anycharBH_BL_ENCNvNtNtCseKOJhBLZIbD_8rsonpath5query6parser12member_first0E0B1Z_:
  427|  1.96k|  move |input: I| {
  428|  1.96k|    let i = input.clone();
  429|  1.96k|    let (input, o) = first.parse(input)?;
  430|       |
  431|  1.96k|    if second(o.borrow()) {
  432|      0|      Ok((input, o))
  433|       |    } else {
  434|  1.96k|      Err(Err::Error(E::from_error_kind(i, ErrorKind::Verify)))
  435|       |    }
  436|  1.96k|  }
_RINvNtCsijflsOnQTe0_3nom10combinator3mapRecNtNtNtCseKOJhBLZIbD_8rsonpath5query6parser5TokenINtNtB4_5error5ErrorBC_ENCINvNtB4_8sequence8precededBC_BC_cB1r_NCINvNtNtB4_5bytes8complete3tagBC_BC_B1r_E0NCINvNtB4_6branch3altBC_cB1r_TNCINvNtNtB4_9character8complete4charBC_B1r_E0NCINvB1U_9delimitedBC_cccB1r_B3D_B3D_B3D_E0EE0E0NCNvBH_28wildcard_descendant_selector0EBL_:
   73|  1.96k|pub fn map<I, O1, O2, E, F, G>(mut parser: F, mut f: G) -> impl FnMut(I) -> IResult<I, O2, E>
   74|  1.96k|where
   75|  1.96k|  F: Parser<I, O1, E>,
   76|  1.96k|  G: FnMut(O1) -> O2,
   77|  1.96k|{
   78|       |  move |input: I| {
   79|       |    let (input, o1) = parser.parse(input)?;
   80|       |    Ok((input, f(o1)))
   81|       |  }
   82|  1.96k|}
_RINvNtCsijflsOnQTe0_3nom10combinator3mapReNtNtNtCseKOJhBLZIbD_8rsonpath5query6parser12MemberStringNtBG_5TokenINtNtB4_5error5ErrorBC_ENCINvNtB4_6branch3altBC_BE_B1J_TNCIB0_BC_BC_BE_B1J_NCINvB2_9recognizeBC_TcINtNtCshJIxznpEM8j_5alloc3vec3VeccEEB1J_NCINvNtB4_8sequence4pairBC_cB3j_B1J_NCINvB2_6verifyBC_ccB1J_INvNtNtB4_9character8complete7anycharBC_B1J_ENCNvBG_12member_first0E0NCINvNtB4_5multi5many0BC_cB1J_NCIB4A_BC_ccB1J_B4V_NCNvBG_16member_character0E0E0E0E0NcNtBE_8Borrowed0E0NCINvB42_9delimitedBC_cBE_cB1J_NCINvB4Y_4charBC_B1J_E0NCIB2a_BC_BE_B1J_TNCIB7K_BC_cBE_cB1J_B8c_NCIB0_BC_INtNtCslATUeuPuGvJ_4core6option6OptionNtNtB3o_6string6StringEBE_B1J_NCINvB2_3optBC_B9Z_B1J_NCINvNtNtB4_5bytes8complete17escaped_transformBC_B1J_NCIB0_BC_IB3k_NtBG_16MaybeEscapedCharENtBG_19MaybeEscapedCharVecB1J_NCINvB67_5many1BC_BbV_B1J_NCIB2a_BC_BbV_B1J_TNCIB0_BC_cBbV_B1J_NCIB4A_BC_ccB1J_NCINvB4Y_7none_ofBC_BC_B1J_E0NCNvBG_9unescaped0E0NcNtBbV_4Char0E0NCIB0_BC_cBbV_B1J_B8c_NcNtBbV_7Escaped0E0EE0E0NcBcj_0E0NCIB2a_BC_BC_B1J_TNCIB2a_BC_BC_B1J_TNCINvB2_5valueBC_BC_BC_B1J_NCINvBaV_3tagBC_BC_B1J_E0E0BgA_BgA_BgA_BgA_BgA_BgA_EE0BgA_EE0Bcj_BC_cB9Z_E0E0NvYBE_INtNtB9s_7convert4FromB9n_E4fromE0B8c_E0NCIB7K_BC_cBE_cB1J_B8c_NCIB0_BC_B9n_BE_B1J_NCIBaw_BC_B9Z_B1J_NCIBaT_BC_B1J_NCIB2Z_BC_B3j_B1J_NCIBcQ_BC_cB1J_NCIB2a_BC_cB1J_TBdO_B8c_EE0E0E0Bg0_BC_BC_cB9Z_E0E0Big_E0B8c_E0EE0B8c_E0EE0NcNtB1y_10Descendant0EBK_:
   73|  1.96k|pub fn map<I, O1, O2, E, F, G>(mut parser: F, mut f: G) -> impl FnMut(I) -> IResult<I, O2, E>
   74|  1.96k|where
   75|  1.96k|  F: Parser<I, O1, E>,
   76|  1.96k|  G: FnMut(O1) -> O2,
   77|  1.96k|{
   78|       |  move |input: I| {
   79|       |    let (input, o1) = parser.parse(input)?;
   80|       |    Ok((input, f(o1)))
   81|       |  }
   82|  1.96k|}
_RINvNtCsijflsOnQTe0_3nom10combinator7map_resReyNtNtNtCseKOJhBLZIbD_8rsonpath5query23nonnegative_array_index21NonNegativeArrayIndexINtNtB4_5error5ErrorBG_ENtNtBN_5error15ArrayIndexErrorNCIB0_BG_BG_yB24_NtNtNtCslATUeuPuGvJ_4core3num5error13ParseIntErrorNCIB0_BG_BG_BG_B24_B2s_INvNtNtB4_9character8complete6digit1BG_B24_ENCNvNtBN_6parser26length_limited_array_index0E0INvMNtB3j_3stre5parseyEE0NvYyINtNtB3j_7convert7TryIntoBJ_E8try_intoEBP_:
  104|  3.92k|pub fn map_res<I: Clone, O1, O2, E: FromExternalError<I, E2>, E2, F, G>(
  105|  3.92k|  mut parser: F,
  106|  3.92k|  mut f: G,
  107|  3.92k|) -> impl FnMut(I) -> IResult<I, O2, E>
  108|  3.92k|where
  109|  3.92k|  F: Parser<I, O1, E>,
  110|  3.92k|  G: FnMut(O1) -> Result<O2, E2>,
  111|  3.92k|{
  112|       |  move |input: I| {
  113|       |    let i = input.clone();
  114|       |    let (input, o1) = parser.parse(input)?;
  115|       |    match f(o1) {
  116|       |      Ok(o2) => Ok((input, o2)),
  117|       |      Err(e) => Err(Err::Error(E::from_external_error(i, ErrorKind::MapRes, e))),
  118|       |    }
  119|       |  }
  120|  3.92k|}
_RNCINvNtCsijflsOnQTe0_3nom10combinator3mapRecNtNtNtCseKOJhBLZIbD_8rsonpath5query6parser5TokenINtNtB6_5error5ErrorBE_ENCINvNtNtB6_9character8complete4charBE_B1t_E0NCNvBJ_8jsonpath0E0BN_:
   78|  1.96k|  move |input: I| {
   79|  1.96k|    let (input, o1) = parser.parse(input)?;
   80|  1.96k|    Ok((input, f(o1)))
   81|  1.96k|  }
_RINvNtCsijflsOnQTe0_3nom10combinator3mapRecNtNtNtCseKOJhBLZIbD_8rsonpath5query6parser16MaybeEscapedCharINtNtB4_5error5ErrorBC_ENCINvB2_6verifyBC_ccB1D_NCINvNtNtB4_9character8complete7none_ofBC_BC_B1D_E0NCNvBH_9unescaped0E0NcNtBF_4Char0EBL_:
   73|  3.92k|pub fn map<I, O1, O2, E, F, G>(mut parser: F, mut f: G) -> impl FnMut(I) -> IResult<I, O2, E>
   74|  3.92k|where
   75|  3.92k|  F: Parser<I, O1, E>,
   76|  3.92k|  G: FnMut(O1) -> O2,
   77|  3.92k|{
   78|       |  move |input: I| {
   79|       |    let (input, o1) = parser.parse(input)?;
   80|       |    Ok((input, f(o1)))
   81|       |  }
   82|  3.92k|}
_RINvNtCsijflsOnQTe0_3nom10combinator9recognizeReTcINtNtCshJIxznpEM8j_5alloc3vec3VeccEEINtNtB4_5error5ErrorBI_ENCINvNtB4_8sequence4pairBI_cBM_B1m_NCINvB2_6verifyBI_ccB1m_INvNtNtB4_9character8complete7anycharBI_B1m_ENCNvNtNtCseKOJhBLZIbD_8rsonpath5query6parser12member_first0E0NCINvNtB4_5multi5many0BI_cB1m_NCIB2m_BI_ccB1m_B2H_NCNvB3u_16member_character0E0E0E0EB3y_:
  506|  3.92k|pub fn recognize<I: Clone + Offset + Slice<RangeTo<usize>>, O, E: ParseError<I>, F>(
  507|  3.92k|  mut parser: F,
  508|  3.92k|) -> impl FnMut(I) -> IResult<I, I, E>
  509|  3.92k|where
  510|  3.92k|  F: Parser<I, O, E>,
  511|  3.92k|{
  512|       |  move |input: I| {
  513|       |    let i = input.clone();
  514|       |    match parser.parse(i) {
  515|       |      Ok((i, _)) => {
  516|       |        let index = input.offset(&i);
  517|       |        Ok((i, input.slice(..index)))
  518|       |      }
  519|       |      Err(e) => Err(e),
  520|       |    }
  521|       |  }
  522|  3.92k|}
_RINvNtCsijflsOnQTe0_3nom10combinator3mapReNtNtNtCseKOJhBLZIbD_8rsonpath5query6parser12MemberStringNtBG_5TokenINtNtB4_5error5ErrorBC_ENCINvNtB4_6branch3altBC_BE_B1J_TNCINvNtB4_8sequence8precededBC_cBE_B1J_NCINvNtNtB4_9character8complete4charBC_B1J_E0NCIB0_BC_BC_BE_B1J_NCINvB2_9recognizeBC_TcINtNtCshJIxznpEM8j_5alloc3vec3VeccEEB1J_NCINvB2I_4pairBC_cB4F_B1J_NCINvB2_6verifyBC_ccB1J_INvB3l_7anycharBC_B1J_ENCNvBG_12member_first0E0NCINvNtB4_5multi5many0BC_cB1J_NCIB5M_BC_ccB1J_B67_NCNvBG_16member_character0E0E0E0E0NcNtBE_8Borrowed0E0E0NCINvB2I_9delimitedBC_cBE_cB1J_B3g_NCIB2a_BC_BE_B1J_TNCIB8C_BC_cBE_cB1J_B3g_NCIB0_BC_INtNtCslATUeuPuGvJ_4core6option6OptionNtNtB4K_6string6StringEBE_B1J_NCINvB2_3optBC_Bay_B1J_NCINvNtNtB4_5bytes8complete17escaped_transformBC_B1J_NCIB0_BC_IB4G_NtBG_16MaybeEscapedCharENtBG_19MaybeEscapedCharVecB1J_NCINvB6X_5many1BC_Bcu_B1J_NCIB2a_BC_Bcu_B1J_TNCIB0_BC_cBcu_B1J_NCIB5M_BC_ccB1J_NCINvB3l_7none_ofBC_BC_B1J_E0NCNvBG_9unescaped0E0NcNtBcu_4Char0E0NCIB0_BC_cBcu_B1J_B3g_NcNtBcu_7Escaped0E0EE0E0NcBcS_0E0NCIB2a_BC_BC_B1J_TNCIB2a_BC_BC_B1J_TNCINvB2_5valueBC_BC_BC_B1J_NCINvBbu_3tagBC_BC_B1J_E0E0Bh9_Bh9_Bh9_Bh9_Bh9_Bh9_EE0Bh9_EE0BcS_BC_cBay_E0E0NvYBE_INtNtBa1_7convert4FromB9W_E4fromE0B3g_E0NCIB8C_BC_cBE_cB1J_B3g_NCIB0_BC_B9W_BE_B1J_NCIBb5_BC_Bay_B1J_NCIBbs_BC_B1J_NCIB4l_BC_B4F_B1J_NCIBdp_BC_cB1J_NCIB2a_BC_cB1J_TBen_B3g_EE0E0E0Bgz_BC_BC_cBay_E0E0BiP_E0B3g_E0EE0B3g_E0EE0NcNtB1y_5Child0EBK_:
   73|  1.96k|pub fn map<I, O1, O2, E, F, G>(mut parser: F, mut f: G) -> impl FnMut(I) -> IResult<I, O2, E>
   74|  1.96k|where
   75|  1.96k|  F: Parser<I, O1, E>,
   76|  1.96k|  G: FnMut(O1) -> O2,
   77|  1.96k|{
   78|       |  move |input: I| {
   79|       |    let (input, o1) = parser.parse(input)?;
   80|       |    Ok((input, f(o1)))
   81|       |  }
   82|  1.96k|}
_RNCINvNtCsijflsOnQTe0_3nom10combinator3mapReBE_NtNtNtCseKOJhBLZIbD_8rsonpath5query6parser12MemberStringINtNtB6_5error5ErrorBE_ENCINvB4_9recognizeBE_TcINtNtCshJIxznpEM8j_5alloc3vec3VeccEEB1D_NCINvNtB6_8sequence4pairBE_cB2o_B1D_NCINvB4_6verifyBE_ccB1D_INvNtNtB6_9character8complete7anycharBE_B1D_ENCNvBL_12member_first0E0NCINvNtB6_5multi5many0BE_cB1D_NCIB3F_BE_ccB1D_B40_NCNvBL_16member_character0E0E0E0E0NcNtBJ_8Borrowed0E0BP_:
   78|  1.96k|  move |input: I| {
   79|  1.96k|    let (input, o1) = parser.parse(input)?;
   80|      0|    Ok((input, f(o1)))
   81|  1.96k|  }
_RINvNtCsijflsOnQTe0_3nom10combinator3mapRecNtNtNtCseKOJhBLZIbD_8rsonpath5query6parser5TokenINtNtB4_5error5ErrorBC_ENCINvNtB4_6branch3altBC_cB1r_TNCINvNtB4_8sequence8precededBC_ccB1r_NCINvNtNtB4_9character8complete4charBC_B1r_E0B2U_E0NCINvB2o_9delimitedBC_cccB1r_B2U_B2U_B2U_E0EE0NCNvBH_23wildcard_child_selector0EBL_:
   73|  1.96k|pub fn map<I, O1, O2, E, F, G>(mut parser: F, mut f: G) -> impl FnMut(I) -> IResult<I, O2, E>
   74|  1.96k|where
   75|  1.96k|  F: Parser<I, O1, E>,
   76|  1.96k|  G: FnMut(O1) -> O2,
   77|  1.96k|{
   78|       |  move |input: I| {
   79|       |    let (input, o1) = parser.parse(input)?;
   80|       |    Ok((input, f(o1)))
   81|       |  }
   82|  1.96k|}
_RINvNtCsijflsOnQTe0_3nom10combinator6verifyReccINtNtB4_5error5ErrorBF_ENCINvNtNtB4_9character8complete7none_ofBF_BF_BJ_E0NCNvNtNtCseKOJhBLZIbD_8rsonpath5query6parser9unescaped0EB23_:
  417|  7.84k|pub fn verify<I: Clone, O1, O2, E: ParseError<I>, F, G>(
  418|  7.84k|  mut first: F,
  419|  7.84k|  second: G,
  420|  7.84k|) -> impl FnMut(I) -> IResult<I, O1, E>
  421|  7.84k|where
  422|  7.84k|  F: Parser<I, O1, E>,
  423|  7.84k|  G: Fn(&O2) -> bool,
  424|  7.84k|  O1: Borrow<O2>,
  425|  7.84k|  O2: ?Sized,
  426|  7.84k|{
  427|       |  move |input: I| {
  428|       |    let i = input.clone();
  429|       |    let (input, o) = first.parse(input)?;
  430|       |
  431|       |    if second(o.borrow()) {
  432|       |      Ok((input, o))
  433|       |    } else {
  434|       |      Err(Err::Error(E::from_error_kind(i, ErrorKind::Verify)))
  435|       |    }
  436|       |  }
  437|  7.84k|}
_RINvNtCsijflsOnQTe0_3nom10combinator3mapReNtNtNtCseKOJhBLZIbD_8rsonpath5query23nonnegative_array_index21NonNegativeArrayIndexNtNtBI_6parser5TokenINtNtB4_5error5ErrorBC_ENCINvNtB4_8sequence9delimitedBC_cBE_cB2j_NCINvNtNtB4_9character8complete4charBC_B2j_E0NCINvB2_7map_resBC_yBE_B2j_NtNtBI_5error15ArrayIndexErrorNCIB48_BC_BC_yB2j_NtNtNtCslATUeuPuGvJ_4core3num5error13ParseIntErrorNCIB48_BC_BC_BC_B2j_B4w_INvB3r_6digit1BC_B2j_ENCNvB21_26length_limited_array_index0E0INvMNtB5o_3stre5parseyEE0NvYyINtNtB5o_7convert7TryIntoBE_E8try_intoE0B3m_E0NcNtB1Z_15ArrayIndexChild0EBK_:
   73|  1.96k|pub fn map<I, O1, O2, E, F, G>(mut parser: F, mut f: G) -> impl FnMut(I) -> IResult<I, O2, E>
   74|  1.96k|where
   75|  1.96k|  F: Parser<I, O1, E>,
   76|  1.96k|  G: FnMut(O1) -> O2,
   77|  1.96k|{
   78|       |  move |input: I| {
   79|       |    let (input, o1) = parser.parse(input)?;
   80|       |    Ok((input, f(o1)))
   81|       |  }
   82|  1.96k|}
_RNCINvNtCsijflsOnQTe0_3nom10combinator3optReNtNtNtCseKOJhBLZIbD_8rsonpath5query6parser5TokenINtNtB6_5error5ErrorBE_ENCINvB4_3mapBE_cBG_B1s_NCINvNtNtB6_9character8complete4charBE_B1s_E0NCNvBI_8jsonpath0E0E0BM_:
  243|  1.96k|  move |input: I| {
  244|  1.96k|    let i = input.clone();
  245|  1.96k|    match f.parse(input) {
  246|  1.96k|      Ok((i, o)) => Ok((i, Some(o))),
  247|      0|      Err(Err::Error(_)) => Ok((i, None)),
  248|      0|      Err(e) => Err(e),
  249|       |    }
  250|  1.96k|  }
_RINvNtCsijflsOnQTe0_3nom10combinator3mapReINtNtCshJIxznpEM8j_5alloc3vec3VecNtNtNtCseKOJhBLZIbD_8rsonpath5query6parser16MaybeEscapedCharENtB1d_19MaybeEscapedCharVecINtNtB4_5error5ErrorBC_ENCINvNtB4_5multi5many1BC_B1b_B2B_NCINvNtB4_6branch3altBC_B1b_B2B_TNCIB0_BC_cB1b_B2B_NCINvB2_6verifyBC_ccB2B_NCINvNtNtB4_9character8complete7none_ofBC_BC_B2B_E0NCNvB1d_9unescaped0E0NcNtB1b_4Char0E0NCIB0_BC_cB1b_B2B_NCINvB4O_4charBC_B2B_E0NcNtB1b_7Escaped0E0EE0E0NcB2a_0EB1h_:
   73|  3.92k|pub fn map<I, O1, O2, E, F, G>(mut parser: F, mut f: G) -> impl FnMut(I) -> IResult<I, O2, E>
   74|  3.92k|where
   75|  3.92k|  F: Parser<I, O1, E>,
   76|  3.92k|  G: FnMut(O1) -> O2,
   77|  3.92k|{
   78|       |  move |input: I| {
   79|       |    let (input, o1) = parser.parse(input)?;
   80|       |    Ok((input, f(o1)))
   81|       |  }
   82|  3.92k|}
_RINvNtCsijflsOnQTe0_3nom10combinator9recognizeReINtNtCshJIxznpEM8j_5alloc3vec3VeccEINtNtB4_5error5ErrorBI_ENCINvNtB4_5multi5many1BI_cB1j_NCINvNtB4_6branch3altBI_cB1j_TNCINvB2_6verifyBI_ccB1j_NCINvNtNtB4_9character8complete7none_ofBI_BI_B1j_E0NCNvNtNtCseKOJhBLZIbD_8rsonpath5query6parser9unescaped0E0NCINvB38_4charBI_B1j_E0EE0E0EB40_:
  506|  3.92k|pub fn recognize<I: Clone + Offset + Slice<RangeTo<usize>>, O, E: ParseError<I>, F>(
  507|  3.92k|  mut parser: F,
  508|  3.92k|) -> impl FnMut(I) -> IResult<I, I, E>
  509|  3.92k|where
  510|  3.92k|  F: Parser<I, O, E>,
  511|  3.92k|{
  512|       |  move |input: I| {
  513|       |    let i = input.clone();
  514|       |    match parser.parse(i) {
  515|       |      Ok((i, _)) => {
  516|       |        let index = input.offset(&i);
  517|       |        Ok((i, input.slice(..index)))
  518|       |      }
  519|       |      Err(e) => Err(e),
  520|       |    }
  521|       |  }
  522|  3.92k|}
_RNCINvNtCsijflsOnQTe0_3nom10combinator9recognizeReTcINtNtCshJIxznpEM8j_5alloc3vec3VeccEEINtNtB6_5error5ErrorBK_ENCINvNtB6_8sequence4pairBK_cBO_B1o_NCINvB4_6verifyBK_ccB1o_INvNtNtB6_9character8complete7anycharBK_B1o_ENCNvNtNtCseKOJhBLZIbD_8rsonpath5query6parser12member_first0E0NCINvNtB6_5multi5many0BK_cB1o_NCIB2o_BK_ccB1o_B2J_NCNvB3w_16member_character0E0E0E0E0B3A_:
  512|  1.96k|  move |input: I| {
  513|  1.96k|    let i = input.clone();
  514|  1.96k|    match parser.parse(i) {
  515|      0|      Ok((i, _)) => {
  516|      0|        let index = input.offset(&i);
  517|      0|        Ok((i, input.slice(..index)))
  518|       |      }
  519|  1.96k|      Err(e) => Err(e),
  520|       |    }
  521|  1.96k|  }
_RINvNtCsijflsOnQTe0_3nom10combinator6verifyReccINtNtB4_5error5ErrorBF_EINvNtNtB4_9character8complete7anycharBF_BJ_ENCNvNtNtCseKOJhBLZIbD_8rsonpath5query6parser12member_first0EB1X_:
  417|  3.92k|pub fn verify<I: Clone, O1, O2, E: ParseError<I>, F, G>(
  418|  3.92k|  mut first: F,
  419|  3.92k|  second: G,
  420|  3.92k|) -> impl FnMut(I) -> IResult<I, O1, E>
  421|  3.92k|where
  422|  3.92k|  F: Parser<I, O1, E>,
  423|  3.92k|  G: Fn(&O2) -> bool,
  424|  3.92k|  O1: Borrow<O2>,
  425|  3.92k|  O2: ?Sized,
  426|  3.92k|{
  427|       |  move |input: I| {
  428|       |    let i = input.clone();
  429|       |    let (input, o) = first.parse(input)?;
  430|       |
  431|       |    if second(o.borrow()) {
  432|       |      Ok((input, o))
  433|       |    } else {
  434|       |      Err(Err::Error(E::from_error_kind(i, ErrorKind::Verify)))
  435|       |    }
  436|       |  }
  437|  3.92k|}
_RINvNtCsijflsOnQTe0_3nom10combinator5valueReBE_BE_INtNtB4_5error5ErrorBE_ENCINvNtNtB4_5bytes8complete3tagBE_BE_BM_E0ECseKOJhBLZIbD_8rsonpath:
  453|  62.7k|pub fn value<I, O1: Clone, O2, E: ParseError<I>, F>(
  454|  62.7k|  val: O1,
  455|  62.7k|  mut parser: F,
  456|  62.7k|) -> impl FnMut(I) -> IResult<I, O1, E>
  457|  62.7k|where
  458|  62.7k|  F: Parser<I, O2, E>,
  459|  62.7k|{
  460|       |  move |input: I| parser.parse(input).map(|(i, _)| (i, val.clone()))
  461|  62.7k|}
_RINvNtCsijflsOnQTe0_3nom10combinator3mapRecNtNtNtCseKOJhBLZIbD_8rsonpath5query6parser5TokenINtNtB4_5error5ErrorBC_ENCINvNtNtB4_9character8complete4charBC_B1r_E0NCNvBH_8jsonpath0EBL_:
   73|  1.96k|pub fn map<I, O1, O2, E, F, G>(mut parser: F, mut f: G) -> impl FnMut(I) -> IResult<I, O2, E>
   74|  1.96k|where
   75|  1.96k|  F: Parser<I, O1, E>,
   76|  1.96k|  G: FnMut(O1) -> O2,
   77|  1.96k|{
   78|       |  move |input: I| {
   79|       |    let (input, o1) = parser.parse(input)?;
   80|       |    Ok((input, f(o1)))
   81|       |  }
   82|  1.96k|}
_RINvNtCsijflsOnQTe0_3nom10combinator3optReNtNtCshJIxznpEM8j_5alloc6string6StringINtNtB4_5error5ErrorBC_ENCINvNtNtB4_5bytes8complete17escaped_transformBC_B1g_NCINvB2_3mapBC_INtNtBI_3vec3VecNtNtNtCseKOJhBLZIbD_8rsonpath5query6parser16MaybeEscapedCharENtB32_19MaybeEscapedCharVecB1g_NCINvNtB4_5multi5many1BC_B30_B1g_NCINvNtB4_6branch3altBC_B30_B1g_TNCIB2y_BC_cB30_B1g_NCINvB2_6verifyBC_ccB1g_NCINvNtNtB4_9character8complete7none_ofBC_BC_B1g_E0NCNvB32_9unescaped0E0NcNtB30_4Char0E0NCIB2y_BC_cB30_B1g_NCINvB6k_4charBC_B1g_E0NcNtB30_7Escaped0E0EE0E0NcB3Z_0E0NCIB54_BC_BC_B1g_TNCIB54_BC_BC_B1g_TNCINvB2_5valueBC_BC_BC_B1g_NCINvB1J_3tagBC_BC_B1g_E0E0B9s_B9s_B9s_B9s_B9s_B9s_EE0B9s_EE0B3Z_BC_cBE_E0EB36_:
  239|  3.92k|pub fn opt<I: Clone, O, E: ParseError<I>, F>(mut f: F) -> impl FnMut(I) -> IResult<I, Option<O>, E>
  240|  3.92k|where
  241|  3.92k|  F: Parser<I, O, E>,
  242|  3.92k|{
  243|       |  move |input: I| {
  244|       |    let i = input.clone();
  245|       |    match f.parse(input) {
  246|       |      Ok((i, o)) => Ok((i, Some(o))),
  247|       |      Err(Err::Error(_)) => Ok((i, None)),
  248|       |      Err(e) => Err(e),
  249|       |    }
  250|       |  }
  251|  3.92k|}
_RINvNtCsijflsOnQTe0_3nom10combinator7map_resReBG_yINtNtB4_5error5ErrorBG_ENtNtNtCslATUeuPuGvJ_4core3num5error13ParseIntErrorNCIB0_BG_BG_BG_BM_NtNtNtCseKOJhBLZIbD_8rsonpath5query5error15ArrayIndexErrorINvNtNtB4_9character8complete6digit1BG_BM_ENCNvNtB2k_6parser26length_limited_array_index0E0INvMNtB1g_3stre5parseyEEB2m_:
  104|  3.92k|pub fn map_res<I: Clone, O1, O2, E: FromExternalError<I, E2>, E2, F, G>(
  105|  3.92k|  mut parser: F,
  106|  3.92k|  mut f: G,
  107|  3.92k|) -> impl FnMut(I) -> IResult<I, O2, E>
  108|  3.92k|where
  109|  3.92k|  F: Parser<I, O1, E>,
  110|  3.92k|  G: FnMut(O1) -> Result<O2, E2>,
  111|  3.92k|{
  112|       |  move |input: I| {
  113|       |    let i = input.clone();
  114|       |    let (input, o1) = parser.parse(input)?;
  115|       |    match f(o1) {
  116|       |      Ok(o2) => Ok((input, o2)),
  117|       |      Err(e) => Err(Err::Error(E::from_external_error(i, ErrorKind::MapRes, e))),
  118|       |    }
  119|       |  }
  120|  3.92k|}
_RINvNtCsijflsOnQTe0_3nom10combinator6verifyReccINtNtB4_5error5ErrorBF_EINvNtNtB4_9character8complete7anycharBF_BJ_ENCNvNtNtCseKOJhBLZIbD_8rsonpath5query6parser16member_character0EB1X_:
  417|  3.92k|pub fn verify<I: Clone, O1, O2, E: ParseError<I>, F, G>(
  418|  3.92k|  mut first: F,
  419|  3.92k|  second: G,
  420|  3.92k|) -> impl FnMut(I) -> IResult<I, O1, E>
  421|  3.92k|where
  422|  3.92k|  F: Parser<I, O1, E>,
  423|  3.92k|  G: Fn(&O2) -> bool,
  424|  3.92k|  O1: Borrow<O2>,
  425|  3.92k|  O2: ?Sized,
  426|  3.92k|{
  427|       |  move |input: I| {
  428|       |    let i = input.clone();
  429|       |    let (input, o) = first.parse(input)?;
  430|       |
  431|       |    if second(o.borrow()) {
  432|       |      Ok((input, o))
  433|       |    } else {
  434|       |      Err(Err::Error(E::from_error_kind(i, ErrorKind::Verify)))
  435|       |    }
  436|       |  }
  437|  3.92k|}
_RINvNtCsijflsOnQTe0_3nom10combinator3mapReINtNtCslATUeuPuGvJ_4core6option6OptionNtNtCshJIxznpEM8j_5alloc6string6StringENtNtNtCseKOJhBLZIbD_8rsonpath5query6parser12MemberStringINtNtB4_5error5ErrorBC_ENCINvB2_3optBC_B1g_B2N_NCINvNtNtB4_5bytes8complete17escaped_transformBC_B2N_NCIB0_BC_INtNtB1k_3vec3VecNtB1V_16MaybeEscapedCharENtB1V_19MaybeEscapedCharVecB2N_NCINvNtB4_5multi5many1BC_B4P_B2N_NCINvNtB4_6branch3altBC_B4P_B2N_TNCIB0_BC_cB4P_B2N_NCINvB2_6verifyBC_ccB2N_NCINvNtNtB4_9character8complete7none_ofBC_BC_B2N_E0NCNvB1V_9unescaped0E0NcNtB4P_4Char0E0NCIB0_BC_cB4P_B2N_NCINvB7y_4charBC_B2N_E0NcNtB4P_7Escaped0E0EE0E0NcB5e_0E0NCIB6j_BC_BC_B2N_TNCIB6j_BC_BC_B2N_TNCINvB2_5valueBC_BC_BC_B2N_NCINvB3D_3tagBC_BC_B2N_E0E0BaF_BaF_BaF_BaF_BaF_BaF_EE0BaF_EE0B5e_BC_cB1g_E0E0NvYB1T_INtNtBJ_7convert4FromBE_E4fromEB1Z_:
   73|  3.92k|pub fn map<I, O1, O2, E, F, G>(mut parser: F, mut f: G) -> impl FnMut(I) -> IResult<I, O2, E>
   74|  3.92k|where
   75|  3.92k|  F: Parser<I, O1, E>,
   76|  3.92k|  G: FnMut(O1) -> O2,
   77|  3.92k|{
   78|       |  move |input: I| {
   79|       |    let (input, o1) = parser.parse(input)?;
   80|       |    Ok((input, f(o1)))
   81|       |  }
   82|  3.92k|}
_RNCINvNtCsijflsOnQTe0_3nom10combinator3mapRecNtNtNtCseKOJhBLZIbD_8rsonpath5query6parser5TokenINtNtB6_5error5ErrorBE_ENCINvNtB6_8sequence8precededBE_BE_cB1t_NCINvNtNtB6_5bytes8complete3tagBE_BE_B1t_E0NCINvNtB6_6branch3altBE_cB1t_TNCINvNtNtB6_9character8complete4charBE_B1t_E0NCINvB1W_9delimitedBE_cccB1t_B3F_B3F_B3F_E0EE0E0NCNvBJ_28wildcard_descendant_selector0E0BN_:
   78|  3.92k|  move |input: I| {
   79|  3.92k|    let (input, o1) = parser.parse(input)?;
   80|  1.96k|    Ok((input, f(o1)))
   81|  3.92k|  }
_RINvNtCsijflsOnQTe0_3nom10combinator3mapReBC_NtNtNtCseKOJhBLZIbD_8rsonpath5query6parser12MemberStringINtNtB4_5error5ErrorBC_ENCINvB2_9recognizeBC_TcINtNtCshJIxznpEM8j_5alloc3vec3VeccEEB1B_NCINvNtB4_8sequence4pairBC_cB2m_B1B_NCINvB2_6verifyBC_ccB1B_INvNtNtB4_9character8complete7anycharBC_B1B_ENCNvBJ_12member_first0E0NCINvNtB4_5multi5many0BC_cB1B_NCIB3D_BC_ccB1B_B3Y_NCNvBJ_16member_character0E0E0E0E0NcNtBH_8Borrowed0EBN_:
   73|  3.92k|pub fn map<I, O1, O2, E, F, G>(mut parser: F, mut f: G) -> impl FnMut(I) -> IResult<I, O2, E>
   74|  3.92k|where
   75|  3.92k|  F: Parser<I, O1, E>,
   76|  3.92k|  G: FnMut(O1) -> O2,
   77|  3.92k|{
   78|       |  move |input: I| {
   79|       |    let (input, o1) = parser.parse(input)?;
   80|       |    Ok((input, f(o1)))
   81|       |  }
   82|  3.92k|}

_RNvYINtNtCsijflsOnQTe0_3nom5error5ErrorReEINtB5_10ParseErrorBB_E2orCseKOJhBLZIbD_8rsonpath:
   32|  19.6k|  fn or(self, other: Self) -> Self {
   33|  19.6k|    other
   34|  19.6k|  }
_RNvXs_NtCsijflsOnQTe0_3nom5errorINtB4_5ErrorReEINtB4_10ParseErrorBG_E6appendCseKOJhBLZIbD_8rsonpath:
   77|  9.80k|  fn append(_: I, _: ErrorKind, other: Self) -> Self {
   78|  9.80k|    other
   79|  9.80k|  }
_RNvXs_NtCsijflsOnQTe0_3nom5errorINtB4_5ErrorReEINtB4_10ParseErrorBG_E15from_error_kindCseKOJhBLZIbD_8rsonpath:
   73|  23.5k|  fn from_error_kind(input: I, kind: ErrorKind) -> Self {
   74|  23.5k|    Error { input, code: kind }
   75|  23.5k|  }
_RNvYINtNtCsijflsOnQTe0_3nom5error5ErrorReEINtB5_10ParseErrorBB_E9from_charCseKOJhBLZIbD_8rsonpath:
   26|  17.6k|  fn from_char(input: I, _: char) -> Self {
   27|  17.6k|    Self::from_error_kind(input, ErrorKind::Char)
   28|  17.6k|  }

_RNvXsa_NtCsijflsOnQTe0_3nom8internalNCINvNtB7_6branch3altReNtNtNtCseKOJhBLZIbD_8rsonpath5query6parser12MemberStringINtNtB7_5error5ErrorBT_ETNCINvNtB7_8sequence8precededBT_cBV_B1P_NCINvNtNtB7_9character8complete4charBT_B1P_E0NCINvNtB7_10combinator3mapBT_BT_BV_B1P_NCINvB3F_9recognizeBT_TcINtNtCshJIxznpEM8j_5alloc3vec3VeccEEB1P_NCINvB2j_4pairBT_cB4B_B1P_NCINvB3F_6verifyBT_ccB1P_INvB2W_7anycharBT_B1P_ENCNvBX_12member_first0E0NCINvNtB7_5multi5many0BT_cB1P_NCIB5I_BT_ccB1P_B64_NCNvBX_16member_character0E0E0E0E0NcNtBV_8Borrowed0E0E0NCINvB2j_9delimitedBT_cBV_cB1P_B2R_NCIBB_BT_BV_B1P_TNCIB8z_BT_cBV_cB1P_B2R_NCIB3D_BT_INtNtCslATUeuPuGvJ_4core6option6OptionNtNtB4G_6string6StringEBV_B1P_NCINvB3F_3optBT_Bav_B1P_NCINvNtNtB7_5bytes8complete17escaped_transformBT_B1P_NCIB3D_BT_IB4C_NtBX_16MaybeEscapedCharENtBX_19MaybeEscapedCharVecB1P_NCINvB6U_5many1BT_Bct_B1P_NCIBB_BT_Bct_B1P_TNCIB3D_BT_cBct_B1P_NCIB5I_BT_ccB1P_NCINvB2W_7none_ofBT_BT_B1P_E0NCNvBX_9unescaped0E0NcNtBct_4Char0E0NCIB3D_BT_cBct_B1P_B2R_NcNtBct_7Escaped0E0EE0E0NcBcR_0E0NCIBB_BT_BT_B1P_TNCIBB_BT_BT_B1P_TNCINvB3F_5valueBT_BT_BT_B1P_NCINvBbs_3tagBT_BT_B1P_E0E0Bh7_Bh7_Bh7_Bh7_Bh7_Bh7_EE0Bh7_EE0BcR_BT_cBav_E0E0NvYBV_INtNtB9Y_7convert4FromB9T_E4fromE0B2R_E0NCIB8z_BT_cBV_cB1P_B2R_NCIB3D_BT_B9T_BV_B1P_NCIBb2_BT_Bav_B1P_NCIBbq_BT_B1P_NCIB4g_BT_B4B_B1P_NCIBdo_BT_cB1P_NCIBB_BT_cB1P_TBem_B2R_EE0E0E0Bgz_BT_BT_cBav_E0E0BiO_E0B2R_E0EE0B2R_E0EE0INtB5_6ParserBT_BV_B1P_E5parseB11_:
  324|  3.92k|  fn parse(&mut self, i: I) -> IResult<I, O, E> {
  325|  3.92k|    self(i)
  326|  3.92k|  }
_RNvXsa_NtCsijflsOnQTe0_3nom8internalNCINvNtB7_10combinator3mapReBY_NtNtNtCseKOJhBLZIbD_8rsonpath5query6parser12MemberStringINtNtB7_5error5ErrorBY_ENCINvBD_9recognizeBY_TcINtNtCshJIxznpEM8j_5alloc3vec3VeccEEB1X_NCINvNtB7_8sequence4pairBY_cB2I_B1X_NCINvBD_6verifyBY_ccB1X_INvNtNtB7_9character8complete7anycharBY_B1X_ENCNvB15_12member_first0E0NCINvNtB7_5multi5many0BY_cB1X_NCIB3Z_BY_ccB1X_B4k_NCNvB15_16member_character0E0E0E0E0NcNtB13_8Borrowed0E0INtB5_6ParserBY_B13_B1X_E5parseB19_:
  324|  1.96k|  fn parse(&mut self, i: I) -> IResult<I, O, E> {
  325|  1.96k|    self(i)
  326|  1.96k|  }
_RNvXsa_NtCsijflsOnQTe0_3nom8internalNCINvNtB7_5multi5many0ReNtNtNtCseKOJhBLZIbD_8rsonpath5query6parser5TokenINtNtB7_5error5ErrorBU_ENCINvNtB7_6branch3altBU_BW_B1I_TNCINvNtB7_10combinator3mapBU_cBW_B1I_NCIB29_BU_cB1I_TNCINvNtB7_8sequence8precededBU_ccB1I_NCINvNtNtB7_9character8complete4charBU_B1I_E0B44_E0NCINvB3y_9delimitedBU_cccB1I_B44_B44_B44_E0EE0NCNvBY_23wildcard_child_selector0E0NCIB2F_BU_NtBY_12MemberStringBW_B1I_NCIB29_BU_B6m_B1I_TNCIB3w_BU_cB6m_B1I_B44_NCIB2F_BU_BU_B6m_B1I_NCINvB2H_9recognizeBU_TcINtNtCshJIxznpEM8j_5alloc3vec3VeccEEB1I_NCINvB3y_4pairBU_cB8b_B1I_NCINvB2H_6verifyBU_ccB1I_INvB49_7anycharBU_B1I_ENCNvBY_12member_first0E0NCIBB_BU_cB1I_NCIB9i_BU_ccB1I_B9E_NCNvBY_16member_character0E0E0E0E0NcNtB6m_8Borrowed0E0E0NCIB4W_BU_cB6m_cB1I_B44_NCIB29_BU_B6m_B1I_TNCIB4W_BU_cB6m_cB1I_B44_NCIB2F_BU_INtNtCslATUeuPuGvJ_4core6option6OptionNtNtB8g_6string6StringEB6m_B1I_NCINvB2H_3optBU_BdI_B1I_NCINvNtNtB7_5bytes8complete17escaped_transformBU_B1I_NCIB2F_BU_IB8c_NtBY_16MaybeEscapedCharENtBY_19MaybeEscapedCharVecB1I_NCINvBD_5many1BU_BfH_B1I_NCIB29_BU_BfH_B1I_TNCIB2F_BU_cBfH_B1I_NCIB9i_BU_ccB1I_NCINvB49_7none_ofBU_BU_B1I_E0NCNvBY_9unescaped0E0NcNtBfH_4Char0E0NCIB2F_BU_cBfH_B1I_B44_NcNtBfH_7Escaped0E0EE0E0NcBg5_0E0NCIB29_BU_BU_B1I_TNCIB29_BU_BU_B1I_TNCINvB2H_5valueBU_BU_BU_B1I_NCINvBeG_3tagBU_BU_B1I_E0E0Bkn_Bkn_Bkn_Bkn_Bkn_Bkn_EE0Bkn_EE0Bg5_BU_cBdI_E0E0NvYB6m_INtNtBdb_7convert4FromBd6_E4fromE0B44_E0NCIB4W_BU_cB6m_cB1I_B44_NCIB2F_BU_Bd6_B6m_B1I_NCIBeg_BU_BdI_B1I_NCIBeE_BU_B1I_NCIB7Q_BU_B8b_B1I_NCIBgC_BU_cB1I_NCIB29_BU_cB1I_TBhA_B44_EE0E0E0BjN_BU_BU_cBdI_E0E0Bm4_E0B44_E0EE0B44_E0EE0NcNtBW_5Child0E0NCIB2F_BU_NtNtB10_23nonnegative_array_index21NonNegativeArrayIndexBW_B1I_NCIB4W_BU_cBqe_cB1I_B44_NCINvB2H_7map_resBU_yBqe_B1I_NtNtB10_5error15ArrayIndexErrorNCIBrG_BU_BU_yB1I_NtNtNtBdb_3num5error13ParseIntErrorNCIBrG_BU_BU_BU_B1I_Bs6_INvB49_6digit1BU_B1I_ENCNvBY_26length_limited_array_index0E0INvMNtBdb_3stre5parseyEE0NvYyINtBme_7TryIntoBqe_E8try_intoE0B44_E0NcNtBW_15ArrayIndexChild0E0NCIB2F_BU_cBW_B1I_NCIB3w_BU_BU_cB1I_BkP_NCIB29_BU_cB1I_TB44_B4T_EE0E0NCNvBY_28wildcard_descendant_selector0E0NCIB3w_BU_BU_BW_B1I_BkP_NCIB29_BU_BW_B1I_TNCIB2F_BU_B6m_BW_B1I_NCIB29_BU_B6m_B1I_TB7s_BbR_EE0NcNtBW_10Descendant0E0NCIB2F_BU_Bqe_BW_B1I_Brf_NcNtBW_20ArrayIndexDescendant0E0EE0E0EE0E0INtB5_6ParserBU_IB8c_BW_EB1I_E5parseB12_:
  324|  1.96k|  fn parse(&mut self, i: I) -> IResult<I, O, E> {
  325|  1.96k|    self(i)
  326|  1.96k|  }
_RNvXsa_NtCsijflsOnQTe0_3nom8internalNCINvNtB7_10combinator9recognizeReTcINtNtCshJIxznpEM8j_5alloc3vec3VeccEEINtNtB7_5error5ErrorB14_ENCINvNtB7_8sequence4pairB14_cB18_B1I_NCINvBD_6verifyB14_ccB1I_INvNtNtB7_9character8complete7anycharB14_B1I_ENCNvNtNtCseKOJhBLZIbD_8rsonpath5query6parser12member_first0E0NCINvNtB7_5multi5many0B14_cB1I_NCIB2L_B14_ccB1I_B37_NCNvB3V_16member_character0E0E0E0E0INtB5_6ParserB14_B14_B1I_E5parseB3Z_:
  324|  1.96k|  fn parse(&mut self, i: I) -> IResult<I, O, E> {
  325|  1.96k|    self(i)
  326|  1.96k|  }
_RNvXsa_NtCsijflsOnQTe0_3nom8internalNCINvNtNtB7_9character8complete4charReINtNtB7_5error5ErrorB18_EE0INtB5_6ParserB18_cB1a_E5parseCseKOJhBLZIbD_8rsonpath:
  324|  25.4k|  fn parse(&mut self, i: I) -> IResult<I, O, E> {
  325|  25.4k|    self(i)
  326|  25.4k|  }
_RNvXsa_NtCsijflsOnQTe0_3nom8internalNCINvNtB7_8sequence4pairRecINtNtCshJIxznpEM8j_5alloc3vec3VeccEINtNtB7_5error5ErrorBW_ENCINvNtB7_10combinator6verifyBW_ccB1y_INvNtNtB7_9character8complete7anycharBW_B1y_ENCNvNtNtCseKOJhBLZIbD_8rsonpath5query6parser12member_first0E0NCINvNtB7_5multi5many0BW_cB1y_NCIB1Z_BW_ccB1y_B2y_NCNvB3l_16member_character0E0E0E0INtB5_6ParserBW_TcBZ_EB1y_E5parseB3p_:
  324|  1.96k|  fn parse(&mut self, i: I) -> IResult<I, O, E> {
  325|  1.96k|    self(i)
  326|  1.96k|  }
_RNvXsa_NtCsijflsOnQTe0_3nom8internalNCINvNtB7_10combinator3mapRecNtNtNtCseKOJhBLZIbD_8rsonpath5query6parser5TokenINtNtB7_5error5ErrorBY_ENCINvNtNtB7_9character8complete4charBY_B1N_E0NCNvB13_8jsonpath0E0INtB5_6ParserBY_B11_B1N_E5parseB17_:
  324|  1.96k|  fn parse(&mut self, i: I) -> IResult<I, O, E> {
  325|  1.96k|    self(i)
  326|  1.96k|  }
_RNvXsa_NtCsijflsOnQTe0_3nom8internalNCINvNtB7_6branch3altRecINtNtB7_5error5ErrorBT_ETNCINvNtNtB7_9character8complete4charBT_BW_E0NCINvNtB7_8sequence9delimitedBT_cccBW_B1l_B1l_B1l_E0EE0INtB5_6ParserBT_cBW_E5parseCseKOJhBLZIbD_8rsonpath:
  324|  1.96k|  fn parse(&mut self, i: I) -> IResult<I, O, E> {
  325|  1.96k|    self(i)
  326|  1.96k|  }
_RNvXsa_NtCsijflsOnQTe0_3nom8internalNCINvNtB7_8sequence9delimitedRecccINtNtB7_5error5ErrorB11_ENCINvNtNtB7_9character8complete4charB11_B16_E0B1v_B1v_E0INtB5_6ParserB11_cB16_E5parseCseKOJhBLZIbD_8rsonpath:
  324|  3.92k|  fn parse(&mut self, i: I) -> IResult<I, O, E> {
  325|  3.92k|    self(i)
  326|  3.92k|  }
_RNvXsa_NtCsijflsOnQTe0_3nom8internalNCINvNtB7_8sequence8precededReccINtNtB7_5error5ErrorB10_ENCINvNtNtB7_9character8complete4charB10_B14_E0B1t_E0INtB5_6ParserB10_cB14_E5parseCseKOJhBLZIbD_8rsonpath:
  324|  3.92k|  fn parse(&mut self, i: I) -> IResult<I, O, E> {
  325|  3.92k|    self(i)
  326|  3.92k|  }
_RNvXsa_NtCsijflsOnQTe0_3nom8internalNCINvNtNtB7_5bytes8complete3tagReB13_INtNtB7_5error5ErrorB13_EE0INtB5_6ParserB13_B13_B19_E5parseCseKOJhBLZIbD_8rsonpath:
  324|  5.88k|  fn parse(&mut self, i: I) -> IResult<I, O, E> {
  325|  5.88k|    self(i)
  326|  5.88k|  }
_RNvXsa_NtCsijflsOnQTe0_3nom8internalNCINvNtB7_6branch3altReNtNtNtCseKOJhBLZIbD_8rsonpath5query6parser5TokenINtNtB7_5error5ErrorBT_ETNCINvNtB7_10combinator3mapBT_cBV_B1H_NCIBB_BT_cB1H_TNCINvNtB7_8sequence8precededBT_ccB1H_NCINvNtNtB7_9character8complete4charBT_B1H_E0B3x_E0NCINvB31_9delimitedBT_cccB1H_B3x_B3x_B3x_E0EE0NCNvBX_23wildcard_child_selector0E0NCIB29_BT_NtBX_12MemberStringBV_B1H_NCIBB_BT_B5P_B1H_TNCIB2Z_BT_cB5P_B1H_B3x_NCIB29_BT_BT_B5P_B1H_NCINvB2b_9recognizeBT_TcINtNtCshJIxznpEM8j_5alloc3vec3VeccEEB1H_NCINvB31_4pairBT_cB7D_B1H_NCINvB2b_6verifyBT_ccB1H_INvB3C_7anycharBT_B1H_ENCNvBX_12member_first0E0NCINvNtB7_5multi5many0BT_cB1H_NCIB8K_BT_ccB1H_B96_NCNvBX_16member_character0E0E0E0E0NcNtB5P_8Borrowed0E0E0NCIB4p_BT_cB5P_cB1H_B3x_NCIBB_BT_B5P_B1H_TNCIB4p_BT_cB5P_cB1H_B3x_NCIB29_BT_INtNtCslATUeuPuGvJ_4core6option6OptionNtNtB7I_6string6StringEB5P_B1H_NCINvB2b_3optBT_Bdp_B1H_NCINvNtNtB7_5bytes8complete17escaped_transformBT_B1H_NCIB29_BT_IB7E_NtBX_16MaybeEscapedCharENtBX_19MaybeEscapedCharVecB1H_NCINvB9W_5many1BT_Bfo_B1H_NCIBB_BT_Bfo_B1H_TNCIB29_BT_cBfo_B1H_NCIB8K_BT_ccB1H_NCINvB3C_7none_ofBT_BT_B1H_E0NCNvBX_9unescaped0E0NcNtBfo_4Char0E0NCIB29_BT_cBfo_B1H_B3x_NcNtBfo_7Escaped0E0EE0E0NcBfM_0E0NCIBB_BT_BT_B1H_TNCIBB_BT_BT_B1H_TNCINvB2b_5valueBT_BT_BT_B1H_NCINvBen_3tagBT_BT_B1H_E0E0Bk2_Bk2_Bk2_Bk2_Bk2_Bk2_EE0Bk2_EE0BfM_BT_cBdp_E0E0NvYB5P_INtNtBcS_7convert4FromBcN_E4fromE0B3x_E0NCIB4p_BT_cB5P_cB1H_B3x_NCIB29_BT_BcN_B5P_B1H_NCIBdX_BT_Bdp_B1H_NCIBel_BT_B1H_NCIB7i_BT_B7D_B1H_NCIBgj_BT_cB1H_NCIBB_BT_cB1H_TBhh_B3x_EE0E0E0Bju_BT_BT_cBdp_E0E0BlJ_E0B3x_E0EE0B3x_E0EE0NcNtBV_5Child0E0NCIB29_BT_NtNtBZ_23nonnegative_array_index21NonNegativeArrayIndexBV_B1H_NCIB4p_BT_cBpS_cB1H_B3x_NCINvB2b_7map_resBT_yBpS_B1H_NtNtBZ_5error15ArrayIndexErrorNCIBrj_BT_BT_yB1H_NtNtNtBcS_3num5error13ParseIntErrorNCIBrj_BT_BT_BT_B1H_BrJ_INvB3C_6digit1BT_B1H_ENCNvBX_26length_limited_array_index0E0INvMNtBcS_3stre5parseyEE0NvYyINtBlT_7TryIntoBpS_E8try_intoE0B3x_E0NcNtBV_15ArrayIndexChild0E0NCIB29_BT_cBV_B1H_NCIB2Z_BT_BT_cB1H_Bku_NCIBB_BT_cB1H_TB3x_B4m_EE0E0NCNvBX_28wildcard_descendant_selector0E0NCIB2Z_BT_BT_BV_B1H_Bku_NCIBB_BT_BV_B1H_TNCIB29_BT_B5P_BV_B1H_NCIBB_BT_B5P_B1H_TB6U_Bbz_EE0NcNtBV_10Descendant0E0NCIB29_BT_BpS_BV_B1H_BqS_NcNtBV_20ArrayIndexDescendant0E0EE0E0EE0INtB5_6ParserBT_BV_B1H_E5parseB11_:
  324|  3.92k|  fn parse(&mut self, i: I) -> IResult<I, O, E> {
  325|  3.92k|    self(i)
  326|  3.92k|  }
_RNvXsa_NtCsijflsOnQTe0_3nom8internalNCINvNtB7_10combinator6verifyReccINtNtB7_5error5ErrorB11_EINvNtNtB7_9character8complete7anycharB11_B15_ENCNvNtNtCseKOJhBLZIbD_8rsonpath5query6parser12member_first0E0INtB5_6ParserB11_cB15_E5parseB2m_:
  324|  1.96k|  fn parse(&mut self, i: I) -> IResult<I, O, E> {
  325|  1.96k|    self(i)
  326|  1.96k|  }
_RNvXsa_NtCsijflsOnQTe0_3nom8internalNCINvNtB7_10combinator3mapRecNtNtNtCseKOJhBLZIbD_8rsonpath5query6parser5TokenINtNtB7_5error5ErrorBY_ENCINvNtB7_6branch3altBY_cB1N_TNCINvNtB7_8sequence8precededBY_ccB1N_NCINvNtNtB7_9character8complete4charBY_B1N_E0B3g_E0NCINvB2K_9delimitedBY_cccB1N_B3g_B3g_B3g_E0EE0NCNvB13_23wildcard_child_selector0E0INtB5_6ParserBY_B11_B1N_E5parseB17_:
  324|  3.92k|  fn parse(&mut self, i: I) -> IResult<I, O, E> {
  325|  3.92k|    self(i)
  326|  3.92k|  }
_RNvXsa_NtCsijflsOnQTe0_3nom8internalNCINvNtB7_6branch3altRecINtNtB7_5error5ErrorBT_ETNCINvNtB7_8sequence8precededBT_ccBW_NCINvNtNtB7_9character8complete4charBT_BW_E0B1V_E0NCINvB1q_9delimitedBT_cccBW_B1V_B1V_B1V_E0EE0INtB5_6ParserBT_cBW_E5parseCseKOJhBLZIbD_8rsonpath:
  324|  3.92k|  fn parse(&mut self, i: I) -> IResult<I, O, E> {
  325|  3.92k|    self(i)
  326|  3.92k|  }
_RNvXNtCsijflsOnQTe0_3nom8internalINtNtCslATUeuPuGvJ_4core6result6ResultTReTINtNtBA_6option6OptionNtNtNtCseKOJhBLZIbD_8rsonpath5query6parser5TokenEINtNtCshJIxznpEM8j_5alloc3vec3VecB1x_EEEINtB2_3ErrINtNtB4_5error5ErrorB18_EEEINtB2_6FinishB18_B1a_B38_E6finishB1D_:
   36|  1.96k|  fn finish(self) -> Result<(I, O), E> {
   37|      0|    match self {
   38|  1.96k|      Ok(res) => Ok(res),
   39|      0|      Err(Err::Error(e)) | Err(Err::Failure(e)) => Err(e),
   40|       |      Err(Err::Incomplete(_)) => {
   41|      0|        panic!("Cannot call `finish()` on `Err(Err::Incomplete(_))`: this result means that the parser does not have enough data to decide, you should gather more data and try to reapply  the parser instead")
   42|       |      }
   43|       |    }
   44|  1.96k|  }
_RNvXsa_NtCsijflsOnQTe0_3nom8internalNCINvNtB7_10combinator3mapRecNtNtNtCseKOJhBLZIbD_8rsonpath5query6parser5TokenINtNtB7_5error5ErrorBY_ENCINvNtB7_8sequence8precededBY_BY_cB1N_NCINvNtNtB7_5bytes8complete3tagBY_BY_B1N_E0NCINvNtB7_6branch3altBY_cB1N_TNCINvNtNtB7_9character8complete4charBY_B1N_E0NCINvB2g_9delimitedBY_cccB1N_B3Z_B3Z_B3Z_E0EE0E0NCNvB13_28wildcard_descendant_selector0E0INtB5_6ParserBY_B11_B1N_E5parseB17_:
  324|  3.92k|  fn parse(&mut self, i: I) -> IResult<I, O, E> {
  325|  3.92k|    self(i)
  326|  3.92k|  }
_RNvXsa_NtCsijflsOnQTe0_3nom8internalNCINvNtB7_8sequence8precededReB10_NtNtNtCseKOJhBLZIbD_8rsonpath5query6parser5TokenINtNtB7_5error5ErrorB10_ENCINvNtNtB7_5bytes8complete3tagB10_B10_B1S_E0NCINvNtB7_6branch3altB10_B16_B1S_TNCINvNtB7_10combinator3mapB10_NtB18_12MemberStringB16_B1S_NCIB33_B10_B42_B1S_TNCIB3B_B10_B10_B42_B1S_NCINvB3D_9recognizeB10_TcINtNtCshJIxznpEM8j_5alloc3vec3VeccEEB1S_NCINvBD_4pairB10_cB5A_B1S_NCINvB3D_6verifyB10_ccB1S_INvNtNtB7_9character8complete7anycharB10_B1S_ENCNvB18_12member_first0E0NCINvNtB7_5multi5many0B10_cB1S_NCIB6H_B10_ccB1S_B74_NCNvB18_16member_character0E0E0E0E0NcNtB42_8Borrowed0E0NCINvBD_9delimitedB10_cB42_cB1S_NCINvB77_4charB10_B1S_E0NCIB33_B10_B42_B1S_TNCIB9Z_B10_cB42_cB1S_Bas_NCIB3B_B10_INtNtCslATUeuPuGvJ_4core6option6OptionNtNtB5F_6string6StringEB42_B1S_NCINvB3D_3optB10_Bcm_B1S_NCINvB2m_17escaped_transformB10_B1S_NCIB3B_B10_IB5B_NtB18_16MaybeEscapedCharENtB18_19MaybeEscapedCharVecB1S_NCINvB8i_5many1B10_Be6_B1S_NCIB33_B10_Be6_B1S_TNCIB3B_B10_cBe6_B1S_NCIB6H_B10_ccB1S_NCINvB77_7none_ofB10_B10_B1S_E0NCNvB18_9unescaped0E0NcNtBe6_4Char0E0NCIB3B_B10_cBe6_B1S_Bas_NcNtBe6_7Escaped0E0EE0E0NcBev_0E0NCIB33_B10_B10_B1S_TNCIB33_B10_B10_B1S_TNCINvB3D_5valueB10_B10_B10_B1S_B2h_E0Bj1_Bj1_Bj1_Bj1_Bj1_Bj1_EE0Bj1_EE0Bev_B10_cBcm_E0E0NvYB42_INtNtBbP_7convert4FromBbK_E4fromE0Bas_E0NCIB9Z_B10_cB42_cB1S_Bas_NCIB3B_B10_BbK_B42_B1S_NCIBcU_B10_Bcm_B1S_NCIBdj_B10_B1S_NCIB5e_B10_B5A_B1S_NCIBf3_B10_cB1S_NCIB33_B10_cB1S_TBg5_Bas_EE0E0E0Bin_B10_B10_cBcm_E0E0Bkr_E0Bas_E0EE0Bas_E0EE0NcNtB16_10Descendant0E0NCIB3B_B10_NtNtB1a_23nonnegative_array_index21NonNegativeArrayIndexB16_B1S_NCIB9Z_B10_cBoS_cB1S_Bas_NCINvB3D_7map_resB10_yBoS_B1S_NtNtB1a_5error15ArrayIndexErrorNCIBqm_B10_B10_yB1S_NtNtNtBbP_3num5error13ParseIntErrorNCIBqm_B10_B10_B10_B1S_BqN_INvB77_6digit1B10_B1S_ENCNvB18_26length_limited_array_index0E0INvMNtBbP_3stre5parseyEE0NvYyINtBkB_7TryIntoBoS_E8try_intoE0Bas_E0NcNtB16_20ArrayIndexDescendant0E0EE0E0INtB5_6ParserB10_B16_B1S_E5parseB1c_:
  324|  1.96k|  fn parse(&mut self, i: I) -> IResult<I, O, E> {
  325|  1.96k|    self(i)
  326|  1.96k|  }
_RNvXsa_NtCsijflsOnQTe0_3nom8internalNCINvNtB7_8sequence9delimitedRecNtNtNtCseKOJhBLZIbD_8rsonpath5query6parser12MemberStringcINtNtB7_5error5ErrorB11_ENCINvNtNtB7_9character8complete4charB11_B1Z_E0NCINvNtB7_6branch3altB11_B14_B1Z_TNCIBB_B11_cB14_cB1Z_B2o_NCINvNtB7_10combinator3mapB11_INtNtCslATUeuPuGvJ_4core6option6OptionNtNtCshJIxznpEM8j_5alloc6string6StringEB14_B1Z_NCINvB49_3optB11_B5a_B1Z_NCINvNtNtB7_5bytes8complete17escaped_transformB11_B1Z_NCIB47_B11_INtNtB5e_3vec3VecNtB16_16MaybeEscapedCharENtB16_19MaybeEscapedCharVecB1Z_NCINvNtB7_5multi5many1B11_B7E_B1Z_NCIB3b_B11_B7E_B1Z_TNCIB47_B11_cB7E_B1Z_NCINvB49_6verifyB11_ccB1Z_NCINvB2t_7none_ofB11_B11_B1Z_E0NCNvB16_9unescaped0E0NcNtB7E_4Char0E0NCIB47_B11_cB7E_B1Z_B2o_NcNtB7E_7Escaped0E0EE0E0NcB83_0E0NCIB3b_B11_B11_B1Z_TNCIB3b_B11_B11_B1Z_TNCINvB49_5valueB11_B11_B11_B1Z_NCINvB6p_3tagB11_B11_B1Z_E0E0BcP_BcP_BcP_BcP_BcP_BcP_EE0BcP_EE0B83_B11_cB5a_E0E0NvYB14_INtNtB4D_7convert4FromB4y_E4fromE0B2o_E0NCIBB_B11_cB14_cB1Z_B2o_NCIB47_B11_B4y_B14_B1Z_NCIB5Y_B11_B5a_B1Z_NCIB6n_B11_B1Z_NCINvB49_9recognizeB11_IB7o_cEB1Z_NCIB8B_B11_cB1Z_NCIB3b_B11_cB1Z_TB9K_B2o_EE0E0E0Bcb_B11_B11_cB5a_E0E0BeC_E0B2o_E0EE0B2o_E0INtB5_6ParserB11_B14_B1Z_E5parseB1a_:
  324|  3.92k|  fn parse(&mut self, i: I) -> IResult<I, O, E> {
  325|  3.92k|    self(i)
  326|  3.92k|  }
_RNvXsa_NtCsijflsOnQTe0_3nom8internalNCINvNtB7_10combinator3optReNtNtNtCseKOJhBLZIbD_8rsonpath5query6parser5TokenINtNtB7_5error5ErrorBY_ENCINvBD_3mapBY_cB10_B1M_NCINvNtNtB7_9character8complete4charBY_B1M_E0NCNvB12_8jsonpath0E0E0INtB5_6ParserBY_INtNtCslATUeuPuGvJ_4core6option6OptionB10_EB1M_E5parseB16_:
  324|  1.96k|  fn parse(&mut self, i: I) -> IResult<I, O, E> {
  325|  1.96k|    self(i)
  326|  1.96k|  }
_RNvXsa_NtCsijflsOnQTe0_3nom8internalNCINvNtB7_8sequence8precededReB10_cINtNtB7_5error5ErrorB10_ENCINvNtNtB7_5bytes8complete3tagB10_B10_B17_E0NCINvNtB7_6branch3altB10_cB17_TNCINvNtNtB7_9character8complete4charB10_B17_E0NCINvBD_9delimitedB10_cccB17_B2K_B2K_B2K_E0EE0E0INtB5_6ParserB10_cB17_E5parseCseKOJhBLZIbD_8rsonpath:
  324|  3.92k|  fn parse(&mut self, i: I) -> IResult<I, O, E> {
  325|  3.92k|    self(i)
  326|  3.92k|  }
_RNvXsa_NtCsijflsOnQTe0_3nom8internalNCINvNtB7_10combinator3mapReNtNtNtCseKOJhBLZIbD_8rsonpath5query23nonnegative_array_index21NonNegativeArrayIndexNtNtB14_6parser5TokenINtNtB7_5error5ErrorBY_ENCINvNtB7_8sequence9delimitedBY_cB10_cB2G_NCINvNtNtB7_9character8complete4charBY_B2G_E0NCINvBD_7map_resBY_yB10_B2G_NtNtB14_5error15ArrayIndexErrorNCIB4w_BY_BY_yB2G_NtNtNtCslATUeuPuGvJ_4core3num5error13ParseIntErrorNCIB4w_BY_BY_BY_B2G_B4V_INvB3P_6digit1BY_B2G_ENCNvB2n_26length_limited_array_index0E0INvMNtB5O_3stre5parseyEE0NvYyINtNtB5O_7convert7TryIntoB10_E8try_intoE0B3K_E0NcNtB2l_15ArrayIndexChild0E0INtB5_6ParserBY_B2l_B2G_E5parseB16_:
  324|  3.92k|  fn parse(&mut self, i: I) -> IResult<I, O, E> {
  325|  3.92k|    self(i)
  326|  3.92k|  }
_RNvXsa_NtCsijflsOnQTe0_3nom8internalNCINvNtB7_10combinator3mapReNtNtNtCseKOJhBLZIbD_8rsonpath5query6parser12MemberStringNtB12_5TokenINtNtB7_5error5ErrorBY_ENCINvNtB7_6branch3altBY_B10_B26_TNCINvNtB7_8sequence8precededBY_cB10_B26_NCINvNtNtB7_9character8complete4charBY_B26_E0NCIBB_BY_BY_B10_B26_NCINvBD_9recognizeBY_TcINtNtCshJIxznpEM8j_5alloc3vec3VeccEEB26_NCINvB36_4pairBY_cB55_B26_NCINvBD_6verifyBY_ccB26_INvB3K_7anycharBY_B26_ENCNvB12_12member_first0E0NCINvNtB7_5multi5many0BY_cB26_NCIB6c_BY_ccB26_B6x_NCNvB12_16member_character0E0E0E0E0NcNtB10_8Borrowed0E0E0NCINvB36_9delimitedBY_cB10_cB26_B3F_NCIB2x_BY_B10_B26_TNCIB95_BY_cB10_cB26_B3F_NCIBB_BY_INtNtCslATUeuPuGvJ_4core6option6OptionNtNtB5a_6string6StringEB10_B26_NCINvBD_3optBY_Bb4_B26_NCINvNtNtB7_5bytes8complete17escaped_transformBY_B26_NCIBB_BY_IB56_NtB12_16MaybeEscapedCharENtB12_19MaybeEscapedCharVecB26_NCINvB7o_5many1BY_Bd1_B26_NCIB2x_BY_Bd1_B26_TNCIBB_BY_cBd1_B26_NCIB6c_BY_ccB26_NCINvB3K_7none_ofBY_BY_B26_E0NCNvB12_9unescaped0E0NcNtBd1_4Char0E0NCIBB_BY_cBd1_B26_B3F_NcNtBd1_7Escaped0E0EE0E0NcBdq_0E0NCIB2x_BY_BY_B26_TNCIB2x_BY_BY_B26_TNCINvBD_5valueBY_BY_BY_B26_NCINvBc1_3tagBY_BY_B26_E0E0BhJ_BhJ_BhJ_BhJ_BhJ_BhJ_EE0BhJ_EE0Bdq_BY_cBb4_E0E0NvYB10_INtNtBax_7convert4FromBas_E4fromE0B3F_E0NCIB95_BY_cB10_cB26_B3F_NCIBB_BY_Bas_B10_B26_NCIBbC_BY_Bb4_B26_NCIBbZ_BY_B26_NCIB4L_BY_B55_B26_NCIBdY_BY_cB26_NCIB2x_BY_cB26_TBeW_B3F_EE0E0E0Bh9_BY_BY_cBb4_E0E0Bjp_E0B3F_E0EE0B3F_E0EE0NcNtB1U_5Child0E0INtB5_6ParserBY_B1U_B26_E5parseB16_:
  324|  3.92k|  fn parse(&mut self, i: I) -> IResult<I, O, E> {
  325|  3.92k|    self(i)
  326|  3.92k|  }
_RNvXsa_NtCsijflsOnQTe0_3nom8internalNCINvNtB7_8sequence9delimitedRecNtNtNtCseKOJhBLZIbD_8rsonpath5query23nonnegative_array_index21NonNegativeArrayIndexcINtNtB7_5error5ErrorB11_ENCINvNtNtB7_9character8complete4charB11_B2q_E0NCINvNtB7_10combinator7map_resB11_yB14_B2q_NtNtB18_5error15ArrayIndexErrorNCIB3C_B11_B11_yB2q_NtNtNtCslATUeuPuGvJ_4core3num5error13ParseIntErrorNCIB3C_B11_B11_B11_B2q_B4g_INvB2U_6digit1B11_B2q_ENCNvNtB18_6parser26length_limited_array_index0E0INvMNtB5b_3stre5parseyEE0NvYyINtNtB5b_7convert7TryIntoB14_E8try_intoE0B2P_E0INtB5_6ParserB11_B14_B2q_E5parseB1a_:
  324|  3.92k|  fn parse(&mut self, i: I) -> IResult<I, O, E> {
  325|  3.92k|    self(i)
  326|  3.92k|  }
_RNvXsa_NtCsijflsOnQTe0_3nom8internalINvNtNtB7_9character8complete7anycharReINtNtB7_5error5ErrorB19_EEINtB5_6ParserB19_cB1b_E5parseCseKOJhBLZIbD_8rsonpath:
  324|  1.96k|  fn parse(&mut self, i: I) -> IResult<I, O, E> {
  325|  1.96k|    self(i)
  326|  1.96k|  }
_RNvXsa_NtCsijflsOnQTe0_3nom8internalNCINvNtB7_8sequence8precededRecNtNtNtCseKOJhBLZIbD_8rsonpath5query6parser12MemberStringINtNtB7_5error5ErrorB10_ENCINvNtNtB7_9character8complete4charB10_B1X_E0NCINvNtB7_10combinator3mapB10_B10_B13_B1X_NCINvB3b_9recognizeB10_TcINtNtCshJIxznpEM8j_5alloc3vec3VeccEEB1X_NCINvBD_4pairB10_cB4b_B1X_NCINvB3b_6verifyB10_ccB1X_INvB2r_7anycharB10_B1X_ENCNvB15_12member_first0E0NCINvNtB7_5multi5many0B10_cB1X_NCIB5i_B10_ccB1X_B5F_NCNvB15_16member_character0E0E0E0E0NcNtB13_8Borrowed0E0E0INtB5_6ParserB10_B13_B1X_E5parseB19_:
  324|  3.92k|  fn parse(&mut self, i: I) -> IResult<I, O, E> {
  325|  3.92k|    self(i)
  326|  3.92k|  }

_RINvNtCsijflsOnQTe0_3nom5multi5many0RecINtNtB4_5error5ErrorBy_ENCINvNtB4_10combinator6verifyBy_ccBB_INvNtNtB4_9character8complete7anycharBy_BB_ENCNvNtNtCseKOJhBLZIbD_8rsonpath5query6parser16member_character0E0EB2q_:
   53|  3.92k|pub fn many0<I, O, E, F>(mut f: F) -> impl FnMut(I) -> IResult<I, Vec<O>, E>
   54|  3.92k|where
   55|  3.92k|  I: Clone + InputLength,
   56|  3.92k|  F: Parser<I, O, E>,
   57|  3.92k|  E: ParseError<I>,
   58|  3.92k|{
   59|       |  move |mut i: I| {
   60|       |    let mut acc = crate::lib::std::vec::Vec::with_capacity(4);
   61|       |    loop {
   62|       |      let len = i.input_len();
   63|       |      match f.parse(i.clone()) {
   64|       |        Err(Err::Error(_)) => return Ok((i, acc)),
   65|       |        Err(e) => return Err(e),
   66|       |        Ok((i1, o)) => {
   67|       |          // infinite loop check: the parser must always consume
   68|       |          if i1.input_len() == len {
   69|       |            return Err(Err::Error(E::from_error_kind(i, ErrorKind::Many0)));
   70|       |          }
   71|       |
   72|       |          i = i1;
   73|       |          acc.push(o);
   74|       |        }
   75|       |      }
   76|       |    }
   77|       |  }
   78|  3.92k|}
_RNCINvNtCsijflsOnQTe0_3nom5multi5many0ReNtNtNtCseKOJhBLZIbD_8rsonpath5query6parser5TokenINtNtB6_5error5ErrorBA_ENCINvNtB6_6branch3altBA_BC_B1o_TNCINvNtB6_10combinator3mapBA_cBC_B1o_NCIB1P_BA_cB1o_TNCINvNtB6_8sequence8precededBA_ccB1o_NCINvNtNtB6_9character8complete4charBA_B1o_E0B3K_E0NCINvB3e_9delimitedBA_cccB1o_B3K_B3K_B3K_E0EE0NCNvBE_23wildcard_child_selector0E0NCIB2l_BA_NtBE_12MemberStringBC_B1o_NCIB1P_BA_B62_B1o_TNCIB3c_BA_cB62_B1o_B3K_NCIB2l_BA_BA_B62_B1o_NCINvB2n_9recognizeBA_TcINtNtCshJIxznpEM8j_5alloc3vec3VeccEEB1o_NCINvB3e_4pairBA_cB7R_B1o_NCINvB2n_6verifyBA_ccB1o_INvB3P_7anycharBA_B1o_ENCNvBE_12member_first0E0NCIB2_BA_cB1o_NCIB8Y_BA_ccB1o_B9k_NCNvBE_16member_character0E0E0E0E0NcNtB62_8Borrowed0E0E0NCIB4C_BA_cB62_cB1o_B3K_NCIB1P_BA_B62_B1o_TNCIB4C_BA_cB62_cB1o_B3K_NCIB2l_BA_INtNtCslATUeuPuGvJ_4core6option6OptionNtNtB7W_6string6StringEB62_B1o_NCINvB2n_3optBA_Bdo_B1o_NCINvNtNtB6_5bytes8complete17escaped_transformBA_B1o_NCIB2l_BA_IB7S_NtBE_16MaybeEscapedCharENtBE_19MaybeEscapedCharVecB1o_NCINvB4_5many1BA_Bfn_B1o_NCIB1P_BA_Bfn_B1o_TNCIB2l_BA_cBfn_B1o_NCIB8Y_BA_ccB1o_NCINvB3P_7none_ofBA_BA_B1o_E0NCNvBE_9unescaped0E0NcNtBfn_4Char0E0NCIB2l_BA_cBfn_B1o_B3K_NcNtBfn_7Escaped0E0EE0E0NcBfL_0E0NCIB1P_BA_BA_B1o_TNCIB1P_BA_BA_B1o_TNCINvB2n_5valueBA_BA_BA_B1o_NCINvBem_3tagBA_BA_B1o_E0E0Bk3_Bk3_Bk3_Bk3_Bk3_Bk3_EE0Bk3_EE0BfL_BA_cBdo_E0E0NvYB62_INtNtBcR_7convert4FromBcM_E4fromE0B3K_E0NCIB4C_BA_cB62_cB1o_B3K_NCIB2l_BA_BcM_B62_B1o_NCIBdW_BA_Bdo_B1o_NCIBek_BA_B1o_NCIB7w_BA_B7R_B1o_NCIBgi_BA_cB1o_NCIB1P_BA_cB1o_TBhg_B3K_EE0E0E0Bjt_BA_BA_cBdo_E0E0BlK_E0B3K_E0EE0B3K_E0EE0NcNtBC_5Child0E0NCIB2l_BA_NtNtBG_23nonnegative_array_index21NonNegativeArrayIndexBC_B1o_NCIB4C_BA_cBpU_cB1o_B3K_NCINvB2n_7map_resBA_yBpU_B1o_NtNtBG_5error15ArrayIndexErrorNCIBrl_BA_BA_yB1o_NtNtNtBcR_3num5error13ParseIntErrorNCIBrl_BA_BA_BA_B1o_BrL_INvB3P_6digit1BA_B1o_ENCNvBE_26length_limited_array_index0E0INvMNtBcR_3stre5parseyEE0NvYyINtBlU_7TryIntoBpU_E8try_intoE0B3K_E0NcNtBC_15ArrayIndexChild0E0NCIB2l_BA_cBC_B1o_NCIB3c_BA_BA_cB1o_Bkv_NCIB1P_BA_cB1o_TB3K_B4z_EE0E0NCNvBE_28wildcard_descendant_selector0E0NCIB3c_BA_BA_BC_B1o_Bkv_NCIB1P_BA_BC_B1o_TNCIB2l_BA_B62_BC_B1o_NCIB1P_BA_B62_B1o_TB78_Bbx_EE0NcNtBC_10Descendant0E0NCIB2l_BA_BpU_BC_B1o_BqU_NcNtBC_20ArrayIndexDescendant0E0EE0E0EE0E0BI_:
   59|  1.96k|  move |mut i: I| {
   60|  1.96k|    let mut acc = crate::lib::std::vec::Vec::with_capacity(4);
   61|  3.92k|    loop {
   62|  3.92k|      let len = i.input_len();
   63|  3.92k|      match f.parse(i.clone()) {
   64|  1.96k|        Err(Err::Error(_)) => return Ok((i, acc)),
   65|      0|        Err(e) => return Err(e),
   66|  1.96k|        Ok((i1, o)) => {
   67|  1.96k|          // infinite loop check: the parser must always consume
   68|  1.96k|          if i1.input_len() == len {
   69|      0|            return Err(Err::Error(E::from_error_kind(i, ErrorKind::Many0)));
   70|  1.96k|          }
   71|  1.96k|
   72|  1.96k|          i = i1;
   73|  1.96k|          acc.push(o);
   74|       |        }
   75|       |      }
   76|       |    }
   77|  1.96k|  }
_RINvNtCsijflsOnQTe0_3nom5multi5many1ReNtNtNtCseKOJhBLZIbD_8rsonpath5query6parser16MaybeEscapedCharINtNtB4_5error5ErrorBy_ENCINvNtB4_6branch3altBy_BA_B1y_TNCINvNtB4_10combinator3mapBy_cBA_B1y_NCINvB2x_6verifyBy_ccB1y_NCINvNtNtB4_9character8complete7none_ofBy_By_B1y_E0NCNvBC_9unescaped0E0NcNtBA_4Char0E0NCIB2v_By_cBA_B1y_NCINvB3x_4charBy_B1y_E0NcNtBA_7Escaped0E0EE0EBG_:
  108|  3.92k|pub fn many1<I, O, E, F>(mut f: F) -> impl FnMut(I) -> IResult<I, Vec<O>, E>
  109|  3.92k|where
  110|  3.92k|  I: Clone + InputLength,
  111|  3.92k|  F: Parser<I, O, E>,
  112|  3.92k|  E: ParseError<I>,
  113|  3.92k|{
  114|       |  move |mut i: I| match f.parse(i.clone()) {
  115|       |    Err(Err::Error(err)) => Err(Err::Error(E::append(i, ErrorKind::Many1, err))),
  116|       |    Err(e) => Err(e),
  117|       |    Ok((i1, o)) => {
  118|       |      let mut acc = crate::lib::std::vec::Vec::with_capacity(4);
  119|       |      acc.push(o);
  120|       |      i = i1;
  121|       |
  122|       |      loop {
  123|       |        let len = i.input_len();
  124|       |        match f.parse(i.clone()) {
  125|       |          Err(Err::Error(_)) => return Ok((i, acc)),
  126|       |          Err(e) => return Err(e),
  127|       |          Ok((i1, o)) => {
  128|       |            // infinite loop check: the parser must always consume
  129|       |            if i1.input_len() == len {
  130|       |              return Err(Err::Error(E::from_error_kind(i, ErrorKind::Many1)));
  131|       |            }
  132|       |
  133|       |            i = i1;
  134|       |            acc.push(o);
  135|       |          }
  136|       |        }
  137|       |      }
  138|       |    }
  139|       |  }
  140|  3.92k|}
_RINvNtCsijflsOnQTe0_3nom5multi5many1RecINtNtB4_5error5ErrorBy_ENCINvNtB4_6branch3altBy_cBB_TNCINvNtB4_10combinator6verifyBy_ccBB_NCINvNtNtB4_9character8complete7none_ofBy_By_BB_E0NCNvNtNtCseKOJhBLZIbD_8rsonpath5query6parser9unescaped0E0NCINvB28_4charBy_BB_E0EE0EB2Z_:
  108|  3.92k|pub fn many1<I, O, E, F>(mut f: F) -> impl FnMut(I) -> IResult<I, Vec<O>, E>
  109|  3.92k|where
  110|  3.92k|  I: Clone + InputLength,
  111|  3.92k|  F: Parser<I, O, E>,
  112|  3.92k|  E: ParseError<I>,
  113|  3.92k|{
  114|       |  move |mut i: I| match f.parse(i.clone()) {
  115|       |    Err(Err::Error(err)) => Err(Err::Error(E::append(i, ErrorKind::Many1, err))),
  116|       |    Err(e) => Err(e),
  117|       |    Ok((i1, o)) => {
  118|       |      let mut acc = crate::lib::std::vec::Vec::with_capacity(4);
  119|       |      acc.push(o);
  120|       |      i = i1;
  121|       |
  122|       |      loop {
  123|       |        let len = i.input_len();
  124|       |        match f.parse(i.clone()) {
  125|       |          Err(Err::Error(_)) => return Ok((i, acc)),
  126|       |          Err(e) => return Err(e),
  127|       |          Ok((i1, o)) => {
  128|       |            // infinite loop check: the parser must always consume
  129|       |            if i1.input_len() == len {
  130|       |              return Err(Err::Error(E::from_error_kind(i, ErrorKind::Many1)));
  131|       |            }
  132|       |
  133|       |            i = i1;
  134|       |            acc.push(o);
  135|       |          }
  136|       |        }
  137|       |      }
  138|       |    }
  139|       |  }
  140|  3.92k|}
_RINvNtCsijflsOnQTe0_3nom5multi5many0ReNtNtNtCseKOJhBLZIbD_8rsonpath5query6parser5TokenINtNtB4_5error5ErrorBy_ENCINvNtB4_6branch3altBy_BA_B1m_TNCINvNtB4_10combinator3mapBy_cBA_B1m_NCIB1N_By_cB1m_TNCINvNtB4_8sequence8precededBy_ccB1m_NCINvNtNtB4_9character8complete4charBy_B1m_E0B3I_E0NCINvB3c_9delimitedBy_cccB1m_B3I_B3I_B3I_E0EE0NCNvBC_23wildcard_child_selector0E0NCIB2j_By_NtBC_12MemberStringBA_B1m_NCIB1N_By_B60_B1m_TNCIB3a_By_cB60_B1m_B3I_NCIB2j_By_By_B60_B1m_NCINvB2l_9recognizeBy_TcINtNtCshJIxznpEM8j_5alloc3vec3VeccEEB1m_NCINvB3c_4pairBy_cB7P_B1m_NCINvB2l_6verifyBy_ccB1m_INvB3N_7anycharBy_B1m_ENCNvBC_12member_first0E0NCIB0_By_cB1m_NCIB8W_By_ccB1m_B9i_NCNvBC_16member_character0E0E0E0E0NcNtB60_8Borrowed0E0E0NCIB4A_By_cB60_cB1m_B3I_NCIB1N_By_B60_B1m_TNCIB4A_By_cB60_cB1m_B3I_NCIB2j_By_INtNtCslATUeuPuGvJ_4core6option6OptionNtNtB7U_6string6StringEB60_B1m_NCINvB2l_3optBy_Bdm_B1m_NCINvNtNtB4_5bytes8complete17escaped_transformBy_B1m_NCIB2j_By_IB7Q_NtBC_16MaybeEscapedCharENtBC_19MaybeEscapedCharVecB1m_NCINvB2_5many1By_Bfl_B1m_NCIB1N_By_Bfl_B1m_TNCIB2j_By_cBfl_B1m_NCIB8W_By_ccB1m_NCINvB3N_7none_ofBy_By_B1m_E0NCNvBC_9unescaped0E0NcNtBfl_4Char0E0NCIB2j_By_cBfl_B1m_B3I_NcNtBfl_7Escaped0E0EE0E0NcBfJ_0E0NCIB1N_By_By_B1m_TNCIB1N_By_By_B1m_TNCINvB2l_5valueBy_By_By_B1m_NCINvBek_3tagBy_By_B1m_E0E0Bk1_Bk1_Bk1_Bk1_Bk1_Bk1_EE0Bk1_EE0BfJ_By_cBdm_E0E0NvYB60_INtNtBcP_7convert4FromBcK_E4fromE0B3I_E0NCIB4A_By_cB60_cB1m_B3I_NCIB2j_By_BcK_B60_B1m_NCIBdU_By_Bdm_B1m_NCIBei_By_B1m_NCIB7u_By_B7P_B1m_NCIBgg_By_cB1m_NCIB1N_By_cB1m_TBhe_B3I_EE0E0E0Bjr_By_By_cBdm_E0E0BlI_E0B3I_E0EE0B3I_E0EE0NcNtBA_5Child0E0NCIB2j_By_NtNtBE_23nonnegative_array_index21NonNegativeArrayIndexBA_B1m_NCIB4A_By_cBpS_cB1m_B3I_NCINvB2l_7map_resBy_yBpS_B1m_NtNtBE_5error15ArrayIndexErrorNCIBrj_By_By_yB1m_NtNtNtBcP_3num5error13ParseIntErrorNCIBrj_By_By_By_B1m_BrJ_INvB3N_6digit1By_B1m_ENCNvBC_26length_limited_array_index0E0INvMNtBcP_3stre5parseyEE0NvYyINtBlS_7TryIntoBpS_E8try_intoE0B3I_E0NcNtBA_15ArrayIndexChild0E0NCIB2j_By_cBA_B1m_NCIB3a_By_By_cB1m_Bkt_NCIB1N_By_cB1m_TB3I_B4x_EE0E0NCNvBC_28wildcard_descendant_selector0E0NCIB3a_By_By_BA_B1m_Bkt_NCIB1N_By_BA_B1m_TNCIB2j_By_B60_BA_B1m_NCIB1N_By_B60_B1m_TB76_Bbv_EE0NcNtBA_10Descendant0E0NCIB2j_By_BpS_BA_B1m_BqS_NcNtBA_20ArrayIndexDescendant0E0EE0E0EE0EBG_:
   53|  1.96k|pub fn many0<I, O, E, F>(mut f: F) -> impl FnMut(I) -> IResult<I, Vec<O>, E>
   54|  1.96k|where
   55|  1.96k|  I: Clone + InputLength,
   56|  1.96k|  F: Parser<I, O, E>,
   57|  1.96k|  E: ParseError<I>,
   58|  1.96k|{
   59|       |  move |mut i: I| {
   60|       |    let mut acc = crate::lib::std::vec::Vec::with_capacity(4);
   61|       |    loop {
   62|       |      let len = i.input_len();
   63|       |      match f.parse(i.clone()) {
   64|       |        Err(Err::Error(_)) => return Ok((i, acc)),
   65|       |        Err(e) => return Err(e),
   66|       |        Ok((i1, o)) => {
   67|       |          // infinite loop check: the parser must always consume
   68|       |          if i1.input_len() == len {
   69|       |            return Err(Err::Error(E::from_error_kind(i, ErrorKind::Many0)));
   70|       |          }
   71|       |
   72|       |          i = i1;
   73|       |          acc.push(o);
   74|       |        }
   75|       |      }
   76|       |    }
   77|       |  }
   78|  1.96k|}

_RNCINvNtCsijflsOnQTe0_3nom8sequence9delimitedRecNtNtNtCseKOJhBLZIbD_8rsonpath5query6parser12MemberStringcINtNtB6_5error5ErrorBH_ENCINvNtNtB6_9character8complete4charBH_B1F_E0NCINvNtB6_6branch3altBH_BK_B1F_TNCIB2_BH_cBK_cB1F_B23_NCINvNtB6_10combinator3mapBH_INtNtCslATUeuPuGvJ_4core6option6OptionNtNtCshJIxznpEM8j_5alloc6string6StringEBK_B1F_NCINvB3J_3optBH_B4J_B1F_NCINvNtNtB6_5bytes8complete17escaped_transformBH_B1F_NCIB3H_BH_INtNtB4N_3vec3VecNtBM_16MaybeEscapedCharENtBM_19MaybeEscapedCharVecB1F_NCINvNtB6_5multi5many1BH_B79_B1F_NCIB2P_BH_B79_B1F_TNCIB3H_BH_cB79_B1F_NCINvB3J_6verifyBH_ccB1F_NCINvB28_7none_ofBH_BH_B1F_E0NCNvBM_9unescaped0E0NcNtB79_4Char0E0NCIB3H_BH_cB79_B1F_B23_NcNtB79_7Escaped0E0EE0E0NcB7x_0E0NCIB2P_BH_BH_B1F_TNCIB2P_BH_BH_B1F_TNCINvB3J_5valueBH_BH_BH_B1F_NCINvB5W_3tagBH_BH_B1F_E0E0Bc6_Bc6_Bc6_Bc6_Bc6_Bc6_EE0Bc6_EE0B7x_BH_cB4J_E0E0NvYBK_INtNtB4c_7convert4FromB47_E4fromE0B23_E0NCIB2_BH_cBK_cB1F_B23_NCIB3H_BH_B47_BK_B1F_NCIB5w_BH_B4J_B1F_NCIB5U_BH_B1F_NCINvB3J_9recognizeBH_IB6T_cEB1F_NCIB84_BH_cB1F_NCIB2P_BH_cB1F_TB9a_B23_EE0E0E0Bbw_BH_BH_cB4J_E0E0BdN_E0B23_E0EE0B23_E0BQ_:
  182|  3.92k|  move |input: I| {
  183|  3.92k|    let (input, _) = first.parse(input)?;
  184|      0|    let (input, o2) = second.parse(input)?;
  185|      0|    third.parse(input).map(|(i, _)| (i, o2))
  186|  3.92k|  }
_RINvNtCsijflsOnQTe0_3nom8sequence4pairReINtNtCslATUeuPuGvJ_4core6option6OptionNtNtNtCseKOJhBLZIbD_8rsonpath5query6parser5TokenEINtNtCshJIxznpEM8j_5alloc3vec3VecB1e_EINtNtB4_5error5ErrorBA_ENCINvNtB4_10combinator3optBA_B1e_B2D_NCINvB36_3mapBA_cB1e_B2D_NCINvNtNtB4_9character8complete4charBA_B2D_E0NCNvB1g_8jsonpath0E0E0NCINvNtB4_5multi5many0BA_B1e_B2D_NCINvNtB4_6branch3altBA_B1e_B2D_TNCIB3F_BA_cB1e_B2D_NCIB5G_BA_cB2D_TNCINvB2_8precededBA_ccB2D_B41_B41_E0NCINvB2_9delimitedBA_cccB2D_B41_B41_B41_E0EE0NCNvB1g_23wildcard_child_selector0E0NCIB3F_BA_NtB1g_12MemberStringB1e_B2D_NCIB5G_BA_B8M_B2D_TNCIB6M_BA_cB8M_B2D_B41_NCIB3F_BA_BA_B8M_B2D_NCINvB36_9recognizeBA_TcIB22_cEEB2D_NCIB0_BA_cBaD_B2D_NCINvB36_6verifyBA_ccB2D_INvB46_7anycharBA_B2D_ENCNvB1g_12member_first0E0NCIB59_BA_cB2D_NCIBba_BA_ccB2D_Bbw_NCNvB1g_16member_character0E0E0E0E0NcNtB8M_8Borrowed0E0E0NCIB7m_BA_cB8M_cB2D_B41_NCIB5G_BA_B8M_B2D_TNCIB7m_BA_cB8M_cB2D_B41_NCIB3F_BA_IBD_NtNtB26_6string6StringEB8M_B2D_NCIB34_BA_Bf5_B2D_NCINvNtNtB4_5bytes8complete17escaped_transformBA_B2D_NCIB3F_BA_IB22_NtB1g_16MaybeEscapedCharENtB1g_19MaybeEscapedCharVecB2D_NCINvB5b_5many1BA_BgY_B2D_NCIB5G_BA_BgY_B2D_TNCIB3F_BA_cBgY_B2D_NCIBba_BA_ccB2D_NCINvB46_7none_ofBA_BA_B2D_E0NCNvB1g_9unescaped0E0NcNtBgY_4Char0E0NCIB3F_BA_cBgY_B2D_B41_NcNtBgY_7Escaped0E0EE0E0NcBhn_0E0NCIB5G_BA_BA_B2D_TNCIB5G_BA_BA_B2D_TNCINvB36_5valueBA_BA_BA_B2D_NCINvBfX_3tagBA_BA_B2D_E0E0BlI_BlI_BlI_BlI_BlI_BlI_EE0BlI_EE0Bhn_BA_cBf5_E0E0NvYB8M_INtNtBH_7convert4FromBf1_E4fromE0B41_E0NCIB7m_BA_cB8M_cB2D_B41_NCIB3F_BA_Bf1_B8M_B2D_NCIB34_BA_Bf5_B2D_NCIBfV_BA_B2D_NCIBai_BA_BaD_B2D_NCIBhV_BA_cB2D_NCIB5G_BA_cB2D_TBiU_B41_EE0E0E0Bl8_BA_BA_cBf5_E0E0Bnp_E0B41_E0EE0B41_E0EE0NcNtB1e_5Child0E0NCIB3F_BA_NtNtB1i_23nonnegative_array_index21NonNegativeArrayIndexB1e_B2D_NCIB7m_BA_cBrz_cB2D_B41_NCINvB36_7map_resBA_yBrz_B2D_NtNtB1i_5error15ArrayIndexErrorNCIBt2_BA_BA_yB2D_NtNtNtBH_3num5error13ParseIntErrorNCIBt2_BA_BA_BA_B2D_Bts_INvB46_6digit1BA_B2D_ENCNvB1g_26length_limited_array_index0E0INvMNtBH_3stre5parseyEE0NvYyINtBnz_7TryIntoBrz_E8try_intoE0B41_E0NcNtB1e_15ArrayIndexChild0E0NCIB3F_BA_cB1e_B2D_NCIB6M_BA_BA_cB2D_Bma_NCIB5G_BA_cB2D_TB41_B7j_EE0E0NCNvB1g_28wildcard_descendant_selector0E0NCIB6M_BA_BA_B1e_B2D_Bma_NCIB5G_BA_B1e_B2D_TNCIB3F_BA_B8M_B1e_B2D_NCIB5G_BA_B8M_B2D_TB9U_BdM_EE0NcNtB1e_10Descendant0E0NCIB3F_BA_Brz_B1e_B2D_BsB_NcNtB1e_20ArrayIndexDescendant0E0EE0E0EE0E0EB1k_:
   29|  1.96k|pub fn pair<I, O1, O2, E: ParseError<I>, F, G>(
   30|  1.96k|  mut first: F,
   31|  1.96k|  mut second: G,
   32|  1.96k|) -> impl FnMut(I) -> IResult<I, (O1, O2), E>
   33|  1.96k|where
   34|  1.96k|  F: Parser<I, O1, E>,
   35|  1.96k|  G: Parser<I, O2, E>,
   36|  1.96k|{
   37|       |  move |input: I| {
   38|       |    let (input, o1) = first.parse(input)?;
   39|       |    second.parse(input).map(|(i, o2)| (i, (o1, o2)))
   40|       |  }
   41|  1.96k|}
_RINvNtCsijflsOnQTe0_3nom8sequence9delimitedRecNtNtNtCseKOJhBLZIbD_8rsonpath5query23nonnegative_array_index21NonNegativeArrayIndexcINtNtB4_5error5ErrorBF_ENCINvNtNtB4_9character8complete4charBF_B24_E0NCINvNtB4_10combinator7map_resBF_yBI_B24_NtNtBM_5error15ArrayIndexErrorNCIB3e_BF_BF_yB24_NtNtNtCslATUeuPuGvJ_4core3num5error13ParseIntErrorNCIB3e_BF_BF_BF_B24_B3Q_INvB2x_6digit1BF_B24_ENCNvNtBM_6parser26length_limited_array_index0E0INvMNtB4I_3stre5parseyEE0NvYyINtNtB4I_7convert7TryIntoBI_E8try_intoE0B2s_EBO_:
  172|  3.92k|pub fn delimited<I, O1, O2, O3, E: ParseError<I>, F, G, H>(
  173|  3.92k|  mut first: F,
  174|  3.92k|  mut second: G,
  175|  3.92k|  mut third: H,
  176|  3.92k|) -> impl FnMut(I) -> IResult<I, O2, E>
  177|  3.92k|where
  178|  3.92k|  F: Parser<I, O1, E>,
  179|  3.92k|  G: Parser<I, O2, E>,
  180|  3.92k|  H: Parser<I, O3, E>,
  181|  3.92k|{
  182|       |  move |input: I| {
  183|       |    let (input, _) = first.parse(input)?;
  184|       |    let (input, o2) = second.parse(input)?;
  185|       |    third.parse(input).map(|(i, _)| (i, o2))
  186|       |  }
  187|  3.92k|}
_RNCNCINvNtCsijflsOnQTe0_3nom8sequence4pairReINtNtCslATUeuPuGvJ_4core6option6OptionNtNtNtCseKOJhBLZIbD_8rsonpath5query6parser5TokenEINtNtCshJIxznpEM8j_5alloc3vec3VecB1i_EINtNtB8_5error5ErrorBE_ENCINvNtB8_10combinator3optBE_B1i_B2H_NCINvB3a_3mapBE_cB1i_B2H_NCINvNtNtB8_9character8complete4charBE_B2H_E0NCNvB1k_8jsonpath0E0E0NCINvNtB8_5multi5many0BE_B1i_B2H_NCINvNtB8_6branch3altBE_B1i_B2H_TNCIB3J_BE_cB1i_B2H_NCIB5K_BE_cB2H_TNCINvB6_8precededBE_ccB2H_B45_B45_E0NCINvB6_9delimitedBE_cccB2H_B45_B45_B45_E0EE0NCNvB1k_23wildcard_child_selector0E0NCIB3J_BE_NtB1k_12MemberStringB1i_B2H_NCIB5K_BE_B8Q_B2H_TNCIB6Q_BE_cB8Q_B2H_B45_NCIB3J_BE_BE_B8Q_B2H_NCINvB3a_9recognizeBE_TcIB26_cEEB2H_NCIB4_BE_cBaH_B2H_NCINvB3a_6verifyBE_ccB2H_INvB4a_7anycharBE_B2H_ENCNvB1k_12member_first0E0NCIB5d_BE_cB2H_NCIBbe_BE_ccB2H_BbA_NCNvB1k_16member_character0E0E0E0E0NcNtB8Q_8Borrowed0E0E0NCIB7q_BE_cB8Q_cB2H_B45_NCIB5K_BE_B8Q_B2H_TNCIB7q_BE_cB8Q_cB2H_B45_NCIB3J_BE_IBH_NtNtB2a_6string6StringEB8Q_B2H_NCIB38_BE_Bf9_B2H_NCINvNtNtB8_5bytes8complete17escaped_transformBE_B2H_NCIB3J_BE_IB26_NtB1k_16MaybeEscapedCharENtB1k_19MaybeEscapedCharVecB2H_NCINvB5f_5many1BE_Bh2_B2H_NCIB5K_BE_Bh2_B2H_TNCIB3J_BE_cBh2_B2H_NCIBbe_BE_ccB2H_NCINvB4a_7none_ofBE_BE_B2H_E0NCNvB1k_9unescaped0E0NcNtBh2_4Char0E0NCIB3J_BE_cBh2_B2H_B45_NcNtBh2_7Escaped0E0EE0E0NcBhr_0E0NCIB5K_BE_BE_B2H_TNCIB5K_BE_BE_B2H_TNCINvB3a_5valueBE_BE_BE_B2H_NCINvBg1_3tagBE_BE_B2H_E0E0BlM_BlM_BlM_BlM_BlM_BlM_EE0BlM_EE0Bhr_BE_cBf9_E0E0NvYB8Q_INtNtBL_7convert4FromBf5_E4fromE0B45_E0NCIB7q_BE_cB8Q_cB2H_B45_NCIB3J_BE_Bf5_B8Q_B2H_NCIB38_BE_Bf9_B2H_NCIBfZ_BE_B2H_NCIBam_BE_BaH_B2H_NCIBhZ_BE_cB2H_NCIB5K_BE_cB2H_TBiY_B45_EE0E0E0Blc_BE_BE_cBf9_E0E0Bnt_E0B45_E0EE0B45_E0EE0NcNtB1i_5Child0E0NCIB3J_BE_NtNtB1m_23nonnegative_array_index21NonNegativeArrayIndexB1i_B2H_NCIB7q_BE_cBrD_cB2H_B45_NCINvB3a_7map_resBE_yBrD_B2H_NtNtB1m_5error15ArrayIndexErrorNCIBt6_BE_BE_yB2H_NtNtNtBL_3num5error13ParseIntErrorNCIBt6_BE_BE_BE_B2H_Btw_INvB4a_6digit1BE_B2H_ENCNvB1k_26length_limited_array_index0E0INvMNtBL_3stre5parseyEE0NvYyINtBnD_7TryIntoBrD_E8try_intoE0B45_E0NcNtB1i_15ArrayIndexChild0E0NCIB3J_BE_cB1i_B2H_NCIB6Q_BE_BE_cB2H_Bme_NCIB5K_BE_cB2H_TB45_B7n_EE0E0NCNvB1k_28wildcard_descendant_selector0E0NCIB6Q_BE_BE_B1i_B2H_Bme_NCIB5K_BE_B1i_B2H_TNCIB3J_BE_B8Q_B1i_B2H_NCIB5K_BE_B8Q_B2H_TB9Y_BdQ_EE0NcNtB1i_10Descendant0E0NCIB3J_BE_BrD_B1i_B2H_BsF_NcNtB1i_20ArrayIndexDescendant0E0EE0E0EE0E0E00B1o_:
   39|  1.96k|    second.parse(input).map(|(i, o2)| (i, (o1, o2)))
_RINvNtCsijflsOnQTe0_3nom8sequence8precededReccINtNtB4_5error5ErrorBE_ENCINvNtNtB4_9character8complete4charBE_BI_E0B16_ECseKOJhBLZIbD_8rsonpath:
   63|  1.96k|pub fn preceded<I, O1, O2, E: ParseError<I>, F, G>(
   64|  1.96k|  mut first: F,
   65|  1.96k|  mut second: G,
   66|  1.96k|) -> impl FnMut(I) -> IResult<I, O2, E>
   67|  1.96k|where
   68|  1.96k|  F: Parser<I, O1, E>,
   69|  1.96k|  G: Parser<I, O2, E>,
   70|  1.96k|{
   71|       |  move |input: I| {
   72|       |    let (input, _) = first.parse(input)?;
   73|       |    second.parse(input)
   74|       |  }
   75|  1.96k|}
_RINvNtCsijflsOnQTe0_3nom8sequence9delimitedRecccINtNtB4_5error5ErrorBF_ENCINvNtNtB4_9character8complete4charBF_BK_E0B18_B18_ECseKOJhBLZIbD_8rsonpath:
  172|  3.92k|pub fn delimited<I, O1, O2, O3, E: ParseError<I>, F, G, H>(
  173|  3.92k|  mut first: F,
  174|  3.92k|  mut second: G,
  175|  3.92k|  mut third: H,
  176|  3.92k|) -> impl FnMut(I) -> IResult<I, O2, E>
  177|  3.92k|where
  178|  3.92k|  F: Parser<I, O1, E>,
  179|  3.92k|  G: Parser<I, O2, E>,
  180|  3.92k|  H: Parser<I, O3, E>,
  181|  3.92k|{
  182|       |  move |input: I| {
  183|       |    let (input, _) = first.parse(input)?;
  184|       |    let (input, o2) = second.parse(input)?;
  185|       |    third.parse(input).map(|(i, _)| (i, o2))
  186|       |  }
  187|  3.92k|}
_RINvNtCsijflsOnQTe0_3nom8sequence4pairRecINtNtCshJIxznpEM8j_5alloc3vec3VeccEINtNtB4_5error5ErrorBA_ENCINvNtB4_10combinator6verifyBA_ccB1c_INvNtNtB4_9character8complete7anycharBA_B1c_ENCNvNtNtCseKOJhBLZIbD_8rsonpath5query6parser12member_first0E0NCINvNtB4_5multi5many0BA_cB1c_NCIB1D_BA_ccB1c_B2c_NCNvB2Z_16member_character0E0E0EB33_:
   29|  3.92k|pub fn pair<I, O1, O2, E: ParseError<I>, F, G>(
   30|  3.92k|  mut first: F,
   31|  3.92k|  mut second: G,
   32|  3.92k|) -> impl FnMut(I) -> IResult<I, (O1, O2), E>
   33|  3.92k|where
   34|  3.92k|  F: Parser<I, O1, E>,
   35|  3.92k|  G: Parser<I, O2, E>,
   36|  3.92k|{
   37|       |  move |input: I| {
   38|       |    let (input, o1) = first.parse(input)?;
   39|       |    second.parse(input).map(|(i, o2)| (i, (o1, o2)))
   40|       |  }
   41|  3.92k|}
_RNCINvNtCsijflsOnQTe0_3nom8sequence8precededReccINtNtB6_5error5ErrorBG_ENCINvNtNtB6_9character8complete4charBG_BK_E0B18_E0CseKOJhBLZIbD_8rsonpath:
   71|  3.92k|  move |input: I| {
   72|  3.92k|    let (input, _) = first.parse(input)?;
   73|  1.96k|    second.parse(input)
   74|  3.92k|  }
_RNCINvNtCsijflsOnQTe0_3nom8sequence9delimitedRecccINtNtB6_5error5ErrorBH_ENCINvNtNtB6_9character8complete4charBH_BM_E0B1a_B1a_E0CseKOJhBLZIbD_8rsonpath:
  182|  3.92k|  move |input: I| {
  183|  3.92k|    let (input, _) = first.parse(input)?;
  184|      0|    let (input, o2) = second.parse(input)?;
  185|      0|    third.parse(input).map(|(i, _)| (i, o2))
  186|  3.92k|  }
_RNCINvNtCsijflsOnQTe0_3nom8sequence8precededReBG_cINtNtB6_5error5ErrorBG_ENCINvNtNtB6_5bytes8complete3tagBG_BG_BM_E0NCINvNtB6_6branch3altBG_cBM_TNCINvNtNtB6_9character8complete4charBG_BM_E0NCINvB4_9delimitedBG_cccBM_B2j_B2j_B2j_E0EE0E0CseKOJhBLZIbD_8rsonpath:
   71|  3.92k|  move |input: I| {
   72|  3.92k|    let (input, _) = first.parse(input)?;
   73|  1.96k|    second.parse(input)
   74|  3.92k|  }
_RINvNtCsijflsOnQTe0_3nom8sequence9delimitedRecNtNtNtCseKOJhBLZIbD_8rsonpath5query6parser12MemberStringcINtNtB4_5error5ErrorBF_ENCINvNtNtB4_9character8complete4charBF_B1D_E0NCINvNtB4_10combinator3mapBF_INtNtCslATUeuPuGvJ_4core6option6OptionNtNtCshJIxznpEM8j_5alloc6string6StringEBI_B1D_NCINvB2P_3optBF_B3P_B1D_NCINvNtNtB4_5bytes8complete17escaped_transformBF_B1D_NCINvB2P_9recognizeBF_INtNtB3T_3vec3VeccEB1D_NCINvNtB4_5multi5many1BF_cB1D_NCINvNtB4_6branch3altBF_cB1D_TNCINvB2P_6verifyBF_ccB1D_NCINvB26_7none_ofBF_BF_B1D_E0NCNvBK_9unescaped0E0B21_EE0E0E0NCIB74_BF_BF_B1D_TNCIB74_BF_BF_B1D_TNCINvB2P_5valueBF_BF_BF_B1D_NCINvB52_3tagBF_BF_B1D_E0E0B9s_B9s_B9s_B9s_B9s_B9s_EE0B9s_EE0BF_BF_cB3P_E0E0NvYBI_INtNtB3i_7convert4FromB3d_E4fromE0B21_EBO_:
  172|  3.92k|pub fn delimited<I, O1, O2, O3, E: ParseError<I>, F, G, H>(
  173|  3.92k|  mut first: F,
  174|  3.92k|  mut second: G,
  175|  3.92k|  mut third: H,
  176|  3.92k|) -> impl FnMut(I) -> IResult<I, O2, E>
  177|  3.92k|where
  178|  3.92k|  F: Parser<I, O1, E>,
  179|  3.92k|  G: Parser<I, O2, E>,
  180|  3.92k|  H: Parser<I, O3, E>,
  181|  3.92k|{
  182|       |  move |input: I| {
  183|       |    let (input, _) = first.parse(input)?;
  184|       |    let (input, o2) = second.parse(input)?;
  185|       |    third.parse(input).map(|(i, _)| (i, o2))
  186|       |  }
  187|  3.92k|}
_RINvNtCsijflsOnQTe0_3nom8sequence9delimitedRecNtNtNtCseKOJhBLZIbD_8rsonpath5query6parser12MemberStringcINtNtB4_5error5ErrorBF_ENCINvNtNtB4_9character8complete4charBF_B1D_E0NCINvNtB4_6branch3altBF_BI_B1D_TNCIB0_BF_cBI_cB1D_B21_NCINvNtB4_10combinator3mapBF_INtNtCslATUeuPuGvJ_4core6option6OptionNtNtCshJIxznpEM8j_5alloc6string6StringEBI_B1D_NCINvB3H_3optBF_B4H_B1D_NCINvNtNtB4_5bytes8complete17escaped_transformBF_B1D_NCIB3F_BF_INtNtB4L_3vec3VecNtBK_16MaybeEscapedCharENtBK_19MaybeEscapedCharVecB1D_NCINvNtB4_5multi5many1BF_B77_B1D_NCIB2N_BF_B77_B1D_TNCIB3F_BF_cB77_B1D_NCINvB3H_6verifyBF_ccB1D_NCINvB26_7none_ofBF_BF_B1D_E0NCNvBK_9unescaped0E0NcNtB77_4Char0E0NCIB3F_BF_cB77_B1D_B21_NcNtB77_7Escaped0E0EE0E0NcB7v_0E0NCIB2N_BF_BF_B1D_TNCIB2N_BF_BF_B1D_TNCINvB3H_5valueBF_BF_BF_B1D_NCINvB5U_3tagBF_BF_B1D_E0E0Bc4_Bc4_Bc4_Bc4_Bc4_Bc4_EE0Bc4_EE0B7v_BF_cB4H_E0E0NvYBI_INtNtB4a_7convert4FromB45_E4fromE0B21_E0NCIB0_BF_cBI_cB1D_B21_NCIB3F_BF_B45_BI_B1D_NCIB5u_BF_B4H_B1D_NCIB5S_BF_B1D_NCINvB3H_9recognizeBF_IB6R_cEB1D_NCIB82_BF_cB1D_NCIB2N_BF_cB1D_TB98_B21_EE0E0E0Bbu_BF_BF_cB4H_E0E0BdL_E0B21_E0EE0B21_EBO_:
  172|  3.92k|pub fn delimited<I, O1, O2, O3, E: ParseError<I>, F, G, H>(
  173|  3.92k|  mut first: F,
  174|  3.92k|  mut second: G,
  175|  3.92k|  mut third: H,
  176|  3.92k|) -> impl FnMut(I) -> IResult<I, O2, E>
  177|  3.92k|where
  178|  3.92k|  F: Parser<I, O1, E>,
  179|  3.92k|  G: Parser<I, O2, E>,
  180|  3.92k|  H: Parser<I, O3, E>,
  181|  3.92k|{
  182|       |  move |input: I| {
  183|       |    let (input, _) = first.parse(input)?;
  184|       |    let (input, o2) = second.parse(input)?;
  185|       |    third.parse(input).map(|(i, _)| (i, o2))
  186|       |  }
  187|  3.92k|}
_RNCINvNtCsijflsOnQTe0_3nom8sequence4pairRecINtNtCshJIxznpEM8j_5alloc3vec3VeccEINtNtB6_5error5ErrorBC_ENCINvNtB6_10combinator6verifyBC_ccB1e_INvNtNtB6_9character8complete7anycharBC_B1e_ENCNvNtNtCseKOJhBLZIbD_8rsonpath5query6parser12member_first0E0NCINvNtB6_5multi5many0BC_cB1e_NCIB1F_BC_ccB1e_B2e_NCNvB31_16member_character0E0E0E0B35_:
   37|  1.96k|  move |input: I| {
   38|  1.96k|    let (input, o1) = first.parse(input)?;
   39|      0|    second.parse(input).map(|(i, o2)| (i, (o1, o2)))
   40|  1.96k|  }
_RNCINvNtCsijflsOnQTe0_3nom8sequence4pairReINtNtCslATUeuPuGvJ_4core6option6OptionNtNtNtCseKOJhBLZIbD_8rsonpath5query6parser5TokenEINtNtCshJIxznpEM8j_5alloc3vec3VecB1g_EINtNtB6_5error5ErrorBC_ENCINvNtB6_10combinator3optBC_B1g_B2F_NCINvB38_3mapBC_cB1g_B2F_NCINvNtNtB6_9character8complete4charBC_B2F_E0NCNvB1i_8jsonpath0E0E0NCINvNtB6_5multi5many0BC_B1g_B2F_NCINvNtB6_6branch3altBC_B1g_B2F_TNCIB3H_BC_cB1g_B2F_NCIB5I_BC_cB2F_TNCINvB4_8precededBC_ccB2F_B43_B43_E0NCINvB4_9delimitedBC_cccB2F_B43_B43_B43_E0EE0NCNvB1i_23wildcard_child_selector0E0NCIB3H_BC_NtB1i_12MemberStringB1g_B2F_NCIB5I_BC_B8O_B2F_TNCIB6O_BC_cB8O_B2F_B43_NCIB3H_BC_BC_B8O_B2F_NCINvB38_9recognizeBC_TcIB24_cEEB2F_NCIB2_BC_cBaF_B2F_NCINvB38_6verifyBC_ccB2F_INvB48_7anycharBC_B2F_ENCNvB1i_12member_first0E0NCIB5b_BC_cB2F_NCIBbc_BC_ccB2F_Bby_NCNvB1i_16member_character0E0E0E0E0NcNtB8O_8Borrowed0E0E0NCIB7o_BC_cB8O_cB2F_B43_NCIB5I_BC_B8O_B2F_TNCIB7o_BC_cB8O_cB2F_B43_NCIB3H_BC_IBF_NtNtB28_6string6StringEB8O_B2F_NCIB36_BC_Bf7_B2F_NCINvNtNtB6_5bytes8complete17escaped_transformBC_B2F_NCIB3H_BC_IB24_NtB1i_16MaybeEscapedCharENtB1i_19MaybeEscapedCharVecB2F_NCINvB5d_5many1BC_Bh0_B2F_NCIB5I_BC_Bh0_B2F_TNCIB3H_BC_cBh0_B2F_NCIBbc_BC_ccB2F_NCINvB48_7none_ofBC_BC_B2F_E0NCNvB1i_9unescaped0E0NcNtBh0_4Char0E0NCIB3H_BC_cBh0_B2F_B43_NcNtBh0_7Escaped0E0EE0E0NcBhp_0E0NCIB5I_BC_BC_B2F_TNCIB5I_BC_BC_B2F_TNCINvB38_5valueBC_BC_BC_B2F_NCINvBfZ_3tagBC_BC_B2F_E0E0BlK_BlK_BlK_BlK_BlK_BlK_EE0BlK_EE0Bhp_BC_cBf7_E0E0NvYB8O_INtNtBJ_7convert4FromBf3_E4fromE0B43_E0NCIB7o_BC_cB8O_cB2F_B43_NCIB3H_BC_Bf3_B8O_B2F_NCIB36_BC_Bf7_B2F_NCIBfX_BC_B2F_NCIBak_BC_BaF_B2F_NCIBhX_BC_cB2F_NCIB5I_BC_cB2F_TBiW_B43_EE0E0E0Bla_BC_BC_cBf7_E0E0Bnr_E0B43_E0EE0B43_E0EE0NcNtB1g_5Child0E0NCIB3H_BC_NtNtB1k_23nonnegative_array_index21NonNegativeArrayIndexB1g_B2F_NCIB7o_BC_cBrB_cB2F_B43_NCINvB38_7map_resBC_yBrB_B2F_NtNtB1k_5error15ArrayIndexErrorNCIBt4_BC_BC_yB2F_NtNtNtBJ_3num5error13ParseIntErrorNCIBt4_BC_BC_BC_B2F_Btu_INvB48_6digit1BC_B2F_ENCNvB1i_26length_limited_array_index0E0INvMNtBJ_3stre5parseyEE0NvYyINtBnB_7TryIntoBrB_E8try_intoE0B43_E0NcNtB1g_15ArrayIndexChild0E0NCIB3H_BC_cB1g_B2F_NCIB6O_BC_BC_cB2F_Bmc_NCIB5I_BC_cB2F_TB43_B7l_EE0E0NCNvB1i_28wildcard_descendant_selector0E0NCIB6O_BC_BC_B1g_B2F_Bmc_NCIB5I_BC_B1g_B2F_TNCIB3H_BC_B8O_B1g_B2F_NCIB5I_BC_B8O_B2F_TB9W_BdO_EE0NcNtB1g_10Descendant0E0NCIB3H_BC_BrB_B1g_B2F_BsD_NcNtB1g_20ArrayIndexDescendant0E0EE0E0EE0E0E0B1m_:
   37|  1.96k|  move |input: I| {
   38|  1.96k|    let (input, o1) = first.parse(input)?;
   39|  1.96k|    second.parse(input).map(|(i, o2)| (i, (o1, o2)))
   40|  1.96k|  }
_RINvNtCsijflsOnQTe0_3nom8sequence8precededRecNtNtNtCseKOJhBLZIbD_8rsonpath5query6parser12MemberStringINtNtB4_5error5ErrorBE_ENCINvNtNtB4_9character8complete4charBE_B1B_E0NCINvNtB4_10combinator3mapBE_BE_BH_B1B_NCINvB2N_9recognizeBE_TcINtNtCshJIxznpEM8j_5alloc3vec3VeccEEB1B_NCINvB2_4pairBE_cB3J_B1B_NCINvB2N_6verifyBE_ccB1B_INvB24_7anycharBE_B1B_ENCNvBJ_12member_first0E0NCINvNtB4_5multi5many0BE_cB1B_NCIB4P_BE_ccB1B_B5b_NCNvBJ_16member_character0E0E0E0E0NcNtBH_8Borrowed0E0EBN_:
   63|  1.96k|pub fn preceded<I, O1, O2, E: ParseError<I>, F, G>(
   64|  1.96k|  mut first: F,
   65|  1.96k|  mut second: G,
   66|  1.96k|) -> impl FnMut(I) -> IResult<I, O2, E>
   67|  1.96k|where
   68|  1.96k|  F: Parser<I, O1, E>,
   69|  1.96k|  G: Parser<I, O2, E>,
   70|  1.96k|{
   71|       |  move |input: I| {
   72|       |    let (input, _) = first.parse(input)?;
   73|       |    second.parse(input)
   74|       |  }
   75|  1.96k|}
_RINvNtCsijflsOnQTe0_3nom8sequence8precededReBE_NtNtNtCseKOJhBLZIbD_8rsonpath5query6parser5TokenINtNtB4_5error5ErrorBE_ENCINvNtNtB4_5bytes8complete3tagBE_BE_B1v_E0NCINvNtB4_6branch3altBE_BJ_B1v_TNCINvNtB4_10combinator3mapBE_NtBL_12MemberStringBJ_B1v_NCIB2D_BE_B3z_B1v_TNCIB39_BE_BE_B3z_B1v_NCINvB3b_9recognizeBE_TcINtNtCshJIxznpEM8j_5alloc3vec3VeccEEB1v_NCINvB2_4pairBE_cB51_B1v_NCINvB3b_6verifyBE_ccB1v_INvNtNtB4_9character8complete7anycharBE_B1v_ENCNvBL_12member_first0E0NCINvNtB4_5multi5many0BE_cB1v_NCIB67_BE_ccB1v_B6t_NCNvBL_16member_character0E0E0E0E0NcNtB3z_8Borrowed0E0NCINvB2_9delimitedBE_cB3z_cB1v_NCINvB6w_4charBE_B1v_E0NCIB2D_BE_B3z_B1v_TNCIB9j_BE_cB3z_cB1v_B9L_NCIB39_BE_INtNtCslATUeuPuGvJ_4core6option6OptionNtNtB56_6string6StringEB3z_B1v_NCINvB3b_3optBE_BbB_B1v_NCINvB1Y_17escaped_transformBE_B1v_NCIB39_BE_IB52_NtBL_16MaybeEscapedCharENtBL_19MaybeEscapedCharVecB1v_NCINvB7F_5many1BE_Bdi_B1v_NCIB2D_BE_Bdi_B1v_TNCIB39_BE_cBdi_B1v_NCIB67_BE_ccB1v_NCINvB6w_7none_ofBE_BE_B1v_E0NCNvBL_9unescaped0E0NcNtBdi_4Char0E0NCIB39_BE_cBdi_B1v_B9L_NcNtBdi_7Escaped0E0EE0E0NcBdG_0E0NCIB2D_BE_BE_B1v_TNCIB2D_BE_BE_B1v_TNCINvB3b_5valueBE_BE_BE_B1v_B1T_E0BhZ_BhZ_BhZ_BhZ_BhZ_BhZ_EE0BhZ_EE0BdG_BE_cBbB_E0E0NvYB3z_INtNtBb4_7convert4FromBaZ_E4fromE0B9L_E0NCIB9j_BE_cB3z_cB1v_B9L_NCIB39_BE_BaZ_B3z_B1v_NCIBc9_BE_BbB_B1v_NCIBcx_BE_B1v_NCIB4G_BE_B51_B1v_NCIBed_BE_cB1v_NCIB2D_BE_cB1v_TBfc_B9L_EE0E0E0Bhp_BE_BE_cBbB_E0E0Bjl_E0B9L_E0EE0B9L_E0EE0NcNtBJ_10Descendant0E0NCIB39_BE_NtNtBN_23nonnegative_array_index21NonNegativeArrayIndexBJ_B1v_NCIB9j_BE_cBnB_cB1v_B9L_NCINvB3b_7map_resBE_yBnB_B1v_NtNtBN_5error15ArrayIndexErrorNCIBp2_BE_BE_yB1v_NtNtNtBb4_3num5error13ParseIntErrorNCIBp2_BE_BE_BE_B1v_Bps_INvB6w_6digit1BE_B1v_ENCNvBL_26length_limited_array_index0E0INvMNtBb4_3stre5parseyEE0NvYyINtBjv_7TryIntoBnB_E8try_intoE0B9L_E0NcNtBJ_20ArrayIndexDescendant0E0EE0EBP_:
   63|  1.96k|pub fn preceded<I, O1, O2, E: ParseError<I>, F, G>(
   64|  1.96k|  mut first: F,
   65|  1.96k|  mut second: G,
   66|  1.96k|) -> impl FnMut(I) -> IResult<I, O2, E>
   67|  1.96k|where
   68|  1.96k|  F: Parser<I, O1, E>,
   69|  1.96k|  G: Parser<I, O2, E>,
   70|  1.96k|{
   71|       |  move |input: I| {
   72|       |    let (input, _) = first.parse(input)?;
   73|       |    second.parse(input)
   74|       |  }
   75|  1.96k|}
_RNCINvNtCsijflsOnQTe0_3nom8sequence9delimitedRecNtNtNtCseKOJhBLZIbD_8rsonpath5query23nonnegative_array_index21NonNegativeArrayIndexcINtNtB6_5error5ErrorBH_ENCINvNtNtB6_9character8complete4charBH_B26_E0NCINvNtB6_10combinator7map_resBH_yBK_B26_NtNtBO_5error15ArrayIndexErrorNCIB3g_BH_BH_yB26_NtNtNtCslATUeuPuGvJ_4core3num5error13ParseIntErrorNCIB3g_BH_BH_BH_B26_B3S_INvB2z_6digit1BH_B26_ENCNvNtBO_6parser26length_limited_array_index0E0INvMNtB4K_3stre5parseyEE0NvYyINtNtB4K_7convert7TryIntoBK_E8try_intoE0B2u_E0BQ_:
  182|  3.92k|  move |input: I| {
  183|  3.92k|    let (input, _) = first.parse(input)?;
  184|      0|    let (input, o2) = second.parse(input)?;
  185|      0|    third.parse(input).map(|(i, _)| (i, o2))
  186|  3.92k|  }
_RNCINvNtCsijflsOnQTe0_3nom8sequence8precededReBG_NtNtNtCseKOJhBLZIbD_8rsonpath5query6parser5TokenINtNtB6_5error5ErrorBG_ENCINvNtNtB6_5bytes8complete3tagBG_BG_B1x_E0NCINvNtB6_6branch3altBG_BL_B1x_TNCINvNtB6_10combinator3mapBG_NtBN_12MemberStringBL_B1x_NCIB2F_BG_B3B_B1x_TNCIB3b_BG_BG_B3B_B1x_NCINvB3d_9recognizeBG_TcINtNtCshJIxznpEM8j_5alloc3vec3VeccEEB1x_NCINvB4_4pairBG_cB53_B1x_NCINvB3d_6verifyBG_ccB1x_INvNtNtB6_9character8complete7anycharBG_B1x_ENCNvBN_12member_first0E0NCINvNtB6_5multi5many0BG_cB1x_NCIB69_BG_ccB1x_B6v_NCNvBN_16member_character0E0E0E0E0NcNtB3B_8Borrowed0E0NCINvB4_9delimitedBG_cB3B_cB1x_NCINvB6y_4charBG_B1x_E0NCIB2F_BG_B3B_B1x_TNCIB9l_BG_cB3B_cB1x_B9N_NCIB3b_BG_INtNtCslATUeuPuGvJ_4core6option6OptionNtNtB58_6string6StringEB3B_B1x_NCINvB3d_3optBG_BbD_B1x_NCINvB20_17escaped_transformBG_B1x_NCIB3b_BG_IB54_NtBN_16MaybeEscapedCharENtBN_19MaybeEscapedCharVecB1x_NCINvB7H_5many1BG_Bdk_B1x_NCIB2F_BG_Bdk_B1x_TNCIB3b_BG_cBdk_B1x_NCIB69_BG_ccB1x_NCINvB6y_7none_ofBG_BG_B1x_E0NCNvBN_9unescaped0E0NcNtBdk_4Char0E0NCIB3b_BG_cBdk_B1x_B9N_NcNtBdk_7Escaped0E0EE0E0NcBdI_0E0NCIB2F_BG_BG_B1x_TNCIB2F_BG_BG_B1x_TNCINvB3d_5valueBG_BG_BG_B1x_B1V_E0Bi1_Bi1_Bi1_Bi1_Bi1_Bi1_EE0Bi1_EE0BdI_BG_cBbD_E0E0NvYB3B_INtNtBb6_7convert4FromBb1_E4fromE0B9N_E0NCIB9l_BG_cB3B_cB1x_B9N_NCIB3b_BG_Bb1_B3B_B1x_NCIBcb_BG_BbD_B1x_NCIBcz_BG_B1x_NCIB4I_BG_B53_B1x_NCIBef_BG_cB1x_NCIB2F_BG_cB1x_TBfe_B9N_EE0E0E0Bhr_BG_BG_cBbD_E0E0Bjn_E0B9N_E0EE0B9N_E0EE0NcNtBL_10Descendant0E0NCIB3b_BG_NtNtBP_23nonnegative_array_index21NonNegativeArrayIndexBL_B1x_NCIB9l_BG_cBnD_cB1x_B9N_NCINvB3d_7map_resBG_yBnD_B1x_NtNtBP_5error15ArrayIndexErrorNCIBp4_BG_BG_yB1x_NtNtNtBb6_3num5error13ParseIntErrorNCIBp4_BG_BG_BG_B1x_Bpu_INvB6y_6digit1BG_B1x_ENCNvBN_26length_limited_array_index0E0INvMNtBb6_3stre5parseyEE0NvYyINtBjx_7TryIntoBnD_E8try_intoE0B9N_E0NcNtBL_20ArrayIndexDescendant0E0EE0E0BR_:
   71|  1.96k|  move |input: I| {
   72|  1.96k|    let (input, _) = first.parse(input)?;
   73|      0|    second.parse(input)
   74|  1.96k|  }
_RINvNtCsijflsOnQTe0_3nom8sequence8precededReBE_cINtNtB4_5error5ErrorBE_ENCINvNtNtB4_5bytes8complete3tagBE_BE_BK_E0NCINvNtB4_6branch3altBE_cBK_TNCINvNtNtB4_9character8complete4charBE_BK_E0NCINvB2_9delimitedBE_cccBK_B2h_B2h_B2h_E0EE0ECseKOJhBLZIbD_8rsonpath:
   63|  1.96k|pub fn preceded<I, O1, O2, E: ParseError<I>, F, G>(
   64|  1.96k|  mut first: F,
   65|  1.96k|  mut second: G,
   66|  1.96k|) -> impl FnMut(I) -> IResult<I, O2, E>
   67|  1.96k|where
   68|  1.96k|  F: Parser<I, O1, E>,
   69|  1.96k|  G: Parser<I, O2, E>,
   70|  1.96k|{
   71|       |  move |input: I| {
   72|       |    let (input, _) = first.parse(input)?;
   73|       |    second.parse(input)
   74|       |  }
   75|  1.96k|}
_RINvNtCsijflsOnQTe0_3nom8sequence9delimitedRecNtNtNtCseKOJhBLZIbD_8rsonpath5query6parser12MemberStringcINtNtB4_5error5ErrorBF_ENCINvNtNtB4_9character8complete4charBF_B1D_E0NCINvNtB4_10combinator3mapBF_INtNtCslATUeuPuGvJ_4core6option6OptionNtNtCshJIxznpEM8j_5alloc6string6StringEBI_B1D_NCINvB2P_3optBF_B3P_B1D_NCINvNtNtB4_5bytes8complete17escaped_transformBF_B1D_NCIB2N_BF_INtNtB3T_3vec3VecNtBK_16MaybeEscapedCharENtBK_19MaybeEscapedCharVecB1D_NCINvNtB4_5multi5many1BF_B6f_B1D_NCINvNtB4_6branch3altBF_B6f_B1D_TNCIB2N_BF_cB6f_B1D_NCINvB2P_6verifyBF_ccB1D_NCINvB26_7none_ofBF_BF_B1D_E0NCNvBK_9unescaped0E0NcNtB6f_4Char0E0NCIB2N_BF_cB6f_B1D_B21_NcNtB6f_7Escaped0E0EE0E0NcB6D_0E0NCIB7H_BF_BF_B1D_TNCIB7H_BF_BF_B1D_TNCINvB2P_5valueBF_BF_BF_B1D_NCINvB52_3tagBF_BF_B1D_E0E0Bbq_Bbq_Bbq_Bbq_Bbq_Bbq_EE0Bbq_EE0B6D_BF_cB3P_E0E0NvYBI_INtNtB3i_7convert4FromB3d_E4fromE0B21_EBO_:
  172|  3.92k|pub fn delimited<I, O1, O2, O3, E: ParseError<I>, F, G, H>(
  173|  3.92k|  mut first: F,
  174|  3.92k|  mut second: G,
  175|  3.92k|  mut third: H,
  176|  3.92k|) -> impl FnMut(I) -> IResult<I, O2, E>
  177|  3.92k|where
  178|  3.92k|  F: Parser<I, O1, E>,
  179|  3.92k|  G: Parser<I, O2, E>,
  180|  3.92k|  H: Parser<I, O3, E>,
  181|  3.92k|{
  182|       |  move |input: I| {
  183|       |    let (input, _) = first.parse(input)?;
  184|       |    let (input, o2) = second.parse(input)?;
  185|       |    third.parse(input).map(|(i, _)| (i, o2))
  186|       |  }
  187|  3.92k|}
_RNCINvNtCsijflsOnQTe0_3nom8sequence8precededRecNtNtNtCseKOJhBLZIbD_8rsonpath5query6parser12MemberStringINtNtB6_5error5ErrorBG_ENCINvNtNtB6_9character8complete4charBG_B1D_E0NCINvNtB6_10combinator3mapBG_BG_BJ_B1D_NCINvB2P_9recognizeBG_TcINtNtCshJIxznpEM8j_5alloc3vec3VeccEEB1D_NCINvB4_4pairBG_cB3L_B1D_NCINvB2P_6verifyBG_ccB1D_INvB26_7anycharBG_B1D_ENCNvBL_12member_first0E0NCINvNtB6_5multi5many0BG_cB1D_NCIB4R_BG_ccB1D_B5d_NCNvBL_16member_character0E0E0E0E0NcNtBJ_8Borrowed0E0E0BP_:
   71|  3.92k|  move |input: I| {
   72|  3.92k|    let (input, _) = first.parse(input)?;
   73|  1.96k|    second.parse(input)
   74|  3.92k|  }

_RNvXsf_NtCsijflsOnQTe0_3nom6traitsReNtB5_9InputIter12iter_indicesCseKOJhBLZIbD_8rsonpath:
  382|  1.96k|  fn iter_indices(&self) -> Self::Iter {
  383|  1.96k|    self.char_indices()
  384|  1.96k|  }
_RNvXs_NtCsijflsOnQTe0_3nom6traitsReNtB4_11InputLength9input_lenCseKOJhBLZIbD_8rsonpath:
   33|  11.7k|  fn input_len(&self) -> usize {
   34|  11.7k|    self.len()
   35|  11.7k|  }
_RNvXsb_NtCsijflsOnQTe0_3nom6traitscNtB5_6AsChar7as_charCseKOJhBLZIbD_8rsonpath:
  241|  17.6k|  fn as_char(self) -> char {
  242|  17.6k|    self
  243|  17.6k|  }
_RNvXsg_NtCsijflsOnQTe0_3nom6traitsReNtB5_9InputTake10take_splitCseKOJhBLZIbD_8rsonpath:
  424|  1.96k|  fn take_split(&self, count: usize) -> (Self, Self) {
  425|  1.96k|    let (prefix, suffix) = self.split_at(count);
  426|  1.96k|    (suffix, prefix)
  427|  1.96k|  }
_RNvXsf_NtCsijflsOnQTe0_3nom6traitsReNtB5_9InputIter13iter_elementsCseKOJhBLZIbD_8rsonpath:
  386|  25.4k|  fn iter_elements(&self) -> Self::IterElem {
  387|  25.4k|    self.chars()
  388|  25.4k|  }
_RNvXsc_NtCsijflsOnQTe0_3nom6traitsRcNtB5_6AsChar3lenCseKOJhBLZIbD_8rsonpath:
  296|  7.84k|  fn len(self) -> usize {
  297|  7.84k|    self.len_utf8()
  298|  7.84k|  }
_RNvXs5_NtCsijflsOnQTe0_3nom6traitsReNtB5_7AsBytes8as_bytes:
   97|  5.88k|  fn as_bytes(&self) -> &[u8] {
   98|  5.88k|    (*self).as_bytes()
   99|  5.88k|  }
_RNCNvXsk_NtCsijflsOnQTe0_3nom6traitsRShINtB7_7CompareBy_E7compare0CseKOJhBLZIbD_8rsonpath:
  740|  3.92k|    let pos = self.iter().zip(t.iter()).position(|(a, b)| a != b);
_RNvXsc_NtCsijflsOnQTe0_3nom6traitsRcNtB5_6AsChar7as_charCseKOJhBLZIbD_8rsonpath:
  272|  7.84k|  fn as_char(self) -> char {
  273|  7.84k|    *self
  274|  7.84k|  }
_RNvXsk_NtCsijflsOnQTe0_3nom6traitsRShINtB5_7CompareBw_E7compare:
  739|  5.88k|  fn compare(&self, t: &'b [u8]) -> CompareResult {
  740|  5.88k|    let pos = self.iter().zip(t.iter()).position(|(a, b)| a != b);
  741|  5.88k|
  742|  5.88k|    match pos {
  743|      0|      Some(_) => CompareResult::Error,
  744|       |      None => {
  745|  5.88k|        if self.len() >= t.len() {
  746|  1.96k|          CompareResult::Ok
  747|       |        } else {
  748|  3.92k|          CompareResult::Incomplete
  749|       |        }
  750|       |      }
  751|       |    }
  752|       |
  753|       |    /*
  754|       |    let len = self.len();
  755|       |    let blen = t.len();
  756|       |    let m = if len < blen { len } else { blen };
  757|       |    let reduced = &self[..m];
  758|       |    let b = &t[..m];
  759|       |
  760|       |    if reduced != b {
  761|       |      CompareResult::Error
  762|       |    } else if m < blen {
  763|       |      CompareResult::Incomplete
  764|       |    } else {
  765|       |      CompareResult::Ok
  766|       |    }
  767|       |    */
  768|  5.88k|  }
_RNvXsb_NtCsijflsOnQTe0_3nom6traitscNtB5_6AsChar8is_alphaCseKOJhBLZIbD_8rsonpath:
  245|  1.96k|  fn is_alpha(self) -> bool {
  246|  1.96k|    self.is_ascii_alphabetic()
  247|  1.96k|  }
_RNvXsn_NtCsijflsOnQTe0_3nom6traitsReINtB5_7CompareBw_E7compare:
  839|  5.88k|  fn compare(&self, t: &'b str) -> CompareResult {
  840|  5.88k|    self.as_bytes().compare(t.as_bytes())
  841|  5.88k|  }
_RNvXs24_NtCsijflsOnQTe0_3nom6traitsReINtB6_5SliceINtNtNtCslATUeuPuGvJ_4core3ops5range9RangeFromjEE5slice:
 1013|  9.80k|    fn slice(&self, range: $ty) -> Self {
 1014|  9.80k|      &self[range]
 1015|  9.80k|    }

_RNvMs2_NtCs5dLr1ro1CwM_9once_cell3impINtB5_8OnceCellNtNtCshJIxznpEM8j_5alloc6string6StringE14is_initializedCs9kGaKDyuozi_20fuzz_arbitrary_bytes:
   49|  1.96k|    pub(crate) fn is_initialized(&self) -> bool {
   50|  1.96k|        // An `Acquire` load is enough because that makes all the initialization
   51|  1.96k|        // operations visible to us, and, this being a fast path, weaker
   52|  1.96k|        // ordering helps with performance. This `Acquire` synchronizes with
   53|  1.96k|        // `SeqCst` operations on the slow path.
   54|  1.96k|        self.queue.load(Ordering::Acquire) == COMPLETE_PTR
   55|  1.96k|    }

_RNvMs4_NtCs5dLr1ro1CwM_9once_cell4syncINtB5_8OnceCellNtNtCshJIxznpEM8j_5alloc6string6StringE3getCs9kGaKDyuozi_20fuzz_arbitrary_bytes:
  965|  1.96k|        pub fn get(&self) -> Option<&T> {
  966|  1.96k|            if self.0.is_initialized() {
  967|       |                // Safe b/c value is initialized.
  968|      0|                Some(unsafe { self.get_unchecked() })
  969|       |            } else {
  970|  1.96k|                None
  971|       |            }
  972|  1.96k|        }

_RNvMsc_Cs6kHoXNINp0J_8smallvecINtB5_8SmallVecANtNtNtCseKOJhBLZIbD_8rsonpath6engine4main10StackFramej80_E8try_growCs9kGaKDyuozi_20fuzz_arbitrary_bytes:
 1178|     52|    pub fn try_grow(&mut self, new_cap: usize) -> Result<(), CollectionAllocErr> {
 1179|     52|        unsafe {
 1180|     52|            let unspilled = !self.spilled();
 1181|     52|            let (ptr, &mut len, cap) = self.triple_mut();
 1182|     52|            assert!(new_cap >= len);
 1183|     52|            if new_cap <= Self::inline_capacity() {
 1184|      0|                if unspilled {
 1185|      0|                    return Ok(());
 1186|      0|                }
 1187|      0|                self.data = SmallVecData::from_inline(MaybeUninit::uninit());
 1188|      0|                ptr::copy_nonoverlapping(ptr.as_ptr(), self.data.inline_mut().as_ptr(), len);
 1189|      0|                self.capacity = len;
 1190|      0|                deallocate(ptr, cap);
 1191|     52|            } else if new_cap != cap {
 1192|     52|                let layout = layout_array::<A::Item>(new_cap)?;
 1193|     52|                debug_assert!(layout.size() > 0);
 1194|       |                let new_alloc;
 1195|     52|                if unspilled {
 1196|     52|                    new_alloc = NonNull::new(alloc::alloc::alloc(layout))
 1197|     52|                        .ok_or(CollectionAllocErr::AllocErr { layout })?
 1198|     52|                        .cast();
 1199|     52|                    ptr::copy_nonoverlapping(ptr.as_ptr(), new_alloc.as_ptr(), len);
 1200|       |                } else {
 1201|       |                    // This should never fail since the same succeeded
 1202|       |                    // when previously allocating `ptr`.
 1203|      0|                    let old_layout = layout_array::<A::Item>(cap)?;
 1204|       |
 1205|      0|                    let new_ptr =
 1206|      0|                        alloc::alloc::realloc(ptr.as_ptr() as *mut u8, old_layout, layout.size());
 1207|      0|                    new_alloc = NonNull::new(new_ptr)
 1208|      0|                        .ok_or(CollectionAllocErr::AllocErr { layout })?
 1209|      0|                        .cast();
 1210|       |                }
 1211|     52|                self.data = SmallVecData::from_heap(new_alloc, len);
 1212|     52|                self.capacity = new_cap;
 1213|      0|            }
 1214|     52|            Ok(())
 1215|       |        }
 1216|     52|    }
_RNvMsc_Cs6kHoXNINp0J_8smallvecINtB5_8SmallVecATNtNtNtCseKOJhBLZIbD_8rsonpath5query9automaton15TransitionLabelNtNtBL_5state5StateEj2_E10triple_mutCs9kGaKDyuozi_20fuzz_arbitrary_bytes:
  988|  5.88k|    fn triple_mut(&mut self) -> (NonNull<A::Item>, &mut usize, usize) {
  989|  5.88k|        unsafe {
  990|  5.88k|            if self.spilled() {
  991|      0|                let (ptr, len_ptr) = self.data.heap_mut();
  992|      0|                (ptr, len_ptr, self.capacity)
  993|       |            } else {
  994|  5.88k|                (
  995|  5.88k|                    self.data.inline_mut(),
  996|  5.88k|                    &mut self.capacity,
  997|  5.88k|                    Self::inline_capacity(),
  998|  5.88k|                )
  999|       |            }
 1000|       |        }
 1001|  5.88k|    }
_RNvMsc_Cs6kHoXNINp0J_8smallvecINtB5_8SmallVecANtNtNtCseKOJhBLZIbD_8rsonpath6engine4main10StackFramej80_E3lenCs9kGaKDyuozi_20fuzz_arbitrary_bytes:
  956|    104|    pub fn len(&self) -> usize {
  957|    104|        self.triple().1
  958|    104|    }
_RNvXsv_Cs6kHoXNINp0J_8smallvecINtB5_8SmallVecATNtNtNtCseKOJhBLZIbD_8rsonpath5query9automaton15TransitionLabelNtNtBL_5state5StateEj2_ENtNtNtCslATUeuPuGvJ_4core3ops4drop4Drop4dropCs9kGaKDyuozi_20fuzz_arbitrary_bytes:
 2123|  5.88k|    fn drop(&mut self) {
 2124|  5.88k|        unsafe {
 2125|  5.88k|            if self.spilled() {
 2126|      0|                let (ptr, &mut len) = self.data.heap_mut();
 2127|      0|                drop(Vec::from_raw_parts(ptr.as_ptr(), len, self.capacity));
 2128|  5.88k|            } else {
 2129|  5.88k|                ptr::drop_in_place(&mut self[..]);
 2130|  5.88k|            }
 2131|       |        }
 2132|  5.88k|    }
_RNvXsv_Cs6kHoXNINp0J_8smallvecINtB5_8SmallVecANtNtNtCseKOJhBLZIbD_8rsonpath6engine4main10StackFramej80_ENtNtNtCslATUeuPuGvJ_4core3ops4drop4Drop4dropCs9kGaKDyuozi_20fuzz_arbitrary_bytes:
 2123|  1.96k|    fn drop(&mut self) {
 2124|  1.96k|        unsafe {
 2125|  1.96k|            if self.spilled() {
 2126|     52|                let (ptr, &mut len) = self.data.heap_mut();
 2127|     52|                drop(Vec::from_raw_parts(ptr.as_ptr(), len, self.capacity));
 2128|  1.90k|            } else {
 2129|  1.90k|                ptr::drop_in_place(&mut self[..]);
 2130|  1.90k|            }
 2131|       |        }
 2132|  1.96k|    }
_RNvMsR_Cs6kHoXNINp0J_8smallvecINtB5_12ConstNonNullNtNtNtCseKOJhBLZIbD_8rsonpath6engine4main10StackFrameE6as_ptrCs9kGaKDyuozi_20fuzz_arbitrary_bytes:
 2451|  5.27k|    fn as_ptr(self) -> *const T {
 2452|  5.27k|        self.0.as_ptr()
 2453|  5.27k|    }
_RNvMsc_Cs6kHoXNINp0J_8smallvecINtB5_8SmallVecATNtNtNtCseKOJhBLZIbD_8rsonpath5query9automaton15TransitionLabelNtNtBL_5state5StateEj2_E6tripleCs9kGaKDyuozi_20fuzz_arbitrary_bytes:
  975|  72.3k|    fn triple(&self) -> (ConstNonNull<A::Item>, usize, usize) {
  976|  72.3k|        unsafe {
  977|  72.3k|            if self.spilled() {
  978|      0|                let (ptr, len) = self.data.heap();
  979|      0|                (ptr, len, self.capacity)
  980|       |            } else {
  981|  72.3k|                (self.data.inline(), self.capacity, Self::inline_capacity())
  982|       |            }
  983|       |        }
  984|  72.3k|    }
_RNvMsc_Cs6kHoXNINp0J_8smallvecINtB5_8SmallVecANtNtNtCseKOJhBLZIbD_8rsonpath6engine4main10StackFramej80_E4pushCs9kGaKDyuozi_20fuzz_arbitrary_bytes:
 1119|  22.8k|    pub fn push(&mut self, value: A::Item) {
 1120|  22.8k|        unsafe {
 1121|  22.8k|            let (mut ptr, mut len, cap) = self.triple_mut();
 1122|  22.8k|            if *len == cap {
 1123|     52|                self.reserve_one_unchecked();
 1124|     52|                let (heap_ptr, heap_len) = self.data.heap_mut();
 1125|     52|                ptr = heap_ptr;
 1126|     52|                len = heap_len;
 1127|  22.7k|            }
 1128|  22.8k|            ptr::write(ptr.as_ptr().add(*len), value);
 1129|  22.8k|            *len += 1;
 1130|  22.8k|        }
 1131|  22.8k|    }
_RNvMsc_Cs6kHoXNINp0J_8smallvecINtB5_8SmallVecANtNtNtCseKOJhBLZIbD_8rsonpath6engine4main10StackFramej80_E8capacityCs9kGaKDyuozi_20fuzz_arbitrary_bytes:
  968|     52|    pub fn capacity(&self) -> usize {
  969|     52|        self.triple().2
  970|     52|    }
_RNvXsX_Cs6kHoXNINp0J_8smallvecATNtNtNtCseKOJhBLZIbD_8rsonpath5query9automaton15TransitionLabelNtNtBw_5state5StateEj2_NtB5_5Array4sizeCs9kGaKDyuozi_20fuzz_arbitrary_bytes:
 2412|   162k|                fn size() -> usize { $size }
_RNvMsc_Cs6kHoXNINp0J_8smallvecINtB5_8SmallVecATNtNtNtCseKOJhBLZIbD_8rsonpath5query9automaton15TransitionLabelNtNtBL_5state5StateEj2_E7spilledCs9kGaKDyuozi_20fuzz_arbitrary_bytes:
 1005|  84.1k|    pub fn spilled(&self) -> bool {
 1006|  84.1k|        self.capacity > Self::inline_capacity()
 1007|  84.1k|    }
_RNvMsc_Cs6kHoXNINp0J_8smallvecINtB5_8SmallVecANtNtNtCseKOJhBLZIbD_8rsonpath6engine4main10StackFramej80_E7spilledCs9kGaKDyuozi_20fuzz_arbitrary_bytes:
 1005|  37.4k|    pub fn spilled(&self) -> bool {
 1006|  37.4k|        self.capacity > Self::inline_capacity()
 1007|  37.4k|    }
_RNvMsc_Cs6kHoXNINp0J_8smallvecINtB5_8SmallVecANtNtNtCseKOJhBLZIbD_8rsonpath6engine4main10StackFramej80_E15inline_capacityCs9kGaKDyuozi_20fuzz_arbitrary_bytes:
  930|  68.3k|    fn inline_capacity() -> usize {
  931|  68.3k|        if mem::size_of::<A::Item>() > 0 {
  932|  68.3k|            A::size()
  933|       |        } else {
  934|       |            // For zero-size items code like `ptr.add(offset)` always returns the same pointer.
  935|       |            // Therefore all items are at the same address,
  936|       |            // and any array size has capacity for infinitely many items.
  937|       |            // The capacity is limited by the bit width of the length field.
  938|       |            //
  939|       |            // `Vec` also does this:
  940|       |            // https://github.com/rust-lang/rust/blob/1.44.0/src/liballoc/raw_vec.rs#L186
  941|       |            //
  942|       |            // In our case, this also ensures that a smallvec of zero-size items never spills,
  943|       |            // and we never try to allocate zero bytes which `std::alloc::alloc` disallows.
  944|      0|            core::usize::MAX
  945|       |        }
  946|  68.3k|    }
_RNvMsc_Cs6kHoXNINp0J_8smallvecINtB5_8SmallVecATNtNtNtCseKOJhBLZIbD_8rsonpath5query9automaton15TransitionLabelNtNtBL_5state5StateEj2_E15inline_capacityCs9kGaKDyuozi_20fuzz_arbitrary_bytes:
  930|   162k|    fn inline_capacity() -> usize {
  931|   162k|        if mem::size_of::<A::Item>() > 0 {
  932|   162k|            A::size()
  933|       |        } else {
  934|       |            // For zero-size items code like `ptr.add(offset)` always returns the same pointer.
  935|       |            // Therefore all items are at the same address,
  936|       |            // and any array size has capacity for infinitely many items.
  937|       |            // The capacity is limited by the bit width of the length field.
  938|       |            //
  939|       |            // `Vec` also does this:
  940|       |            // https://github.com/rust-lang/rust/blob/1.44.0/src/liballoc/raw_vec.rs#L186
  941|       |            //
  942|       |            // In our case, this also ensures that a smallvec of zero-size items never spills,
  943|       |            // and we never try to allocate zero bytes which `std::alloc::alloc` disallows.
  944|      0|            core::usize::MAX
  945|       |        }
  946|   162k|    }
_RNvMsc_Cs6kHoXNINp0J_8smallvecINtB5_8SmallVecANtNtNtCseKOJhBLZIbD_8rsonpath6engine4main10StackFramej80_E3popCs9kGaKDyuozi_20fuzz_arbitrary_bytes:
 1135|  5.23k|    pub fn pop(&mut self) -> Option<A::Item> {
 1136|  5.23k|        unsafe {
 1137|  5.23k|            let (ptr, len_ptr, _) = self.triple_mut();
 1138|  5.23k|            let ptr: *const _ = ptr.as_ptr();
 1139|  5.23k|            if *len_ptr == 0 {
 1140|      0|                return None;
 1141|  5.23k|            }
 1142|  5.23k|            let last_index = *len_ptr - 1;
 1143|  5.23k|            *len_ptr = last_index;
 1144|  5.23k|            Some(ptr::read(ptr.add(last_index)))
 1145|       |        }
 1146|  5.23k|    }
_RNvMs9_Cs6kHoXNINp0J_8smallvecINtB5_12SmallVecDataANtNtNtCseKOJhBLZIbD_8rsonpath6engine4main10StackFramej80_E6inlineCs9kGaKDyuozi_20fuzz_arbitrary_bytes:
  641|  4.82k|    unsafe fn inline(&self) -> ConstNonNull<A::Item> {
  642|  4.82k|        ConstNonNull::new(self.inline.as_ptr() as *const A::Item).unwrap()
  643|  4.82k|    }
_RNvMs9_Cs6kHoXNINp0J_8smallvecINtB5_12SmallVecDataATNtNtNtCseKOJhBLZIbD_8rsonpath5query9automaton15TransitionLabelNtNtBQ_5state5StateEj2_E6inlineCs9kGaKDyuozi_20fuzz_arbitrary_bytes:
  641|  72.3k|    unsafe fn inline(&self) -> ConstNonNull<A::Item> {
  642|  72.3k|        ConstNonNull::new(self.inline.as_ptr() as *const A::Item).unwrap()
  643|  72.3k|    }
_RNvXs1v_Cs6kHoXNINp0J_8smallvecANtNtNtCseKOJhBLZIbD_8rsonpath6engine4main10StackFramej80_NtB6_5Array4sizeCs9kGaKDyuozi_20fuzz_arbitrary_bytes:
 2412|  68.3k|                fn size() -> usize { $size }
_RNvXsf_Cs6kHoXNINp0J_8smallvecINtB5_8SmallVecATNtNtNtCseKOJhBLZIbD_8rsonpath5query9automaton15TransitionLabelNtNtBL_5state5StateEj2_ENtNtNtCslATUeuPuGvJ_4core3ops5deref5Deref5derefCs9kGaKDyuozi_20fuzz_arbitrary_bytes:
 1851|  72.3k|    fn deref(&self) -> &[A::Item] {
 1852|  72.3k|        unsafe {
 1853|  72.3k|            let (ptr, len, _) = self.triple();
 1854|  72.3k|            slice::from_raw_parts(ptr.as_ptr(), len)
 1855|  72.3k|        }
 1856|  72.3k|    }
_RNvMs9_Cs6kHoXNINp0J_8smallvecINtB5_12SmallVecDataANtNtNtCseKOJhBLZIbD_8rsonpath6engine4main10StackFramej80_E8heap_mutCs9kGaKDyuozi_20fuzz_arbitrary_bytes:
  663|  4.14k|    unsafe fn heap_mut(&mut self) -> (NonNull<A::Item>, &mut usize) {
  664|  4.14k|        let h = &mut self.heap;
  665|  4.14k|        (h.0, &mut h.1)
  666|  4.14k|    }
_RNvXsg_Cs6kHoXNINp0J_8smallvecINtB5_8SmallVecATNtNtNtCseKOJhBLZIbD_8rsonpath5query9automaton15TransitionLabelNtNtBL_5state5StateEj2_ENtNtNtCslATUeuPuGvJ_4core3ops5deref8DerefMut9deref_mutCs9kGaKDyuozi_20fuzz_arbitrary_bytes:
 1861|  5.88k|    fn deref_mut(&mut self) -> &mut [A::Item] {
 1862|  5.88k|        unsafe {
 1863|  5.88k|            let (ptr, &mut len, _) = self.triple_mut();
 1864|  5.88k|            slice::from_raw_parts_mut(ptr.as_ptr(), len)
 1865|  5.88k|        }
 1866|  5.88k|    }
_RNvXsf_Cs6kHoXNINp0J_8smallvecINtB5_8SmallVecANtNtNtCseKOJhBLZIbD_8rsonpath6engine4main10StackFramej80_ENtNtNtCslATUeuPuGvJ_4core3ops5deref5Deref5derefCs9kGaKDyuozi_20fuzz_arbitrary_bytes:
 1851|  5.27k|    fn deref(&self) -> &[A::Item] {
 1852|  5.27k|        unsafe {
 1853|  5.27k|            let (ptr, len, _) = self.triple();
 1854|  5.27k|            slice::from_raw_parts(ptr.as_ptr(), len)
 1855|  5.27k|        }
 1856|  5.27k|    }
_RNvMsR_Cs6kHoXNINp0J_8smallvecINtB5_12ConstNonNullTNtNtNtCseKOJhBLZIbD_8rsonpath5query9automaton15TransitionLabelNtNtBP_5state5StateEE3newCs9kGaKDyuozi_20fuzz_arbitrary_bytes:
 2447|  72.3k|    fn new(ptr: *const T) -> Option<Self> {
 2448|  72.3k|        NonNull::new(ptr as *mut T).map(Self)
 2449|  72.3k|    }
_RNvMsc_Cs6kHoXNINp0J_8smallvecINtB5_8SmallVecANtNtNtCseKOJhBLZIbD_8rsonpath6engine4main10StackFramej80_E21reserve_one_uncheckedCs9kGaKDyuozi_20fuzz_arbitrary_bytes:
 1230|     52|    fn reserve_one_unchecked(&mut self) {
 1231|     52|        debug_assert_eq!(self.len(), self.capacity());
 1232|     52|        let new_cap = self.len()
 1233|     52|            .checked_add(1)
 1234|     52|            .and_then(usize::checked_next_power_of_two)
 1235|     52|            .expect("capacity overflow");
 1236|     52|        infallible(self.try_grow(new_cap))
 1237|     52|    }
_RINvCs6kHoXNINp0J_8smallvec10infallibleuECs9kGaKDyuozi_20fuzz_arbitrary_bytes:
  322|     52|fn infallible<T>(result: Result<T, CollectionAllocErr>) -> T {
  323|      0|    match result {
  324|     52|        Ok(x) => x,
  325|      0|        Err(CollectionAllocErr::CapacityOverflow) => panic!("capacity overflow"),
  326|      0|        Err(CollectionAllocErr::AllocErr { layout }) => alloc::alloc::handle_alloc_error(layout),
  327|       |    }
  328|     52|}
_RNvXsp_Cs6kHoXNINp0J_8smallvecINtB5_8SmallVecATNtNtNtCseKOJhBLZIbD_8rsonpath5query9automaton15TransitionLabelNtNtBL_5state5StateEj2_EINtNtNtCslATUeuPuGvJ_4core3ops5index8IndexMutNtNtB2c_5range9RangeFullE9index_mutCs9kGaKDyuozi_20fuzz_arbitrary_bytes:
 2041|  5.88k|    fn index_mut(&mut self, index: I) -> &mut I::Output {
 2042|  5.88k|        &mut (&mut **self)[index]
 2043|  5.88k|    }
_RNvMsR_Cs6kHoXNINp0J_8smallvecINtB5_12ConstNonNullNtNtNtCseKOJhBLZIbD_8rsonpath6engine4main10StackFrameE3newCs9kGaKDyuozi_20fuzz_arbitrary_bytes:
 2447|  4.82k|    fn new(ptr: *const T) -> Option<Self> {
 2448|  4.82k|        NonNull::new(ptr as *mut T).map(Self)
 2449|  4.82k|    }
_RNvMs9_Cs6kHoXNINp0J_8smallvecINtB5_12SmallVecDataANtNtNtCseKOJhBLZIbD_8rsonpath6engine4main10StackFramej80_E9from_heapCs9kGaKDyuozi_20fuzz_arbitrary_bytes:
  668|     52|    fn from_heap(ptr: NonNull<A::Item>, len: usize) -> SmallVecData<A> {
  669|     52|        SmallVecData { heap: (ptr, len) }
  670|     52|    }
_RNvMsR_Cs6kHoXNINp0J_8smallvecINtB5_12ConstNonNullTNtNtNtCseKOJhBLZIbD_8rsonpath5query9automaton15TransitionLabelNtNtBP_5state5StateEE6as_ptrCs9kGaKDyuozi_20fuzz_arbitrary_bytes:
 2451|  72.3k|    fn as_ptr(self) -> *const T {
 2452|  72.3k|        self.0.as_ptr()
 2453|  72.3k|    }
_RINvCs6kHoXNINp0J_8smallvec12layout_arrayNtNtNtCseKOJhBLZIbD_8rsonpath6engine4main10StackFrameECs9kGaKDyuozi_20fuzz_arbitrary_bytes:
  332|     52|fn layout_array<T>(n: usize) -> Result<Layout, CollectionAllocErr> {
  333|     52|    let size = mem::size_of::<T>()
  334|     52|        .checked_mul(n)
  335|     52|        .ok_or(CollectionAllocErr::CapacityOverflow)?;
  336|     52|    let align = mem::align_of::<T>();
  337|     52|    Layout::from_size_align(size, align).map_err(|_| CollectionAllocErr::CapacityOverflow)
  338|     52|}
_RNvMsc_Cs6kHoXNINp0J_8smallvecINtB5_8SmallVecANtNtNtCseKOJhBLZIbD_8rsonpath6engine4main10StackFramej80_E6tripleCs9kGaKDyuozi_20fuzz_arbitrary_bytes:
  975|  5.43k|    fn triple(&self) -> (ConstNonNull<A::Item>, usize, usize) {
  976|  5.43k|        unsafe {
  977|  5.43k|            if self.spilled() {
  978|    608|                let (ptr, len) = self.data.heap();
  979|    608|                (ptr, len, self.capacity)
  980|       |            } else {
  981|  4.82k|                (self.data.inline(), self.capacity, Self::inline_capacity())
  982|       |            }
  983|       |        }
  984|  5.43k|    }
_RNvMs9_Cs6kHoXNINp0J_8smallvecINtB5_12SmallVecDataATNtNtNtCseKOJhBLZIbD_8rsonpath5query9automaton15TransitionLabelNtNtBQ_5state5StateEj2_E10inline_mutCs9kGaKDyuozi_20fuzz_arbitrary_bytes:
  645|  5.88k|    unsafe fn inline_mut(&mut self) -> NonNull<A::Item> {
  646|  5.88k|        NonNull::new(self.inline.as_mut_ptr() as *mut A::Item).unwrap()
  647|  5.88k|    }
_RNvMs9_Cs6kHoXNINp0J_8smallvecINtB5_12SmallVecDataANtNtNtCseKOJhBLZIbD_8rsonpath6engine4main10StackFramej80_E10inline_mutCs9kGaKDyuozi_20fuzz_arbitrary_bytes:
  645|  25.9k|    unsafe fn inline_mut(&mut self) -> NonNull<A::Item> {
  646|  25.9k|        NonNull::new(self.inline.as_mut_ptr() as *mut A::Item).unwrap()
  647|  25.9k|    }
_RNvXsp_Cs6kHoXNINp0J_8smallvecINtB5_8SmallVecANtNtNtCseKOJhBLZIbD_8rsonpath6engine4main10StackFramej80_EINtNtNtCslATUeuPuGvJ_4core3ops5index8IndexMutNtNtB1J_5range9RangeFullE9index_mutCs9kGaKDyuozi_20fuzz_arbitrary_bytes:
 2041|  1.90k|    fn index_mut(&mut self, index: I) -> &mut I::Output {
 2042|  1.90k|        &mut (&mut **self)[index]
 2043|  1.90k|    }
_RNvXsg_Cs6kHoXNINp0J_8smallvecINtB5_8SmallVecANtNtNtCseKOJhBLZIbD_8rsonpath6engine4main10StackFramej80_ENtNtNtCslATUeuPuGvJ_4core3ops5deref8DerefMut9deref_mutCs9kGaKDyuozi_20fuzz_arbitrary_bytes:
 1861|  1.90k|    fn deref_mut(&mut self) -> &mut [A::Item] {
 1862|  1.90k|        unsafe {
 1863|  1.90k|            let (ptr, &mut len, _) = self.triple_mut();
 1864|  1.90k|            slice::from_raw_parts_mut(ptr.as_ptr(), len)
 1865|  1.90k|        }
 1866|  1.90k|    }
_RNvMs9_Cs6kHoXNINp0J_8smallvecINtB5_12SmallVecDataANtNtNtCseKOJhBLZIbD_8rsonpath6engine4main10StackFramej80_E4heapCs9kGaKDyuozi_20fuzz_arbitrary_bytes:
  659|    608|    unsafe fn heap(&self) -> (ConstNonNull<A::Item>, usize) {
  660|    608|        (ConstNonNull(self.heap.0), self.heap.1)
  661|    608|    }
_RNvMsc_Cs6kHoXNINp0J_8smallvecINtB5_8SmallVecANtNtNtCseKOJhBLZIbD_8rsonpath6engine4main10StackFramej80_E10triple_mutCs9kGaKDyuozi_20fuzz_arbitrary_bytes:
  988|  30.0k|    fn triple_mut(&mut self) -> (NonNull<A::Item>, &mut usize, usize) {
  989|  30.0k|        unsafe {
  990|  30.0k|            if self.spilled() {
  991|  4.03k|                let (ptr, len_ptr) = self.data.heap_mut();
  992|  4.03k|                (ptr, len_ptr, self.capacity)
  993|       |            } else {
  994|  25.9k|                (
  995|  25.9k|                    self.data.inline_mut(),
  996|  25.9k|                    &mut self.capacity,
  997|  25.9k|                    Self::inline_capacity(),
  998|  25.9k|                )
  999|       |            }
 1000|       |        }
 1001|  30.0k|    }
_RINvXsr_Cs6kHoXNINp0J_8smallvecINtB6_8SmallVecATNtNtNtCseKOJhBLZIbD_8rsonpath5query9automaton15TransitionLabelNtNtBM_5state5StateEj2_EINtNtNtNtCslATUeuPuGvJ_4core4iter6traits7collect12FromIteratorNtYBI_NtB6_5Array4ItemE9from_iterINtNtNtB2f_8adapters3map3MapINtCs8kGtPTKPY3N_10vector_map8IntoIterBK_NtNtBM_9small_set11SmallSet256ENCNvMNtBM_9minimizerNtB5m_9Minimizer18process_superstate0EEBQ_:
 2058|  3.92k|    fn from_iter<I: IntoIterator<Item = A::Item>>(iterable: I) -> SmallVec<A> {
 2059|  3.92k|        let mut v = SmallVec::new();
 2060|  3.92k|        v.extend(iterable);
 2061|  3.92k|        v
 2062|  3.92k|    }
_RNvMsc_Cs6kHoXNINp0J_8smallvecINtB5_8SmallVecANtNtNtNtCseKOJhBLZIbD_8rsonpath5query9automaton9small_set11SmallSet256j2_E3popBQ_:
 1135|  5.88k|    pub fn pop(&mut self) -> Option<A::Item> {
 1136|  5.88k|        unsafe {
 1137|  5.88k|            let (ptr, len_ptr, _) = self.triple_mut();
 1138|  5.88k|            let ptr: *const _ = ptr.as_ptr();
 1139|  5.88k|            if *len_ptr == 0 {
 1140|  1.96k|                return None;
 1141|  3.92k|            }
 1142|  3.92k|            let last_index = *len_ptr - 1;
 1143|  3.92k|            *len_ptr = last_index;
 1144|  3.92k|            Some(ptr::read(ptr.add(last_index)))
 1145|       |        }
 1146|  5.88k|    }
_RNvMsc_Cs6kHoXNINp0J_8smallvecINtB5_8SmallVecANtNtNtCseKOJhBLZIbD_8rsonpath6engine4main10StackFramej80_E15inline_capacityBO_:
  930|  1.96k|    fn inline_capacity() -> usize {
  931|  1.96k|        if mem::size_of::<A::Item>() > 0 {
  932|  1.96k|            A::size()
  933|       |        } else {
  934|       |            // For zero-size items code like `ptr.add(offset)` always returns the same pointer.
  935|       |            // Therefore all items are at the same address,
  936|       |            // and any array size has capacity for infinitely many items.
  937|       |            // The capacity is limited by the bit width of the length field.
  938|       |            //
  939|       |            // `Vec` also does this:
  940|       |            // https://github.com/rust-lang/rust/blob/1.44.0/src/liballoc/raw_vec.rs#L186
  941|       |            //
  942|       |            // In our case, this also ensures that a smallvec of zero-size items never spills,
  943|       |            // and we never try to allocate zero bytes which `std::alloc::alloc` disallows.
  944|      0|            core::usize::MAX
  945|       |        }
  946|  1.96k|    }
_RNvXs1v_Cs6kHoXNINp0J_8smallvecANtNtNtCseKOJhBLZIbD_8rsonpath6engine4main10StackFramej80_NtB6_5Array4sizeBA_:
 2412|  3.92k|                fn size() -> usize { $size }
_RNvXsu_Cs6kHoXNINp0J_8smallvecINtB5_8SmallVecATNtNtNtCseKOJhBLZIbD_8rsonpath5query9automaton15TransitionLabelNtNtBL_5state5StateEj2_ENtNtCslATUeuPuGvJ_4core7default7Default7defaultBP_:
 2102|  3.92k|    fn default() -> SmallVec<A> {
 2103|  3.92k|        SmallVec::new()
 2104|  3.92k|    }
_RNvXsv_Cs6kHoXNINp0J_8smallvecINtB5_8SmallVecATNtNtNtCseKOJhBLZIbD_8rsonpath5query9automaton15TransitionLabelNtNtBL_5state5StateEj2_ENtNtNtCslATUeuPuGvJ_4core3ops4drop4Drop4dropBP_:
 2123|  3.92k|    fn drop(&mut self) {
 2124|  3.92k|        unsafe {
 2125|  3.92k|            if self.spilled() {
 2126|      0|                let (ptr, &mut len) = self.data.heap_mut();
 2127|      0|                drop(Vec::from_raw_parts(ptr.as_ptr(), len, self.capacity));
 2128|  3.92k|            } else {
 2129|  3.92k|                ptr::drop_in_place(&mut self[..]);
 2130|  3.92k|            }
 2131|       |        }
 2132|  3.92k|    }
_RNvMsc_Cs6kHoXNINp0J_8smallvecINtB5_8SmallVecATNtNtNtCseKOJhBLZIbD_8rsonpath5query9automaton15TransitionLabelNtNtBL_5state5StateEj2_E15inline_capacityBP_:
  930|  37.2k|    fn inline_capacity() -> usize {
  931|  37.2k|        if mem::size_of::<A::Item>() > 0 {
  932|  37.2k|            A::size()
  933|       |        } else {
  934|       |            // For zero-size items code like `ptr.add(offset)` always returns the same pointer.
  935|       |            // Therefore all items are at the same address,
  936|       |            // and any array size has capacity for infinitely many items.
  937|       |            // The capacity is limited by the bit width of the length field.
  938|       |            //
  939|       |            // `Vec` also does this:
  940|       |            // https://github.com/rust-lang/rust/blob/1.44.0/src/liballoc/raw_vec.rs#L186
  941|       |            //
  942|       |            // In our case, this also ensures that a smallvec of zero-size items never spills,
  943|       |            // and we never try to allocate zero bytes which `std::alloc::alloc` disallows.
  944|      0|            core::usize::MAX
  945|       |        }
  946|  37.2k|    }
_RNvMsO_Cs6kHoXNINp0J_8smallvecNtB5_12SetLenOnDrop3newCseKOJhBLZIbD_8rsonpath:
 2343|  3.92k|    fn new(len: &'a mut usize) -> Self {
 2344|  3.92k|        SetLenOnDrop {
 2345|  3.92k|            local_len: *len,
 2346|  3.92k|            len,
 2347|  3.92k|        }
 2348|  3.92k|    }
_RNvMsc_Cs6kHoXNINp0J_8smallvecINtB5_8SmallVecANtNtNtNtCseKOJhBLZIbD_8rsonpath5query9automaton9small_set11SmallSet256j2_E11inline_sizeBQ_:
  950|  1.96k|    pub fn inline_size(&self) -> usize {
  951|  1.96k|        Self::inline_capacity()
  952|  1.96k|    }
_RNvXsP_Cs6kHoXNINp0J_8smallvecNtB5_12SetLenOnDropNtNtNtCslATUeuPuGvJ_4core3ops4drop4Drop4dropCseKOJhBLZIbD_8rsonpath:
 2363|  3.92k|    fn drop(&mut self) {
 2364|  3.92k|        *self.len = self.local_len;
 2365|  3.92k|    }
_RNvMsR_Cs6kHoXNINp0J_8smallvecINtB5_12ConstNonNullTNtNtNtCseKOJhBLZIbD_8rsonpath5query9automaton15TransitionLabelNtNtBP_5state5StateEE3newBT_:
 2447|  3.92k|    fn new(ptr: *const T) -> Option<Self> {
 2448|  3.92k|        NonNull::new(ptr as *mut T).map(Self)
 2449|  3.92k|    }
_RNvMsO_Cs6kHoXNINp0J_8smallvecNtB5_12SetLenOnDrop3getCseKOJhBLZIbD_8rsonpath:
 2351|  3.92k|    fn get(&self) -> usize {
 2352|  3.92k|        self.local_len
 2353|  3.92k|    }
_RNvMsc_Cs6kHoXNINp0J_8smallvecINtB5_8SmallVecATNtNtNtCseKOJhBLZIbD_8rsonpath5query9automaton15TransitionLabelNtNtBL_5state5StateEj2_E7spilledBP_:
 1005|  19.6k|    pub fn spilled(&self) -> bool {
 1006|  19.6k|        self.capacity > Self::inline_capacity()
 1007|  19.6k|    }
_RNvMs9_Cs6kHoXNINp0J_8smallvecINtB5_12SmallVecDataATNtNtNtCseKOJhBLZIbD_8rsonpath5query9automaton15TransitionLabelNtNtBQ_5state5StateEj2_E6inlineBU_:
  641|  3.92k|    unsafe fn inline(&self) -> ConstNonNull<A::Item> {
  642|  3.92k|        ConstNonNull::new(self.inline.as_ptr() as *const A::Item).unwrap()
  643|  3.92k|    }
_RNvXsX_Cs6kHoXNINp0J_8smallvecATNtNtNtCseKOJhBLZIbD_8rsonpath5query9automaton15TransitionLabelNtNtBw_5state5StateEj2_NtB5_5Array4sizeBA_:
 2412|  47.0k|                fn size() -> usize { $size }
_RNvXsp_Cs6kHoXNINp0J_8smallvecINtB5_8SmallVecANtNtNtNtCseKOJhBLZIbD_8rsonpath5query9automaton9small_set11SmallSet256j2_EINtNtNtCslATUeuPuGvJ_4core3ops5index8IndexMutNtNtB1Z_5range9RangeFullE9index_mutBQ_:
 2041|  1.96k|    fn index_mut(&mut self, index: I) -> &mut I::Output {
 2042|  1.96k|        &mut (&mut **self)[index]
 2043|  1.96k|    }
_RNvMsc_Cs6kHoXNINp0J_8smallvecINtB5_8SmallVecATNtNtNtCseKOJhBLZIbD_8rsonpath5query9automaton15TransitionLabelNtNtBL_5state5StateEj2_E11try_reserveBP_:
 1242|  3.92k|    pub fn try_reserve(&mut self, additional: usize) -> Result<(), CollectionAllocErr> {
 1243|  3.92k|        // prefer triple_mut() even if triple() would work so that the optimizer removes duplicated
 1244|  3.92k|        // calls to it from callers.
 1245|  3.92k|        let (_, &mut len, cap) = self.triple_mut();
 1246|  3.92k|        if cap - len >= additional {
 1247|  3.92k|            return Ok(());
 1248|      0|        }
 1249|      0|        let new_cap = len
 1250|      0|            .checked_add(additional)
 1251|      0|            .and_then(usize::checked_next_power_of_two)
 1252|      0|            .ok_or(CollectionAllocErr::CapacityOverflow)?;
 1253|      0|        self.try_grow(new_cap)
 1254|  3.92k|    }
_RNvMsc_Cs6kHoXNINp0J_8smallvecINtB5_8SmallVecANtNtNtNtCseKOJhBLZIbD_8rsonpath5query9automaton9small_set11SmallSet256j2_E10triple_mutBQ_:
  988|  11.7k|    fn triple_mut(&mut self) -> (NonNull<A::Item>, &mut usize, usize) {
  989|  11.7k|        unsafe {
  990|  11.7k|            if self.spilled() {
  991|      0|                let (ptr, len_ptr) = self.data.heap_mut();
  992|      0|                (ptr, len_ptr, self.capacity)
  993|       |            } else {
  994|  11.7k|                (
  995|  11.7k|                    self.data.inline_mut(),
  996|  11.7k|                    &mut self.capacity,
  997|  11.7k|                    Self::inline_capacity(),
  998|  11.7k|                )
  999|       |            }
 1000|       |        }
 1001|  11.7k|    }
_RNvMs9_Cs6kHoXNINp0J_8smallvecINtB5_12SmallVecDataANtNtNtCseKOJhBLZIbD_8rsonpath6engine4main10StackFramej80_E11from_inlineBT_:
  649|  1.96k|    fn from_inline(inline: MaybeUninit<A>) -> SmallVecData<A> {
  650|  1.96k|        SmallVecData {
  651|  1.96k|            inline: core::mem::ManuallyDrop::new(inline),
  652|  1.96k|        }
  653|  1.96k|    }
_RNvXsX_Cs6kHoXNINp0J_8smallvecANtNtNtNtCseKOJhBLZIbD_8rsonpath5query9automaton9small_set11SmallSet256j2_NtB5_5Array4sizeBB_:
 2412|  29.4k|                fn size() -> usize { $size }
_RNvXsg_Cs6kHoXNINp0J_8smallvecINtB5_8SmallVecANtNtNtNtCseKOJhBLZIbD_8rsonpath5query9automaton9small_set11SmallSet256j2_ENtNtNtCslATUeuPuGvJ_4core3ops5deref8DerefMut9deref_mutBQ_:
 1861|  1.96k|    fn deref_mut(&mut self) -> &mut [A::Item] {
 1862|  1.96k|        unsafe {
 1863|  1.96k|            let (ptr, &mut len, _) = self.triple_mut();
 1864|  1.96k|            slice::from_raw_parts_mut(ptr.as_ptr(), len)
 1865|  1.96k|        }
 1866|  1.96k|    }
_RNvMs9_Cs6kHoXNINp0J_8smallvecINtB5_12SmallVecDataANtNtNtNtCseKOJhBLZIbD_8rsonpath5query9automaton9small_set11SmallSet256j2_E10inline_mutBV_:
  645|  11.7k|    unsafe fn inline_mut(&mut self) -> NonNull<A::Item> {
  646|  11.7k|        NonNull::new(self.inline.as_mut_ptr() as *mut A::Item).unwrap()
  647|  11.7k|    }
_RINvXss_Cs6kHoXNINp0J_8smallvecINtB6_8SmallVecATNtNtNtCseKOJhBLZIbD_8rsonpath5query9automaton15TransitionLabelNtNtBM_5state5StateEj2_EINtNtNtNtCslATUeuPuGvJ_4core4iter6traits7collect6ExtendNtYBI_NtB6_5Array4ItemE6extendINtNtNtB2f_8adapters3map3MapINtCs8kGtPTKPY3N_10vector_map8IntoIterBK_NtNtBM_9small_set11SmallSet256ENCNvMNtBM_9minimizerNtB5c_9Minimizer18process_superstate0EEBQ_:
 2066|  3.92k|    fn extend<I: IntoIterator<Item = A::Item>>(&mut self, iterable: I) {
 2067|  3.92k|        let mut iter = iterable.into_iter();
 2068|  3.92k|        let (lower_size_bound, _) = iter.size_hint();
 2069|  3.92k|        self.reserve(lower_size_bound);
 2070|  3.92k|
 2071|  3.92k|        unsafe {
 2072|  3.92k|            let (ptr, len_ptr, cap) = self.triple_mut();
 2073|  3.92k|            let ptr = ptr.as_ptr();
 2074|  3.92k|            let mut len = SetLenOnDrop::new(len_ptr);
 2075|  3.92k|            while len.get() < cap {
 2076|  3.92k|                if let Some(out) = iter.next() {
 2077|      0|                    ptr::write(ptr.add(len.get()), out);
 2078|      0|                    len.increment_len(1);
 2079|      0|                } else {
 2080|  3.92k|                    return;
 2081|       |                }
 2082|       |            }
 2083|       |        }
 2084|       |
 2085|      0|        for elem in iter {
 2086|      0|            self.push(elem);
 2087|      0|        }
 2088|  3.92k|    }
_RNvMsc_Cs6kHoXNINp0J_8smallvecINtB5_8SmallVecATNtNtNtCseKOJhBLZIbD_8rsonpath5query9automaton15TransitionLabelNtNtBL_5state5StateEj2_E7reserveBP_:
 1224|  3.92k|    pub fn reserve(&mut self, additional: usize) {
 1225|  3.92k|        infallible(self.try_reserve(additional))
 1226|  3.92k|    }
_RNvMsc_Cs6kHoXNINp0J_8smallvecINtB5_8SmallVecANtNtNtNtCseKOJhBLZIbD_8rsonpath5query9automaton9small_set11SmallSet256j2_E4pushBQ_:
 1119|  3.92k|    pub fn push(&mut self, value: A::Item) {
 1120|  3.92k|        unsafe {
 1121|  3.92k|            let (mut ptr, mut len, cap) = self.triple_mut();
 1122|  3.92k|            if *len == cap {
 1123|      0|                self.reserve_one_unchecked();
 1124|      0|                let (heap_ptr, heap_len) = self.data.heap_mut();
 1125|      0|                ptr = heap_ptr;
 1126|      0|                len = heap_len;
 1127|  3.92k|            }
 1128|  3.92k|            ptr::write(ptr.as_ptr().add(*len), value);
 1129|  3.92k|            *len += 1;
 1130|  3.92k|        }
 1131|  3.92k|    }
_RNvMsc_Cs6kHoXNINp0J_8smallvecINtB5_8SmallVecANtNtNtNtCseKOJhBLZIbD_8rsonpath5query9automaton9small_set11SmallSet256j2_E7spilledBQ_:
 1005|  13.7k|    pub fn spilled(&self) -> bool {
 1006|  13.7k|        self.capacity > Self::inline_capacity()
 1007|  13.7k|    }
_RNvMsc_Cs6kHoXNINp0J_8smallvecINtB5_8SmallVecATNtNtNtCseKOJhBLZIbD_8rsonpath5query9automaton15TransitionLabelNtNtBL_5state5StateEj2_E11inline_sizeBP_:
  950|  1.96k|    pub fn inline_size(&self) -> usize {
  951|  1.96k|        Self::inline_capacity()
  952|  1.96k|    }
_RNvXsv_Cs6kHoXNINp0J_8smallvecINtB5_8SmallVecANtNtNtNtCseKOJhBLZIbD_8rsonpath5query9automaton9small_set11SmallSet256j2_ENtNtNtCslATUeuPuGvJ_4core3ops4drop4Drop4dropBQ_:
 2123|  1.96k|    fn drop(&mut self) {
 2124|  1.96k|        unsafe {
 2125|  1.96k|            if self.spilled() {
 2126|      0|                let (ptr, &mut len) = self.data.heap_mut();
 2127|      0|                drop(Vec::from_raw_parts(ptr.as_ptr(), len, self.capacity));
 2128|  1.96k|            } else {
 2129|  1.96k|                ptr::drop_in_place(&mut self[..]);
 2130|  1.96k|            }
 2131|       |        }
 2132|  1.96k|    }
_RNvMsc_Cs6kHoXNINp0J_8smallvecINtB5_8SmallVecANtNtNtCseKOJhBLZIbD_8rsonpath6engine4main10StackFramej80_E11inline_sizeBO_:
  950|  1.96k|    pub fn inline_size(&self) -> usize {
  951|  1.96k|        Self::inline_capacity()
  952|  1.96k|    }
_RINvCs6kHoXNINp0J_8smallvec10infallibleuECseKOJhBLZIbD_8rsonpath:
  322|  3.92k|fn infallible<T>(result: Result<T, CollectionAllocErr>) -> T {
  323|      0|    match result {
  324|  3.92k|        Ok(x) => x,
  325|      0|        Err(CollectionAllocErr::CapacityOverflow) => panic!("capacity overflow"),
  326|      0|        Err(CollectionAllocErr::AllocErr { layout }) => alloc::alloc::handle_alloc_error(layout),
  327|       |    }
  328|  3.92k|}
_RNvMsc_Cs6kHoXNINp0J_8smallvecINtB5_8SmallVecANtNtNtCseKOJhBLZIbD_8rsonpath6engine4main10StackFramej80_E3newBO_:
  783|  1.96k|    pub fn new() -> SmallVec<A> {
  784|       |        // Try to detect invalid custom implementations of `Array`. Hopefully,
  785|       |        // this check should be optimized away entirely for valid ones.
  786|  1.96k|        assert!(
  787|  1.96k|            mem::size_of::<A>() == A::size() * mem::size_of::<A::Item>()
  788|  1.96k|                && mem::align_of::<A>() >= mem::align_of::<A::Item>()
  789|       |        );
  790|  1.96k|        SmallVec {
  791|  1.96k|            capacity: 0,
  792|  1.96k|            data: SmallVecData::from_inline(MaybeUninit::uninit()),
  793|  1.96k|        }
  794|  1.96k|    }
_RNvMsc_Cs6kHoXNINp0J_8smallvecINtB5_8SmallVecATNtNtNtCseKOJhBLZIbD_8rsonpath5query9automaton15TransitionLabelNtNtBL_5state5StateEj2_E6tripleBP_:
  975|  3.92k|    fn triple(&self) -> (ConstNonNull<A::Item>, usize, usize) {
  976|  3.92k|        unsafe {
  977|  3.92k|            if self.spilled() {
  978|      0|                let (ptr, len) = self.data.heap();
  979|      0|                (ptr, len, self.capacity)
  980|       |            } else {
  981|  3.92k|                (self.data.inline(), self.capacity, Self::inline_capacity())
  982|       |            }
  983|       |        }
  984|  3.92k|    }
_RNvXsf_Cs6kHoXNINp0J_8smallvecINtB5_8SmallVecATNtNtNtCseKOJhBLZIbD_8rsonpath5query9automaton15TransitionLabelNtNtBL_5state5StateEj2_ENtNtNtCslATUeuPuGvJ_4core3ops5deref5Deref5derefBP_:
 1851|  3.92k|    fn deref(&self) -> &[A::Item] {
 1852|  3.92k|        unsafe {
 1853|  3.92k|            let (ptr, len, _) = self.triple();
 1854|  3.92k|            slice::from_raw_parts(ptr.as_ptr(), len)
 1855|  3.92k|        }
 1856|  3.92k|    }
_RNvXsg_Cs6kHoXNINp0J_8smallvecINtB5_8SmallVecATNtNtNtCseKOJhBLZIbD_8rsonpath5query9automaton15TransitionLabelNtNtBL_5state5StateEj2_ENtNtNtCslATUeuPuGvJ_4core3ops5deref8DerefMut9deref_mutBP_:
 1861|  3.92k|    fn deref_mut(&mut self) -> &mut [A::Item] {
 1862|  3.92k|        unsafe {
 1863|  3.92k|            let (ptr, &mut len, _) = self.triple_mut();
 1864|  3.92k|            slice::from_raw_parts_mut(ptr.as_ptr(), len)
 1865|  3.92k|        }
 1866|  3.92k|    }
_RNvMs9_Cs6kHoXNINp0J_8smallvecINtB5_12SmallVecDataATNtNtNtCseKOJhBLZIbD_8rsonpath5query9automaton15TransitionLabelNtNtBQ_5state5StateEj2_E10inline_mutBU_:
  645|  11.7k|    unsafe fn inline_mut(&mut self) -> NonNull<A::Item> {
  646|  11.7k|        NonNull::new(self.inline.as_mut_ptr() as *mut A::Item).unwrap()
  647|  11.7k|    }
_RNvMsc_Cs6kHoXNINp0J_8smallvecINtB5_8SmallVecATNtNtNtCseKOJhBLZIbD_8rsonpath5query9automaton15TransitionLabelNtNtBL_5state5StateEj2_E10triple_mutBP_:
  988|  11.7k|    fn triple_mut(&mut self) -> (NonNull<A::Item>, &mut usize, usize) {
  989|  11.7k|        unsafe {
  990|  11.7k|            if self.spilled() {
  991|      0|                let (ptr, len_ptr) = self.data.heap_mut();
  992|      0|                (ptr, len_ptr, self.capacity)
  993|       |            } else {
  994|  11.7k|                (
  995|  11.7k|                    self.data.inline_mut(),
  996|  11.7k|                    &mut self.capacity,
  997|  11.7k|                    Self::inline_capacity(),
  998|  11.7k|                )
  999|       |            }
 1000|       |        }
 1001|  11.7k|    }
_RNvMsc_Cs6kHoXNINp0J_8smallvecINtB5_8SmallVecANtNtNtNtCseKOJhBLZIbD_8rsonpath5query9automaton9small_set11SmallSet256j2_E15inline_capacityBQ_:
  930|  27.4k|    fn inline_capacity() -> usize {
  931|  27.4k|        if mem::size_of::<A::Item>() > 0 {
  932|  27.4k|            A::size()
  933|       |        } else {
  934|       |            // For zero-size items code like `ptr.add(offset)` always returns the same pointer.
  935|       |            // Therefore all items are at the same address,
  936|       |            // and any array size has capacity for infinitely many items.
  937|       |            // The capacity is limited by the bit width of the length field.
  938|       |            //
  939|       |            // `Vec` also does this:
  940|       |            // https://github.com/rust-lang/rust/blob/1.44.0/src/liballoc/raw_vec.rs#L186
  941|       |            //
  942|       |            // In our case, this also ensures that a smallvec of zero-size items never spills,
  943|       |            // and we never try to allocate zero bytes which `std::alloc::alloc` disallows.
  944|      0|            core::usize::MAX
  945|       |        }
  946|  27.4k|    }
_RNvMsc_Cs6kHoXNINp0J_8smallvecINtB5_8SmallVecANtNtNtNtCseKOJhBLZIbD_8rsonpath5query9automaton9small_set11SmallSet256j2_E3newBQ_:
  783|  1.96k|    pub fn new() -> SmallVec<A> {
  784|       |        // Try to detect invalid custom implementations of `Array`. Hopefully,
  785|       |        // this check should be optimized away entirely for valid ones.
  786|  1.96k|        assert!(
  787|  1.96k|            mem::size_of::<A>() == A::size() * mem::size_of::<A::Item>()
  788|  1.96k|                && mem::align_of::<A>() >= mem::align_of::<A::Item>()
  789|       |        );
  790|  1.96k|        SmallVec {
  791|  1.96k|            capacity: 0,
  792|  1.96k|            data: SmallVecData::from_inline(MaybeUninit::uninit()),
  793|  1.96k|        }
  794|  1.96k|    }
_RNvMs9_Cs6kHoXNINp0J_8smallvecINtB5_12SmallVecDataATNtNtNtCseKOJhBLZIbD_8rsonpath5query9automaton15TransitionLabelNtNtBQ_5state5StateEj2_E11from_inlineBU_:
  649|  9.80k|    fn from_inline(inline: MaybeUninit<A>) -> SmallVecData<A> {
  650|  9.80k|        SmallVecData {
  651|  9.80k|            inline: core::mem::ManuallyDrop::new(inline),
  652|  9.80k|        }
  653|  9.80k|    }
_RNvXsp_Cs6kHoXNINp0J_8smallvecINtB5_8SmallVecATNtNtNtCseKOJhBLZIbD_8rsonpath5query9automaton15TransitionLabelNtNtBL_5state5StateEj2_EINtNtNtCslATUeuPuGvJ_4core3ops5index8IndexMutNtNtB2c_5range9RangeFullE9index_mutBP_:
 2041|  3.92k|    fn index_mut(&mut self, index: I) -> &mut I::Output {
 2042|  3.92k|        &mut (&mut **self)[index]
 2043|  3.92k|    }
_RNvMsR_Cs6kHoXNINp0J_8smallvecINtB5_12ConstNonNullTNtNtNtCseKOJhBLZIbD_8rsonpath5query9automaton15TransitionLabelNtNtBP_5state5StateEE6as_ptrBT_:
 2451|  3.92k|    fn as_ptr(self) -> *const T {
 2452|  3.92k|        self.0.as_ptr()
 2453|  3.92k|    }
_RNvMsc_Cs6kHoXNINp0J_8smallvecINtB5_8SmallVecATNtNtNtCseKOJhBLZIbD_8rsonpath5query9automaton15TransitionLabelNtNtBL_5state5StateEj2_E3newBP_:
  783|  9.80k|    pub fn new() -> SmallVec<A> {
  784|       |        // Try to detect invalid custom implementations of `Array`. Hopefully,
  785|       |        // this check should be optimized away entirely for valid ones.
  786|  9.80k|        assert!(
  787|  9.80k|            mem::size_of::<A>() == A::size() * mem::size_of::<A::Item>()
  788|  9.80k|                && mem::align_of::<A>() >= mem::align_of::<A::Item>()
  789|       |        );
  790|  9.80k|        SmallVec {
  791|  9.80k|            capacity: 0,
  792|  9.80k|            data: SmallVecData::from_inline(MaybeUninit::uninit()),
  793|  9.80k|        }
  794|  9.80k|    }
_RNvMs9_Cs6kHoXNINp0J_8smallvecINtB5_12SmallVecDataANtNtNtNtCseKOJhBLZIbD_8rsonpath5query9automaton9small_set11SmallSet256j2_E11from_inlineBV_:
  649|  1.96k|    fn from_inline(inline: MaybeUninit<A>) -> SmallVecData<A> {
  650|  1.96k|        SmallVecData {
  651|  1.96k|            inline: core::mem::ManuallyDrop::new(inline),
  652|  1.96k|        }
  653|  1.96k|    }

_RNCNvMCs8kGtPTKPY3N_10vector_mapINtB4_6VecMapNtNtNtNtCseKOJhBLZIbD_8rsonpath5query9automaton9small_set11SmallSet256NtNtBL_5state5StateE3new0BP_:
   41|  1.96k|    #[post(ret.len() == 0)]
_RNCINvMCs8kGtPTKPY3N_10vector_mapINtB5_6VecMapNtNtNtNtCseKOJhBLZIbD_8rsonpath5query9automaton9small_set11SmallSet256NtNtBM_3nfa10NfaStateIdE8positionBI_E0BQ_:
   80|  9.80k|        self.keys.iter().position(|k| key == k)
_RNCNvMCs8kGtPTKPY3N_10vector_mapINtB4_6VecMapNtNtNtNtCseKOJhBLZIbD_8rsonpath5query9automaton9small_set11SmallSet256NtNtBL_5state5StateE13with_capacity0BP_:
   49|  1.96k|    #[post(ret.len() == 0)]
_RINvMCs8kGtPTKPY3N_10vector_mapINtB3_6VecMapNtNtNtNtCseKOJhBLZIbD_8rsonpath5query9automaton9small_set11SmallSet256NtNtBK_5state5StateE8positionBG_EBO_:
   79|  19.6k|    fn position<Q: PartialEq<K>>(&self, key: &Q) -> Option<usize> {
   80|  19.6k|        self.keys.iter().position(|k| key == k)
   81|  19.6k|    }
_RNvXs8_Cs8kGtPTKPY3N_10vector_mapINtB5_6VecMapNtNtNtCseKOJhBLZIbD_8rsonpath5query9automaton15TransitionLabelNtNtBK_9small_set11SmallSet256ENtNtNtNtCslATUeuPuGvJ_4core4iter6traits7collect12IntoIterator9into_iterBO_:
  307|  3.92k|    fn into_iter(self) -> Self::IntoIter {
  308|  3.92k|        IntoIter {
  309|  3.92k|            iter: self.keys.into_iter().zip(self.values.into_iter()),
  310|  3.92k|        }
  311|  3.92k|    }
_RNvXs9_Cs8kGtPTKPY3N_10vector_mapINtB5_8IntoIterNtNtNtCseKOJhBLZIbD_8rsonpath5query9automaton15TransitionLabelNtNtBM_9small_set11SmallSet256ENtNtNtNtCslATUeuPuGvJ_4core4iter6traits8iterator8Iterator4nextBQ_:
  322|  3.92k|    fn next(&mut self) -> Option<(K, V)> {
  323|  3.92k|        self.iter.next()
  324|  3.92k|    }
_RNvXs7_Cs8kGtPTKPY3N_10vector_mapQINtB5_6VecMapNtNtNtCseKOJhBLZIbD_8rsonpath5query9automaton15TransitionLabelNtNtBL_9small_set11SmallSet256ENtNtNtNtCslATUeuPuGvJ_4core4iter6traits7collect12IntoIterator9into_iterBP_:
  299|  3.92k|    fn into_iter(self) -> Self::IntoIter {
  300|  3.92k|        self.iter_mut()
  301|  3.92k|    }
_RNvXsr_Cs8kGtPTKPY3N_10vector_mapINtB5_7IterMutNtNtNtCseKOJhBLZIbD_8rsonpath5query9automaton15TransitionLabelNtNtBL_9small_set11SmallSet256ENtNtNtNtCslATUeuPuGvJ_4core4iter6traits8iterator8Iterator4nextBP_:
  494|  3.92k|            fn next(&mut self) -> Option<Self::Item> {
  495|  3.92k|                self.iter.next()
  496|  3.92k|            }
_RNvXs4_Cs8kGtPTKPY3N_10vector_mapINtB5_6VecMapNtNtNtNtCseKOJhBLZIbD_8rsonpath5query9automaton9small_set11SmallSet256NtNtBM_5state5StateEINtNtNtCslATUeuPuGvJ_4core3ops5index5IndexRBI_E5indexBQ_:
  277|  7.84k|    fn index(&self, key: &'a Q) -> &Self::Output {
  278|  7.84k|        self.get(key).unwrap()
  279|  7.84k|    }
_RNvMCs8kGtPTKPY3N_10vector_mapINtB2_6VecMapNtNtNtCseKOJhBLZIbD_8rsonpath5query9automaton15TransitionLabelNtNtBH_9small_set11SmallSet256E8iter_mutBL_:
  175|  3.92k|    pub fn iter_mut<'a>(&'a mut self) -> IterMut<'a, K, V> {
  176|  3.92k|        IterMut {
  177|  3.92k|            iter: self.keys.iter().zip(self.values.iter_mut()),
  178|  3.92k|        }
  179|  3.92k|    }
_RNCINvMCs8kGtPTKPY3N_10vector_mapINtB5_6VecMapNtNtNtNtCseKOJhBLZIbD_8rsonpath5query9automaton9small_set11SmallSet256NtNtBM_5state5StateE8positionBI_E0BQ_:
   80|  39.2k|        self.keys.iter().position(|k| key == k)
_RNCNvMCs8kGtPTKPY3N_10vector_mapINtB4_6VecMapNtNtNtNtCseKOJhBLZIbD_8rsonpath5query9automaton9small_set11SmallSet256NtNtBL_5state5StateE6insert0BP_:
   99|  5.88k|    #[post(!old(self.contains_key(&key)) -> ret.is_none())]
_RINvMCs8kGtPTKPY3N_10vector_mapINtB3_6VecMapNtNtNtNtCseKOJhBLZIbD_8rsonpath5query9automaton9small_set11SmallSet256NtNtBK_5state5StateE12contains_keyBG_EBO_:
   83|  5.88k|    pub fn contains_key<Q: PartialEq<K>>(&self, key: &Q) -> bool {
   84|  5.88k|        self.position(key).is_some()
   85|  5.88k|    }
_RNCNCINvMCs8kGtPTKPY3N_10vector_mapINtB7_6VecMapNtNtNtNtCseKOJhBLZIbD_8rsonpath5query9automaton9small_set11SmallSet256NtNtBO_3nfa10NfaStateIdE3getBK_E00BS_:
   90|  1.96k|        self.position(key).map(|p| &self.values[p])
_RNCNvMCs8kGtPTKPY3N_10vector_mapINtB4_6VecMapNtNtNtNtCseKOJhBLZIbD_8rsonpath5query9automaton9small_set11SmallSet256NtNtBL_3nfa10NfaStateIdE6insert0BP_:
   99|  5.88k|    #[post(!old(self.contains_key(&key)) -> ret.is_none())]
_RNvXs9_Cs8kGtPTKPY3N_10vector_mapINtB5_8IntoIterNtNtNtCseKOJhBLZIbD_8rsonpath5query9automaton15TransitionLabelNtNtBM_9small_set11SmallSet256ENtNtNtNtCslATUeuPuGvJ_4core4iter6traits8iterator8Iterator9size_hintBQ_:
  326|  3.92k|    fn size_hint(&self) -> (usize, Option<usize>) {
  327|  3.92k|        self.iter.size_hint()
  328|  3.92k|    }
_RNCNvMCs8kGtPTKPY3N_10vector_mapINtB4_6VecMapNtNtNtCseKOJhBLZIbD_8rsonpath5query9automaton15TransitionLabelNtNtBJ_9small_set11SmallSet256E13with_capacity0BN_:
   49|  3.92k|    #[post(ret.len() == 0)]
_RNCNvMCs8kGtPTKPY3N_10vector_mapINtB4_6VecMapNtNtNtNtCseKOJhBLZIbD_8rsonpath5query9automaton9small_set11SmallSet256NtNtBL_3nfa10NfaStateIdE13with_capacity0BP_:
   49|  1.96k|    #[post(ret.len() == 0)]
_RNCNCINvMCs8kGtPTKPY3N_10vector_mapINtB7_6VecMapNtNtNtNtCseKOJhBLZIbD_8rsonpath5query9automaton9small_set11SmallSet256NtNtBO_5state5StateE3getBK_E00BS_:
   90|  7.84k|        self.position(key).map(|p| &self.values[p])
_RINvMCs8kGtPTKPY3N_10vector_mapINtB3_6VecMapNtNtNtNtCseKOJhBLZIbD_8rsonpath5query9automaton9small_set11SmallSet256NtNtBK_3nfa10NfaStateIdE8positionBG_EBO_:
   79|  7.84k|    fn position<Q: PartialEq<K>>(&self, key: &Q) -> Option<usize> {
   80|  7.84k|        self.keys.iter().position(|k| key == k)
   81|  7.84k|    }
_RNvMCs8kGtPTKPY3N_10vector_mapINtB2_6VecMapNtNtNtNtCseKOJhBLZIbD_8rsonpath5query9automaton9small_set11SmallSet256NtNtBJ_5state5StateE3lenBN_:
   60|  3.92k|    pub fn len(&self) -> usize {
   61|  3.92k|        self.keys.len()
   62|  3.92k|    }
_RNCNvMCs8kGtPTKPY3N_10vector_mapINtB4_6VecMapNtNtNtNtCseKOJhBLZIbD_8rsonpath5query9automaton9small_set11SmallSet256NtNtBL_3nfa10NfaStateIdE3new0BP_:
   41|  1.96k|    #[post(ret.len() == 0)]
_RNCNvMCs8kGtPTKPY3N_10vector_mapINtB4_6VecMapNtNtNtCseKOJhBLZIbD_8rsonpath5query9automaton15TransitionLabelNtNtBJ_9small_set11SmallSet256E3new0BN_:
   41|  3.92k|    #[post(ret.len() == 0)]

_RNvNtNtNtCseKOJhBLZIbD_8rsonpath14classification4mask3m6410combine_32Cs9kGaKDyuozi_20fuzz_arbitrary_bytes:
   52|  38.8k|    pub(crate) fn combine_32(m1: u32, m2: u32) -> u64 {
   53|  38.8k|        u64::from(m1) | (u64::from(m2) << 32)
   54|  38.8k|    }

_RNvMNtNtNtCseKOJhBLZIbD_8rsonpath14classification6quotes7avx2_64NtB2_19BlockAvx2Classifier3newCs9kGaKDyuozi_20fuzz_arbitrary_bytes:
   21|  1.96k|    fn new() -> Self {
   22|  1.96k|        Self {
   23|  1.96k|            internal_classifier: mask_64::BlockClassifier64Bit::new(),
   24|  1.96k|        }
   25|  1.96k|    }
_RINvMNtNtNtCseKOJhBLZIbD_8rsonpath14classification6quotes7avx2_64NtB3_19BlockAvx2Classifier8classifyRShECs9kGaKDyuozi_20fuzz_arbitrary_bytes:
   28|  9.56k|    unsafe fn classify<'a, B: InputBlock<'a, 64>>(&mut self, blocks: &B) -> u64 {
   29|  9.56k|        block!(blocks[..64]);
   30|       |
   31|  9.56k|        let (block1, block2) = blocks.halves();
   32|  9.56k|        let classification1 = vector_256::classify_block(block1);
   33|  9.56k|        let classification2 = vector_256::classify_block(block2);
   34|  9.56k|
   35|  9.56k|        let slashes = m64::combine_32(classification1.slashes, classification2.slashes);
   36|  9.56k|        let quotes = m64::combine_32(classification1.quotes, classification2.quotes);
   37|  9.56k|
   38|  9.56k|        self.internal_classifier.classify(slashes, quotes)
   39|  9.56k|    }

_RNvXs1_NtNtNtCseKOJhBLZIbD_8rsonpath14classification6quotes7avx2_64INtB5_21Avx2QuoteClassifier64INtNtNtBb_5input8borrowed26BorrowedBytesBlockIteratorNtNtB1B_7padding19TwoSidesPaddedInputINtNtNtBb_6result5nodes13NodesRecorderRShINtNtCshJIxznpEM8j_5alloc3vec3VecNtB33_5MatchEEKj40_EEINtB7_23QuoteClassifiedIteratorB1w_yKB4p_E10get_offsetCs9kGaKDyuozi_20fuzz_arbitrary_bytes:
  100|  50.5k|            fn get_offset(&self) -> usize {
  101|  50.5k|                self.iter.get_offset() - $size
  102|  50.5k|            }
_RNvXs0_NtNtNtCseKOJhBLZIbD_8rsonpath14classification6quotes7avx2_64INtB5_21Avx2QuoteClassifier64INtNtNtBb_5input8borrowed26BorrowedBytesBlockIteratorNtNtB1B_7padding19TwoSidesPaddedInputINtNtNtBb_6result5nodes13NodesRecorderRShINtNtCshJIxznpEM8j_5alloc3vec3VecNtB33_5MatchEEKj40_EENtBb_16FallibleIterator4nextCs9kGaKDyuozi_20fuzz_arbitrary_bytes:
   79|  11.1k|            fn next(&mut self) -> Result<Option<Self::Item>, Self::Error> {
   80|  11.1k|                match self.iter.next().e()? {
   81|  9.56k|                    Some(block) => {
   82|  9.56k|                        // SAFETY: target_feature invariant
   83|  9.56k|                        let mask = unsafe { self.classifier.classify(&block) };
   84|  9.56k|                        let classified_block = QuoteClassifiedBlock {
   85|  9.56k|                            block,
   86|  9.56k|                            within_quotes_mask: mask,
   87|  9.56k|                        };
   88|  9.56k|                        Ok(Some(classified_block))
   89|       |                    }
   90|  1.58k|                    None => Ok(None),
   91|       |                }
   92|  11.1k|            }
_RINvXs_NtNtNtCseKOJhBLZIbD_8rsonpath14classification6quotes7avx2_64NtB5_11ConstructorNtB7_10QuotesImpl3newINtNtNtBb_5input8borrowed26BorrowedBytesBlockIteratorNtNtB1L_7padding19TwoSidesPaddedInputINtNtNtBb_6result5nodes13NodesRecorderRShINtNtCshJIxznpEM8j_5alloc3vec3VecNtB3d_5MatchEEKj40_EECs9kGaKDyuozi_20fuzz_arbitrary_bytes:
   20|  1.96k|            fn new<'i, I>(iter: I) -> Self::Classifier<'i, I>
   21|  1.96k|            where
   22|  1.96k|                I: InputBlockIterator<'i, $size>,
   23|  1.96k|            {
   24|  1.96k|                Self::Classifier {
   25|  1.96k|                    iter,
   26|  1.96k|                    classifier: $core::new(),
   27|  1.96k|                    phantom: PhantomData,
   28|  1.96k|                }
   29|  1.96k|            }

_RNvMNtNtNtNtCseKOJhBLZIbD_8rsonpath14classification6quotes6shared7mask_64NtB2_20BlockClassifier64Bit3newCs9kGaKDyuozi_20fuzz_arbitrary_bytes:
   26|  1.96k|    pub(crate) fn new() -> Self {
   27|  1.96k|        Self { prev_block_mask: 0 }
   28|  1.96k|    }
_RNvMNtNtNtNtCseKOJhBLZIbD_8rsonpath14classification6quotes6shared7mask_64NtB2_20BlockClassifier64Bit19get_prev_quote_maskBa_:
   49|  9.56k|    fn get_prev_quote_mask(&self) -> u64 {
   50|  9.56k|        u64::from((self.prev_block_mask & 0x02) >> 1)
   51|  9.56k|    }
_RNvNtNtNtNtCseKOJhBLZIbD_8rsonpath14classification6quotes6shared7mask_6411all_ones128B9_:
   13|  9.56k|unsafe fn all_ones128() -> __m128i {
   14|  9.56k|    _mm_set1_epi8(0xFF_u8 as i8)
   15|  9.56k|}
_RNvMNtNtNtNtCseKOJhBLZIbD_8rsonpath14classification6quotes6shared7mask_64NtB2_20BlockClassifier64Bit19get_prev_slash_maskBa_:
   44|  9.70k|    fn get_prev_slash_mask(&self) -> u64 {
   45|  9.70k|        u64::from(self.prev_block_mask & 0x01)
   46|  9.70k|    }
_RNvMNtNtNtNtCseKOJhBLZIbD_8rsonpath14classification6quotes6shared7mask_64NtB2_20BlockClassifier64Bit22update_prev_block_maskBa_:
   31|  9.56k|    fn update_prev_block_mask(&mut self, set_slash_mask: bool, quotes: u64) {
   32|  9.56k|        let slash_mask = u8::from(set_slash_mask);
   33|  9.56k|        let quote_mask = (((quotes & (1 << 63)) >> 62) as u8) & 0x02;
   34|  9.56k|        self.prev_block_mask = slash_mask | quote_mask;
   35|  9.56k|    }
_RNvMNtNtNtNtCseKOJhBLZIbD_8rsonpath14classification6quotes6shared7mask_64NtB2_20BlockClassifier64Bit8classify:
   55|  9.56k|    pub(crate) unsafe fn classify(&mut self, slashes: u64, quotes: u64) -> u64 {
   56|  9.56k|        let (escaped, set_prev_slash_mask) = if slashes == 0 {
   57|  9.42k|            (self.get_prev_slash_mask(), false)
   58|       |        } else {
   59|    136|            let slashes_excluding_escaped_first = slashes & !self.get_prev_slash_mask();
   60|    136|            let starts = slashes_excluding_escaped_first & !(slashes_excluding_escaped_first << 1);
   61|    136|            let odd_starts = ODD & starts;
   62|    136|            let even_starts = EVEN & starts;
   63|    136|
   64|    136|            let odd_starts_carry = odd_starts.wrapping_add(slashes);
   65|    136|            let (even_starts_carry, set_prev_slash_mask) = even_starts.overflowing_add(slashes);
   66|    136|
   67|    136|            let ends_of_odd_starts = odd_starts_carry & !slashes;
   68|    136|            let ends_of_even_starts = even_starts_carry & !slashes;
   69|    136|
   70|    136|            let escaped = (ends_of_odd_starts & EVEN) | (ends_of_even_starts & ODD) | self.get_prev_slash_mask();
   71|    136|
   72|    136|            (escaped, set_prev_slash_mask)
   73|       |        };
   74|       |
   75|  9.56k|        let nonescaped_quotes = (quotes & !escaped) ^ self.get_prev_quote_mask();
   76|  9.56k|
   77|  9.56k|        let nonescaped_quotes_vector = _mm_set_epi64x(0, nonescaped_quotes as i64);
   78|  9.56k|        let cumulative_xor = _mm_clmulepi64_si128::<0>(nonescaped_quotes_vector, all_ones128());
   79|  9.56k|
   80|  9.56k|        let within_quotes = _mm_cvtsi128_si64(cumulative_xor) as u64;
   81|  9.56k|        self.update_prev_block_mask(set_prev_slash_mask, within_quotes);
   82|       |
   83|      0|        bin_u64!("slashes", slashes);
   84|      0|        bin_u64!("quotes", quotes);
   85|      0|        bin_u64!("prev_slash_bit", self.get_prev_slash_mask());
   86|      0|        bin_u64!("prev_quote_bit", self.get_prev_quote_mask());
   87|      0|        bin_u64!("escaped", escaped);
   88|      0|        bin_u64!("quotes & !escaped", quotes & !escaped);
   89|      0|        bin_u64!("nonescaped_quotes", nonescaped_quotes);
   90|      0|        bin_u64!("within_quotes", within_quotes);
   91|       |
   92|  9.56k|        within_quotes
   93|  9.56k|    }

_RNvNtNtNtNtCseKOJhBLZIbD_8rsonpath14classification6quotes6shared10vector_25610quote_mask:
    7|  19.1k|pub(crate) unsafe fn quote_mask() -> __m256i {
    8|  19.1k|    _mm256_set1_epi8(b'"' as i8)
    9|  19.1k|}
_RNvNtNtNtNtCseKOJhBLZIbD_8rsonpath14classification6quotes6shared10vector_25614classify_block:
   17|  19.1k|pub(crate) unsafe fn classify_block(block: &[u8]) -> BlockClassification256 {
   18|  19.1k|    let byte_vector = _mm256_loadu_si256(block.as_ptr().cast::<__m256i>());
   19|  19.1k|
   20|  19.1k|    let slash_cmp = _mm256_cmpeq_epi8(byte_vector, slash_mask());
   21|  19.1k|    let slashes = _mm256_movemask_epi8(slash_cmp) as u32;
   22|  19.1k|
   23|  19.1k|    let quote_cmp = _mm256_cmpeq_epi8(byte_vector, quote_mask());
   24|  19.1k|    let quotes = _mm256_movemask_epi8(quote_cmp) as u32;
   25|  19.1k|
   26|  19.1k|    BlockClassification256 { slashes, quotes }
   27|  19.1k|}
_RNvNtNtNtNtCseKOJhBLZIbD_8rsonpath14classification6quotes6shared10vector_25610slash_mask:
   12|  19.1k|pub(crate) unsafe fn slash_mask() -> __m256i {
   13|  19.1k|    _mm256_set1_epi8(b'\\' as i8)
   14|  19.1k|}

_RNvMs2_NtNtCseKOJhBLZIbD_8rsonpath14classification4simdNtB5_17SimdConfiguration11fast_quotesCs9kGaKDyuozi_20fuzz_arbitrary_bytes:
  496|  1.96k|    pub(crate) fn fast_quotes(&self) -> bool {
  497|  1.96k|        self.fast_quotes
  498|  1.96k|    }
_RINvXs1_NtNtCseKOJhBLZIbD_8rsonpath14classification4simdINtB6_12ResolvedSimdNtNtNtB8_6quotes7avx2_6411ConstructorNtNtNtB8_10structural7avx2_6411ConstructorNtNtNtB8_5depth7avx2_6411ConstructorNtNtNtB8_6memmem7avx2_6411ConstructorKj1_ENtB6_4Simd25classify_quoted_sequencesINtNtNtBa_5input8borrowed26BorrowedBytesBlockIteratorNtNtB4p_7padding19TwoSidesPaddedInputINtNtNtBa_6result5nodes13NodesRecorderRShINtNtCshJIxznpEM8j_5alloc3vec3VecNtB5R_5MatchEEKj40_EECs9kGaKDyuozi_20fuzz_arbitrary_bytes:
  380|  1.96k|    fn classify_quoted_sequences<'i, I>(self, iter: I) -> Self::QuotesClassifier<'i, I>
  381|  1.96k|    where
  382|  1.96k|        I: InputBlockIterator<'i, BLOCK_SIZE>,
  383|  1.96k|    {
  384|  1.96k|        Q::new(iter)
  385|  1.96k|    }
_RNvMs2_NtNtCseKOJhBLZIbD_8rsonpath14classification4simdNtB5_17SimdConfiguration11fast_popcntCs9kGaKDyuozi_20fuzz_arbitrary_bytes:
  500|  1.96k|    pub(crate) fn fast_popcnt(&self) -> bool {
  501|  1.96k|        self.fast_popcnt
  502|  1.96k|    }
_RNvXs1_NtNtCseKOJhBLZIbD_8rsonpath14classification4simdINtB5_12ResolvedSimdNtNtNtB7_6quotes7avx2_6411ConstructorNtNtNtB7_10structural7avx2_6411ConstructorNtNtNtB7_5depth7avx2_6411ConstructorNtNtNtB7_6memmem7avx2_6411ConstructorKj1_ENtB5_4Simd12dispatch_tagCs9kGaKDyuozi_20fuzz_arbitrary_bytes:
  375|  1.96k|    fn dispatch_tag(self) -> usize {
  376|  1.96k|        TARGET
  377|  1.96k|    }
_RNvMs0_NtNtCseKOJhBLZIbD_8rsonpath14classification4simdINtB5_12ResolvedSimdNtNtNtB7_6quotes7avx2_6411ConstructorNtNtNtB7_10structural7avx2_6411ConstructorNtNtNtB7_5depth7avx2_6411ConstructorNtNtNtB7_6memmem7avx2_6411ConstructorKj1_E3newCs9kGaKDyuozi_20fuzz_arbitrary_bytes:
  343|  1.96k|    pub(crate) fn new() -> Self {
  344|  1.96k|        Self { phantom: PhantomData }
  345|  1.96k|    }
_RNvMs2_NtNtCseKOJhBLZIbD_8rsonpath14classification4simdNtB5_17SimdConfiguration12highest_simdCs9kGaKDyuozi_20fuzz_arbitrary_bytes:
  492|  1.96k|    pub(crate) fn highest_simd(&self) -> SimdTag {
  493|  1.96k|        self.highest_simd
  494|  1.96k|    }
_RINvXs1_NtNtCseKOJhBLZIbD_8rsonpath14classification4simdINtB6_12ResolvedSimdNtNtNtB8_6quotes7avx2_6411ConstructorNtNtNtB8_10structural7avx2_6411ConstructorNtNtNtB8_5depth7avx2_6411ConstructorNtNtNtB8_6memmem7avx2_6411ConstructorKj1_ENtB6_4Simd30classify_structural_charactersINtNtNtBa_5input8borrowed26BorrowedBytesBlockIteratorNtNtB4u_7padding19TwoSidesPaddedInputINtNtNtBa_6result5nodes13NodesRecorderRShINtNtCshJIxznpEM8j_5alloc3vec3VecNtB5W_5MatchEEKj40_EECs9kGaKDyuozi_20fuzz_arbitrary_bytes:
  400|  1.96k|    fn classify_structural_characters<'i, I>(
  401|  1.96k|        self,
  402|  1.96k|        iter: Self::QuotesClassifier<'i, I>,
  403|  1.96k|    ) -> Self::StructuralClassifier<'i, I>
  404|  1.96k|    where
  405|  1.96k|        I: InputBlockIterator<'i, BLOCK_SIZE>,
  406|  1.96k|    {
  407|  1.96k|        S::new(iter)
  408|  1.96k|    }
_RNvNtNtCseKOJhBLZIbD_8rsonpath14classification4simd9configureCs9kGaKDyuozi_20fuzz_arbitrary_bytes:
  554|  1.96k|pub(crate) fn configure() -> SimdConfiguration {
  555|  1.96k|    if let Ok(simd) = std::env::var(SIMD_OVERRIDE_ENV_VARIABLE) {
  556|       |        #[allow(clippy::expect_used)] // This is already an unsafe override, not expected to be used by users.
  557|      0|        return SimdConfiguration::try_parse(&simd).expect("invalid simd configuration override");
  558|  1.96k|    }
  559|       |
  560|       |    cfg_if! {
  561|       |        if #[cfg(not(feature = "simd"))]
  562|       |        {
  563|       |            let highest_simd = SimdTag::Nosimd;
  564|       |            let fast_quotes = false;
  565|       |            let fast_popcnt = false;
  566|       |        }
  567|       |        else if #[cfg(any(target_arch = "x86", target_arch = "x86_64"))]
  568|       |        {
  569|  1.96k|            let highest_simd = if is_x86_feature_detected!("avx2") {
  570|  1.96k|                SimdTag::Avx2
  571|      0|            } else if is_x86_feature_detected!("ssse3") {
  572|      0|                SimdTag::Ssse3
  573|      0|            } else if is_x86_feature_detected!("sse2") {
  574|      0|                SimdTag::Sse2
  575|       |            } else {
  576|      0|                SimdTag::Nosimd
  577|       |            };
  578|       |
  579|  1.96k|            let fast_quotes = is_x86_feature_detected!("pclmulqdq");
  580|  1.96k|            let fast_popcnt = is_x86_feature_detected!("popcnt");
  581|       |        }
  582|       |        else
  583|       |        {
  584|       |            let highest_simd = SimdTag::Nosimd;
  585|       |            let fast_quotes = false;
  586|       |            let fast_popcnt = false;
  587|       |        }
  588|       |    }
  589|       |
  590|  1.96k|    SimdConfiguration {
  591|  1.96k|        highest_simd,
  592|  1.96k|        fast_quotes,
  593|  1.96k|        fast_popcnt,
  594|  1.96k|    }
  595|  1.96k|}

_RNvXs5_NtNtCseKOJhBLZIbD_8rsonpath14classification10structuralNtB5_11BracketTypeNtNtCslATUeuPuGvJ_4core3cmp9PartialEq2eqCs9kGaKDyuozi_20fuzz_arbitrary_bytes:
   21|  47.5k|#[derive(Debug, Clone, Copy, Eq, PartialEq, Hash)]
_RNvMNtNtCseKOJhBLZIbD_8rsonpath14classification10structuralNtB2_10Structural6offset:
   69|  50.3k|    pub fn offset(self, amount: usize) -> Self {
   70|  50.3k|        match self {
   71|  5.27k|            Closing(b, idx) => Closing(b, idx + amount),
   72|  5.57k|            Colon(idx) => Colon(idx + amount),
   73|  24.7k|            Opening(b, idx) => Opening(b, idx + amount),
   74|  14.7k|            Comma(idx) => Comma(idx + amount),
   75|       |        }
   76|  50.3k|    }
_RNvMNtNtCseKOJhBLZIbD_8rsonpath14classification10structuralNtB2_10Structural10is_closing:
   95|  4.45k|    pub fn is_closing(&self) -> bool {
   96|  4.45k|        matches!(self, Closing(_, _))
   97|  4.45k|    }

_RNCNCNvXs1_NtNtNtCseKOJhBLZIbD_8rsonpath14classification10structural7avx2_64INtB9_16Avx2Classifier64INtNtNtBf_5input8borrowed26BorrowedBytesBlockIteratorNtNtB1F_7padding19TwoSidesPaddedInputINtNtNtBf_6result5nodes13NodesRecorderRShINtNtCshJIxznpEM8j_5alloc3vec3VecNtB37_5MatchEEKj40_EINtNtNtBd_6quotes7avx2_6421Avx2QuoteClassifier64B1A_EENtBf_16FallibleIterator4next00Cs9kGaKDyuozi_20fuzz_arbitrary_bytes:
   14|  50.3k|super::shared::structural_classifier!(Avx2Classifier64, BlockAvx2Classifier64, mask_64, 64, u64);
_RINvMNtNtNtCseKOJhBLZIbD_8rsonpath14classification10structural7avx2_64NtB3_21BlockAvx2Classifier648classifyRShECs9kGaKDyuozi_20fuzz_arbitrary_bytes:
   29|  19.6k|    unsafe fn classify<'i, B: InputBlock<'i, 64>>(
   30|  19.6k|        &mut self,
   31|  19.6k|        quote_classified_block: QuoteClassifiedBlock<B, u64, 64>,
   32|  19.6k|    ) -> mask_64::StructuralsBlock<B> {
   33|  19.6k|        let (block1, block2) = quote_classified_block.block.halves();
   34|  19.6k|        let classification1 = self.internal_classifier.classify_block(block1);
   35|  19.6k|        let classification2 = self.internal_classifier.classify_block(block2);
   36|  19.6k|
   37|  19.6k|        let structural = m64::combine_32(classification1.structural, classification2.structural);
   38|  19.6k|        let nonquoted_structural = structural & !quote_classified_block.within_quotes_mask;
   39|       |
   40|      0|        bin_u64!("structural", structural);
   41|      0|        bin_u64!("nonquoted_structural", nonquoted_structural);
   42|       |
   43|  19.6k|        mask_64::StructuralsBlock::new(quote_classified_block, nonquoted_structural)
   44|  19.6k|    }
_RNvMNtNtNtCseKOJhBLZIbD_8rsonpath14classification10structural7avx2_64NtB2_21BlockAvx2Classifier643new:
   21|  1.96k|    fn new() -> Self {
   22|  1.96k|        Self {
   23|  1.96k|            // SAFETY: target feature invariant
   24|  1.96k|            internal_classifier: unsafe { vector_256::BlockClassifier256::new() },
   25|  1.96k|        }
   26|  1.96k|    }

_RNvMs0_NtNtNtCseKOJhBLZIbD_8rsonpath14classification10structural7avx2_64INtB5_16Avx2Classifier64INtNtNtBb_5input8borrowed26BorrowedBytesBlockIteratorNtNtB1B_7padding19TwoSidesPaddedInputINtNtNtBb_6result5nodes13NodesRecorderRShINtNtCshJIxznpEM8j_5alloc3vec3VecNtB33_5MatchEEKj40_EINtNtNtB9_6quotes7avx2_6421Avx2QuoteClassifier64B1w_EE10reclassifyCs9kGaKDyuozi_20fuzz_arbitrary_bytes:
   56|  10.3k|            fn reclassify(&mut self, idx: usize) {
   57|  10.3k|                if let Some(block) = self.block.take() {
   58|  10.3k|                    let quote_classified_block = block.quote_classified;
   59|  10.3k|                    let relevant_idx = idx + 1;
   60|  10.3k|                    let block_idx = (idx + 1) % $size;
   61|      0|                    debug!("relevant_idx is {relevant_idx}.");
   62|       |
   63|  10.3k|                    if block_idx != 0 || relevant_idx == self.iter.get_offset() {
   64|      0|                        debug!("need to reclassify.");
   65|       |
   66|  10.1k|                        let mask = <$mask_ty>::MAX << block_idx;
   67|  10.1k|                        // SAFETY: target_feature invariant
   68|  10.1k|                        let mut new_block = unsafe { self.classifier.classify(quote_classified_block) };
   69|  10.1k|                        new_block.structural_mask &= mask;
   70|  10.1k|                        self.block = Some(new_block);
   71|    183|                    }
   72|      0|                }
   73|  10.3k|            }
_RNvMs0_NtNtNtCseKOJhBLZIbD_8rsonpath14classification10structural7avx2_64INtB5_16Avx2Classifier64INtNtNtBb_5input8borrowed26BorrowedBytesBlockIteratorNtNtB1B_7padding19TwoSidesPaddedInputINtNtNtBb_6result5nodes13NodesRecorderRShINtNtCshJIxznpEM8j_5alloc3vec3VecNtB33_5MatchEEKj40_EINtNtNtB9_6quotes7avx2_6421Avx2QuoteClassifier64B1w_EE22current_block_is_spentCs9kGaKDyuozi_20fuzz_arbitrary_bytes:
   49|  61.5k|            fn current_block_is_spent(&self) -> bool {
   50|  61.5k|                self.block
   51|  61.5k|                    .as_ref()
   52|  61.5k|                    .map_or(true, $mask_mod::StructuralsBlock::is_empty)
   53|  61.5k|            }
_RNvXs2_NtNtNtCseKOJhBLZIbD_8rsonpath14classification10structural7avx2_64INtB5_16Avx2Classifier64INtNtNtBb_5input8borrowed26BorrowedBytesBlockIteratorNtNtB1B_7padding19TwoSidesPaddedInputINtNtNtBb_6result5nodes13NodesRecorderRShINtNtCshJIxznpEM8j_5alloc3vec3VecNtB33_5MatchEEKj40_EINtNtNtB9_6quotes7avx2_6421Avx2QuoteClassifier64B1w_EEINtB7_18StructuralIteratorB1w_B4u_yKB4p_E25turn_colons_and_commas_onCs9kGaKDyuozi_20fuzz_arbitrary_bytes:
  113|  14.7k|            fn turn_colons_and_commas_on(&mut self, idx: usize) {
  114|  14.7k|                if !self.are_commas_on && !self.are_colons_on {
  115|  2.39k|                    self.are_commas_on = true;
  116|  2.39k|                    self.are_colons_on = true;
  117|      0|                    debug!("Turning both commas and colons on at {idx}.");
  118|       |                    // SAFETY: target_feature invariant
  119|  2.39k|                    unsafe { self.classifier.internal_classifier.toggle_colons_and_commas() }
  120|  2.39k|
  121|  2.39k|                    self.reclassify(idx);
  122|  12.3k|                } else if !self.are_commas_on {
  123|  1.39k|                    self.turn_commas_on(idx);
  124|  10.9k|                } else if !self.are_colons_on {
  125|  5.12k|                    self.turn_colons_on(idx);
  126|  5.79k|                }
  127|  14.7k|            }
_RNvXs2_NtNtNtCseKOJhBLZIbD_8rsonpath14classification10structural7avx2_64INtB5_16Avx2Classifier64INtNtNtBb_5input8borrowed26BorrowedBytesBlockIteratorNtNtB1B_7padding19TwoSidesPaddedInputINtNtNtBb_6result5nodes13NodesRecorderRShINtNtCshJIxznpEM8j_5alloc3vec3VecNtB33_5MatchEEKj40_EINtNtNtB9_6quotes7avx2_6421Avx2QuoteClassifier64B1w_EEINtB7_18StructuralIteratorB1w_B4u_yKB4p_E15turn_commas_offCs9kGaKDyuozi_20fuzz_arbitrary_bytes:
  157|  3.22k|            fn turn_commas_off(&mut self) {
  158|  3.22k|                if self.are_commas_on {
  159|  3.22k|                    self.are_commas_on = false;
  160|      0|                    debug!("Turning commas off.");
  161|       |                    // SAFETY: target_feature invariant
  162|  3.22k|                    unsafe { self.classifier.internal_classifier.toggle_commas() }
  163|      0|                }
  164|  3.22k|            }
_RNvXs2_NtNtNtCseKOJhBLZIbD_8rsonpath14classification10structural7avx2_64INtB5_16Avx2Classifier64INtNtNtBb_5input8borrowed26BorrowedBytesBlockIteratorNtNtB1B_7padding19TwoSidesPaddedInputINtNtNtBb_6result5nodes13NodesRecorderRShINtNtCshJIxznpEM8j_5alloc3vec3VecNtB33_5MatchEEKj40_EINtNtNtB9_6quotes7avx2_6421Avx2QuoteClassifier64B1w_EEINtB7_18StructuralIteratorB1w_B4u_yKB4p_E14turn_commas_onCs9kGaKDyuozi_20fuzz_arbitrary_bytes:
  145|  16.7k|            fn turn_commas_on(&mut self, idx: usize) {
  146|  16.7k|                if !self.are_commas_on {
  147|  2.78k|                    self.are_commas_on = true;
  148|      0|                    debug!("Turning commas on at {idx}.");
  149|       |                    // SAFETY: target_feature invariant
  150|  2.78k|                    unsafe { self.classifier.internal_classifier.toggle_commas() }
  151|  2.78k|
  152|  2.78k|                    self.reclassify(idx);
  153|  13.9k|                }
  154|  16.7k|            }
_RINvXs_NtNtNtCseKOJhBLZIbD_8rsonpath14classification10structural7avx2_64NtB5_11ConstructorNtB7_14StructuralImpl3newINtNtNtBb_5input8borrowed26BorrowedBytesBlockIteratorNtNtB1U_7padding19TwoSidesPaddedInputINtNtNtBb_6result5nodes13NodesRecorderRShINtNtCshJIxznpEM8j_5alloc3vec3VecNtB3m_5MatchEEKj40_EINtNtNtB9_6quotes7avx2_6421Avx2QuoteClassifier64B1P_EECs9kGaKDyuozi_20fuzz_arbitrary_bytes:
   21|  1.96k|            fn new<'i, I, Q>(iter: Q) -> Self::Classifier<'i, I, Q>
   22|  1.96k|            where
   23|  1.96k|                I: InputBlockIterator<'i, BLOCK_SIZE>,
   24|  1.96k|                Q: QuoteClassifiedIterator<'i, I, MaskType, BLOCK_SIZE>,
   25|  1.96k|            {
   26|  1.96k|                Self::Classifier {
   27|  1.96k|                    iter,
   28|  1.96k|                    classifier: $core::new(),
   29|  1.96k|                    block: None,
   30|  1.96k|                    are_commas_on: false,
   31|  1.96k|                    are_colons_on: false,
   32|  1.96k|                }
   33|  1.96k|            }
_RNvXs2_NtNtNtCseKOJhBLZIbD_8rsonpath14classification10structural7avx2_64INtB5_16Avx2Classifier64INtNtNtBb_5input8borrowed26BorrowedBytesBlockIteratorNtNtB1B_7padding19TwoSidesPaddedInputINtNtNtBb_6result5nodes13NodesRecorderRShINtNtCshJIxznpEM8j_5alloc3vec3VecNtB33_5MatchEEKj40_EINtNtNtB9_6quotes7avx2_6421Avx2QuoteClassifier64B1w_EEINtB7_18StructuralIteratorB1w_B4u_yKB4p_E15turn_colons_offCs9kGaKDyuozi_20fuzz_arbitrary_bytes:
  179|  15.3k|            fn turn_colons_off(&mut self) {
  180|  15.3k|                if self.are_colons_on {
  181|  6.80k|                    self.are_colons_on = false;
  182|      0|                    debug!("Turning colons off.");
  183|       |                    // SAFETY: target_feature invariant
  184|  6.80k|                    unsafe { self.classifier.internal_classifier.toggle_colons() }
  185|  8.53k|                }
  186|  15.3k|            }
_RNvXs2_NtNtNtCseKOJhBLZIbD_8rsonpath14classification10structural7avx2_64INtB5_16Avx2Classifier64INtNtNtBb_5input8borrowed26BorrowedBytesBlockIteratorNtNtB1B_7padding19TwoSidesPaddedInputINtNtNtBb_6result5nodes13NodesRecorderRShINtNtCshJIxznpEM8j_5alloc3vec3VecNtB33_5MatchEEKj40_EINtNtNtB9_6quotes7avx2_6421Avx2QuoteClassifier64B1w_EEINtB7_18StructuralIteratorB1w_B4u_yKB4p_E14turn_colons_onCs9kGaKDyuozi_20fuzz_arbitrary_bytes:
  167|  5.12k|            fn turn_colons_on(&mut self, idx: usize) {
  168|  5.12k|                if !self.are_colons_on {
  169|  5.12k|                    self.are_colons_on = true;
  170|      0|                    debug!("Turning colons on at {idx}.");
  171|       |                    // SAFETY: target_feature invariant
  172|  5.12k|                    unsafe { self.classifier.internal_classifier.toggle_colons() }
  173|  5.12k|
  174|  5.12k|                    self.reclassify(idx);
  175|      0|                }
  176|  5.12k|            }
_RNvXs1_NtNtNtCseKOJhBLZIbD_8rsonpath14classification10structural7avx2_64INtB5_16Avx2Classifier64INtNtNtBb_5input8borrowed26BorrowedBytesBlockIteratorNtNtB1B_7padding19TwoSidesPaddedInputINtNtNtBb_6result5nodes13NodesRecorderRShINtNtCshJIxznpEM8j_5alloc3vec3VecNtB33_5MatchEEKj40_EINtNtNtB9_6quotes7avx2_6421Avx2QuoteClassifier64B1w_EENtBb_16FallibleIterator4nextCs9kGaKDyuozi_20fuzz_arbitrary_bytes:
   85|  51.9k|            fn next(&mut self) -> Result<Option<Structural>, Self::Error> {
   86|  61.5k|                while self.current_block_is_spent() {
   87|  11.1k|                    match self.iter.next() {
   88|  9.56k|                        Ok(Some(block)) => {
   89|  9.56k|                            // SAFETY: target_feature invariant
   90|  9.56k|                            self.block = unsafe { Some(self.classifier.classify(block)) };
   91|  9.56k|                        }
   92|       |                        Ok(None) => {
   93|  1.58k|                            self.block = None;
   94|  1.58k|                            break;
   95|       |                        }
   96|      0|                        Err(err) => return Err(err),
   97|       |                    }
   98|       |                }
   99|       |
  100|  51.9k|                Ok(self
  101|  51.9k|                    .block
  102|  51.9k|                    .as_mut()
  103|  51.9k|                    .and_then(|b| b.next().map(|x| x.offset(self.iter.get_offset()))))
  104|  51.9k|            }

_RNvXs_NtNtNtNtCseKOJhBLZIbD_8rsonpath14classification10structural6shared7mask_64INtB4_16StructuralsBlockRShENtNtNtNtCslATUeuPuGvJ_4core4iter6traits8iterator8Iterator4nextCs9kGaKDyuozi_20fuzz_arbitrary_bytes:
   38|  50.3k|    fn next(&mut self) -> Option<Structural> {
   39|  50.3k|        let idx = self.get_idx() as usize;
   40|  50.3k|        (idx < SIZE).then(|| {
   41|       |            let bit_mask = 1 << idx;
   42|       |
   43|       |            self.structural_mask ^= bit_mask;
   44|       |
   45|       |            // The last match being a catch-all *is important*.
   46|       |            // It has major performance implications, since the jump table generated here is a hot path for the engine.
   47|       |            // Changing this match must be accompanied with benchmark runs to make sure perf does not regress.
   48|       |            match self.quote_classified.block[idx] {
   49|       |                b':' => Structural::Colon(idx),
   50|       |                b'{' => Structural::Opening(BracketType::Curly, idx),
   51|       |                b'[' => Structural::Opening(BracketType::Square, idx),
   52|       |                b',' => Structural::Comma(idx),
   53|       |                b'}' => Structural::Closing(BracketType::Curly, idx),
   54|       |                _ => Structural::Closing(BracketType::Square, idx),
   55|       |            }
   56|  50.3k|        })
   57|  50.3k|    }
_RNvMNtNtNtNtCseKOJhBLZIbD_8rsonpath14classification10structural6shared7mask_64INtB2_16StructuralsBlockRShE3newCs9kGaKDyuozi_20fuzz_arbitrary_bytes:
   16|  19.6k|    pub(crate) fn new(block: QuoteClassifiedBlock<B, u64, SIZE>, structural_mask: u64) -> Self {
   17|  19.6k|        Self {
   18|  19.6k|            quote_classified: block,
   19|  19.6k|            structural_mask,
   20|  19.6k|        }
   21|  19.6k|    }
_RNvMNtNtNtNtCseKOJhBLZIbD_8rsonpath14classification10structural6shared7mask_64INtB2_16StructuralsBlockRShE7get_idxCs9kGaKDyuozi_20fuzz_arbitrary_bytes:
   29|  50.3k|    pub(crate) fn get_idx(&self) -> u32 {
   30|  50.3k|        self.structural_mask.trailing_zeros()
   31|  50.3k|    }
_RNCNvXs_NtNtNtNtCseKOJhBLZIbD_8rsonpath14classification10structural6shared7mask_64INtB6_16StructuralsBlockRShENtNtNtNtCslATUeuPuGvJ_4core4iter6traits8iterator8Iterator4next0Cs9kGaKDyuozi_20fuzz_arbitrary_bytes:
   40|  50.3k|        (idx < SIZE).then(|| {
   41|  50.3k|            let bit_mask = 1 << idx;
   42|  50.3k|
   43|  50.3k|            self.structural_mask ^= bit_mask;
   44|  50.3k|
   45|  50.3k|            // The last match being a catch-all *is important*.
   46|  50.3k|            // It has major performance implications, since the jump table generated here is a hot path for the engine.
   47|  50.3k|            // Changing this match must be accompanied with benchmark runs to make sure perf does not regress.
   48|  50.3k|            match self.quote_classified.block[idx] {
   49|  5.57k|                b':' => Structural::Colon(idx),
   50|  11.4k|                b'{' => Structural::Opening(BracketType::Curly, idx),
   51|  13.2k|                b'[' => Structural::Opening(BracketType::Square, idx),
   52|  14.7k|                b',' => Structural::Comma(idx),
   53|    822|                b'}' => Structural::Closing(BracketType::Curly, idx),
   54|  4.45k|                _ => Structural::Closing(BracketType::Square, idx),
   55|       |            }
   56|  50.3k|        })
_RNvMNtNtNtNtCseKOJhBLZIbD_8rsonpath14classification10structural6shared7mask_64INtB2_16StructuralsBlockRShE8is_emptyCs9kGaKDyuozi_20fuzz_arbitrary_bytes:
   24|  59.3k|    pub(crate) fn is_empty(&self) -> bool {
   25|  59.3k|        self.structural_mask == 0
   26|  59.3k|    }

_RNvNtNtNtNtCseKOJhBLZIbD_8rsonpath14classification10structural6shared10vector_25618commas_toggle_maskCs9kGaKDyuozi_20fuzz_arbitrary_bytes:
   43|  8.40k|pub(crate) unsafe fn commas_toggle_mask() -> __m256i {
   44|  8.40k|    _mm256_loadu_si256(COMMAS_TOGGLE_MASK_ARRAY.as_ptr().cast::<__m256i>())
   45|  8.40k|}
_RNvNtNtNtNtCseKOJhBLZIbD_8rsonpath14classification10structural6shared10vector_25617lower_nibble_maskCs9kGaKDyuozi_20fuzz_arbitrary_bytes:
   31|  39.3k|pub(crate) unsafe fn lower_nibble_mask() -> __m256i {
   32|  39.3k|    _mm256_loadu_si256(LOWER_NIBBLE_MASK_ARRAY.as_ptr().cast::<__m256i>())
   33|  39.3k|}
_RNvNtNtNtNtCseKOJhBLZIbD_8rsonpath14classification10structural6shared10vector_25625upper_nibble_zeroing_maskCs9kGaKDyuozi_20fuzz_arbitrary_bytes:
   25|  39.3k|pub(crate) unsafe fn upper_nibble_zeroing_mask() -> __m256i {
   26|  39.3k|    _mm256_set1_epi8(0x0F)
   27|  39.3k|}
_RNvMNtNtNtNtCseKOJhBLZIbD_8rsonpath14classification10structural6shared10vector_256NtB2_18BlockClassifier25613toggle_commasCs9kGaKDyuozi_20fuzz_arbitrary_bytes:
   74|  6.01k|    pub(crate) unsafe fn toggle_commas(&mut self) {
   75|  6.01k|        self.upper_nibble_mask = _mm256_xor_si256(self.upper_nibble_mask, commas_toggle_mask());
   76|  6.01k|    }
_RNvNtNtNtNtCseKOJhBLZIbD_8rsonpath14classification10structural6shared10vector_25629colons_and_commas_toggle_maskCs9kGaKDyuozi_20fuzz_arbitrary_bytes:
   55|  2.39k|pub(crate) unsafe fn colons_and_commas_toggle_mask() -> __m256i {
   56|  2.39k|    _mm256_or_si256(colons_toggle_mask(), commas_toggle_mask())
   57|  2.39k|}
_RNvNtNtNtNtCseKOJhBLZIbD_8rsonpath14classification10structural6shared10vector_25618colons_toggle_maskCs9kGaKDyuozi_20fuzz_arbitrary_bytes:
   49|  14.3k|pub(crate) unsafe fn colons_toggle_mask() -> __m256i {
   50|  14.3k|    _mm256_loadu_si256(COLON_TOGGLE_MASK_ARRAY.as_ptr().cast::<__m256i>())
   51|  14.3k|}
_RNvMNtNtNtNtCseKOJhBLZIbD_8rsonpath14classification10structural6shared10vector_256NtB2_18BlockClassifier25624toggle_colons_and_commasCs9kGaKDyuozi_20fuzz_arbitrary_bytes:
   86|  2.39k|    pub(crate) unsafe fn toggle_colons_and_commas(&mut self) {
   87|  2.39k|        self.upper_nibble_mask = _mm256_xor_si256(self.upper_nibble_mask, colons_and_commas_toggle_mask());
   88|  2.39k|    }
_RNvMNtNtNtNtCseKOJhBLZIbD_8rsonpath14classification10structural6shared10vector_256NtB2_18BlockClassifier25614classify_blockCs9kGaKDyuozi_20fuzz_arbitrary_bytes:
   92|  39.3k|    pub(crate) unsafe fn classify_block(&self, block: &[u8]) -> BlockClassification256 {
   93|  39.3k|        let byte_vector = _mm256_loadu_si256(block.as_ptr().cast::<__m256i>());
   94|  39.3k|        let shifted_byte_vector = _mm256_srli_epi16::<4>(byte_vector);
   95|  39.3k|        let upper_nibble_byte_vector = _mm256_and_si256(shifted_byte_vector, upper_nibble_zeroing_mask());
   96|  39.3k|        let lower_nibble_lookup = _mm256_shuffle_epi8(lower_nibble_mask(), byte_vector);
   97|  39.3k|        let upper_nibble_lookup = _mm256_shuffle_epi8(self.upper_nibble_mask, upper_nibble_byte_vector);
   98|  39.3k|        let structural_vector = _mm256_cmpeq_epi8(lower_nibble_lookup, upper_nibble_lookup);
   99|  39.3k|        let structural = _mm256_movemask_epi8(structural_vector) as u32;
  100|  39.3k|
  101|  39.3k|        BlockClassification256 { structural }
  102|  39.3k|    }
_RNvMNtNtNtNtCseKOJhBLZIbD_8rsonpath14classification10structural6shared10vector_256NtB2_18BlockClassifier25613toggle_colonsCs9kGaKDyuozi_20fuzz_arbitrary_bytes:
   80|  11.9k|    pub(crate) unsafe fn toggle_colons(&mut self) {
   81|  11.9k|        self.upper_nibble_mask = _mm256_xor_si256(self.upper_nibble_mask, colons_toggle_mask());
   82|  11.9k|    }
_RNvNtNtNtNtCseKOJhBLZIbD_8rsonpath14classification10structural6shared10vector_25617upper_nibble_maskB9_:
   37|  1.96k|pub(crate) unsafe fn upper_nibble_mask() -> __m256i {
   38|  1.96k|    _mm256_loadu_si256(UPPER_NIBBLE_MASK_ARRAY.as_ptr().cast::<__m256i>())
   39|  1.96k|}
_RNvMNtNtNtNtCseKOJhBLZIbD_8rsonpath14classification10structural6shared10vector_256NtB2_18BlockClassifier2563newBa_:
   66|  1.96k|    pub(crate) unsafe fn new() -> Self {
   67|  1.96k|        Self {
   68|  1.96k|            upper_nibble_mask: upper_nibble_mask(),
   69|  1.96k|        }
   70|  1.96k|    }

_RNvXs0_NtCseKOJhBLZIbD_8rsonpath5depthNtB5_5DepthNtNtNtCslATUeuPuGvJ_4core3ops5deref5Deref5derefCs9kGaKDyuozi_20fuzz_arbitrary_bytes:
   80|  28.1k|    fn deref(&self) -> &Self::Target {
   81|  28.1k|        &self.0
   82|  28.1k|    }
_RNvXs9_NtCseKOJhBLZIbD_8rsonpath5depthNtB5_5DepthNtNtCslATUeuPuGvJ_4core3cmp10PartialOrd11partial_cmpCs9kGaKDyuozi_20fuzz_arbitrary_bytes:
    9|  31.1k|#[derive(Clone, Copy, Debug, Default, PartialEq, Eq, PartialOrd, Ord, Hash)]
_RNvXs6_NtCseKOJhBLZIbD_8rsonpath5depthNtB5_5DepthNtNtCslATUeuPuGvJ_4core3cmp9PartialEq2eqCs9kGaKDyuozi_20fuzz_arbitrary_bytes:
    9|  56.3k|#[derive(Clone, Copy, Debug, Default, PartialEq, Eq, PartialOrd, Ord, Hash)]
_RNvXsc_NtCseKOJhBLZIbD_8rsonpath5depthNtB5_5DepthINtNtNtCslATUeuPuGvJ_4core3ops5arith3AddhE3addB7_:
   40|  24.7k|            fn add(self, rhs: u8) -> Self::Output {
   41|  24.7k|                self.0
   42|  24.7k|                    .checked_add(rhs)
   43|  24.7k|                    .ok_or(DepthError::AboveLimit(u8::MAX as usize))
   44|  24.7k|                    .map(Depth)
   45|  24.7k|            }
_RNvMNtCseKOJhBLZIbD_8rsonpath5depthNtB2_5Depth9increment:
   21|  24.7k|    pub fn increment(&mut self) -> Result<(), DepthError> {
   22|  24.7k|        *self = (*self + 1)?;
   23|  24.7k|        Ok(())
   24|  24.7k|    }
_RNvXsf_NtCseKOJhBLZIbD_8rsonpath5depthNtB5_5DepthINtNtNtCslATUeuPuGvJ_4core3ops5arith3SubhE3subB7_:
   56|  5.27k|            fn sub(self, rhs: u8) -> Self::Output {
   57|  5.27k|                self.0.checked_sub(rhs).ok_or(DepthError::BelowZero).map(Depth)
   58|  5.27k|            }
_RNvMNtCseKOJhBLZIbD_8rsonpath5depthNtB2_5Depth9decrement:
   28|  5.27k|    pub fn decrement(&mut self) -> Result<(), DepthError> {
   29|  5.27k|        *self = (*self - 1)?;
   30|  5.27k|        Ok(())
   31|  5.27k|    }

_RNvMNtNtCseKOJhBLZIbD_8rsonpath6engine13head_skippingINtB2_8HeadSkipNtNtNtB6_5input8borrowed13BorrowedBytesINtNtNtB6_14classification4simd12ResolvedSimdNtNtNtB1M_6quotes7avx2_6411ConstructorNtNtNtB1M_10structural7avx2_6411ConstructorNtNtNtB1M_5depth7avx2_6411ConstructorNtNtNtB1M_6memmem7avx2_6411ConstructorKj1_EKj40_E3newCs9kGaKDyuozi_20fuzz_arbitrary_bytes:
   97|  1.96k|    pub(super) fn new(bytes: &'b I, automaton: &'b Automaton<'q>, simd: V) -> Option<Self> {
   98|  1.96k|        let initial_state = automaton.initial_state();
   99|  1.96k|        let fallback_state = automaton[initial_state].fallback_state();
  100|  1.96k|        let transitions = automaton[initial_state].transitions();
  101|  1.96k|
  102|  1.96k|        if fallback_state == initial_state && transitions.len() == 1 {
  103|      0|            let (label, target_state) = transitions[0];
  104|       |
  105|      0|            if let Some(member_name) = label.get_member_name() {
  106|      0|                debug!("Automaton starts with a descendant search, using memmem heuristic.");
  107|       |
  108|      0|                return Some(Self {
  109|      0|                    bytes,
  110|      0|                    state: target_state,
  111|      0|                    is_accepting: automaton.is_accepting(target_state),
  112|      0|                    member_name,
  113|      0|                    simd,
  114|      0|                });
  115|      0|            }
  116|  1.96k|        }
  117|       |
  118|  1.96k|        None
  119|  1.96k|    }

_RNvXs3_NtNtCseKOJhBLZIbD_8rsonpath6engine4mainNtNtB9_6result15MatchedNodeTypeINtNtCslATUeuPuGvJ_4core7convert4FromNtB5_12NodeTypeHintE4from:
  683|  43.6k|    fn from(value: NodeTypeHint) -> Self {
  684|  43.6k|        match value {
  685|  20.8k|            NodeTypeHint::Atomic => Self::Atomic,
  686|  22.8k|            NodeTypeHint::Complex(_) => Self::Complex,
  687|       |        }
  688|  43.6k|    }
_RNvMs0_NtNtCseKOJhBLZIbD_8rsonpath6engine4mainINtB5_8ExecutorNtNtNtB9_5input8borrowed13BorrowedBytesINtNtNtB9_6result5nodes13NodesRecorderRShINtNtCshJIxznpEM8j_5alloc3vec3VecNtB1F_5MatchEEINtNtNtB9_14classification4simd12ResolvedSimdNtNtNtB35_6quotes7avx2_6411ConstructorNtNtNtB35_10structural7avx2_6411ConstructorNtNtNtB35_5depth7avx2_6411ConstructorNtNtNtB35_6memmem7avx2_6411ConstructorKj1_EE24record_match_detected_atCs9kGaKDyuozi_20fuzz_arbitrary_bytes:
  269|  44.0k|    fn record_match_detected_at(&mut self, start_idx: usize, hint: NodeTypeHint) -> Result<(), EngineError> {
  270|      0|        debug!("Reporting result somewhere after {start_idx} with hint {hint:?}");
  271|       |
  272|  44.0k|        let index = match hint {
  273|  10.9k|            NodeTypeHint::Complex(BracketType::Curly) => self.input.seek_forward(start_idx, [b'{']).e()?,
  274|  11.9k|            NodeTypeHint::Complex(BracketType::Square) => self.input.seek_forward(start_idx, [b'[']).e()?,
  275|  21.2k|            NodeTypeHint::Atomic => self.input.seek_non_whitespace_forward(start_idx).e()?,
  276|       |        }
  277|  44.0k|        .map(|x| x.0);
  278|  44.0k|
  279|  44.0k|        match index {
  280|  43.6k|            Some(idx) => self.recorder.record_match(idx, self.depth, hint.into()),
  281|    393|            None => Err(EngineError::MissingItem()),
  282|       |        }
  283|  44.0k|    }
_RNCNvMs0_NtNtCseKOJhBLZIbD_8rsonpath6engine4mainINtB7_8ExecutorNtNtNtBb_5input8borrowed13BorrowedBytesINtNtNtBb_6result5nodes13NodesRecorderRShINtNtCshJIxznpEM8j_5alloc3vec3VecNtB1H_5MatchEEINtNtNtBb_14classification4simd12ResolvedSimdNtNtNtB37_6quotes7avx2_6411ConstructorNtNtNtB37_10structural7avx2_6411ConstructorNtNtNtB37_5depth7avx2_6411ConstructorNtNtNtB37_6memmem7avx2_6411ConstructorKj1_EE12handle_colon0Cs9kGaKDyuozi_20fuzz_arbitrary_bytes:
  322|  4.45k|            let is_next_closing = self.next_event.map_or(false, |s| s.is_closing());
_RNvMs0_NtNtCseKOJhBLZIbD_8rsonpath6engine4mainINtB5_8ExecutorNtNtNtB9_5input8borrowed13BorrowedBytesINtNtNtB9_6result5nodes13NodesRecorderRShINtNtCshJIxznpEM8j_5alloc3vec3VecNtB1F_5MatchEEINtNtNtB9_14classification4simd12ResolvedSimdNtNtNtB35_6quotes7avx2_6411ConstructorNtNtNtB35_10structural7avx2_6411ConstructorNtNtNtB35_5depth7avx2_6411ConstructorNtNtNtB35_6memmem7avx2_6411ConstructorKj1_EE12run_and_exitCs9kGaKDyuozi_20fuzz_arbitrary_bytes:
  212|  1.96k|    fn run_and_exit(mut self) -> Result<(), EngineError> {
  213|  1.96k|        let iter = self.input.iter_blocks(self.recorder);
  214|  1.96k|        let quote_classifier = self.simd.classify_quoted_sequences(iter);
  215|  1.96k|        let structural_classifier = self.simd.classify_structural_characters(quote_classifier);
  216|  1.96k|        let mut classifier = TailSkip::new(structural_classifier, self.simd);
  217|  1.96k|
  218|  1.96k|        self.run_on_subtree(&mut classifier)?;
  219|       |
  220|  1.55k|        self.verify_subtree_closed()
  221|  1.96k|    }
_RNvMs0_NtNtCseKOJhBLZIbD_8rsonpath6engine4mainINtB5_8ExecutorNtNtNtB9_5input8borrowed13BorrowedBytesINtNtNtB9_6result5nodes13NodesRecorderRShINtNtCshJIxznpEM8j_5alloc3vec3VecNtB1F_5MatchEEINtNtNtB9_14classification4simd12ResolvedSimdNtNtNtB35_6quotes7avx2_6411ConstructorNtNtNtB35_10structural7avx2_6411ConstructorNtNtNtB35_5depth7avx2_6411ConstructorNtNtNtB35_6memmem7avx2_6411ConstructorKj1_EE14run_on_subtreeCs9kGaKDyuozi_20fuzz_arbitrary_bytes:
  223|  1.96k|    fn run_on_subtree(&mut self, classifier: &mut Classifier!()) -> Result<(), EngineError> {
  224|  1.96k|        dispatch_simd!(self.simd; self, classifier =>
  225|       |        fn<'i, 'q, 'r, I, R, V>(eng: &mut Executor<'i, 'q, 'r, I, R, V>, classifier: &mut Classifier!()) -> Result<(), EngineError>
  226|       |        where
  227|       |            'i: 'r,
  228|       |            I: Input,
  229|       |            R: Recorder<I::Block<'i, BLOCK_SIZE>>,
  230|       |            V: Simd
  231|       |        {
  232|       |            loop {
  233|       |                if eng.next_event.is_none() {
  234|       |                    eng.next_event = match classifier.next() {
  235|       |                        Ok(e) => e,
  236|       |                        Err(err) => return Err(EngineError::InputError(err)),
  237|       |                    };
  238|       |                }
  239|       |                if let Some(event) = eng.next_event {
  240|       |                    debug!("====================");
  241|       |                    debug!("Event = {:?}", event);
  242|       |                    debug!("Depth = {:?}", eng.depth);
  243|       |                    debug!("Stack = {:?}", eng.stack);
  244|       |                    debug!("State = {:?}", eng.state);
  245|       |                    debug!("====================");
  246|       |
  247|       |                    eng.next_event = None;
  248|       |                    match event {
  249|       |                        Structural::Colon(idx) => eng.handle_colon(classifier, idx)?,
  250|       |                        Structural::Comma(idx) => eng.handle_comma(classifier, idx)?,
  251|       |                        Structural::Opening(b, idx) => eng.handle_opening(classifier, b, idx)?,
  252|       |                        Structural::Closing(_, idx) => {
  253|       |                            eng.handle_closing(classifier, idx)?;
  254|       |
  255|       |                            if eng.depth == Depth::ZERO {
  256|       |                                break;
  257|       |                            }
  258|       |                        }
  259|       |                    }
  260|       |                } else {
  261|       |                    break;
  262|       |                }
  263|       |            }
  264|       |
  265|       |            Ok(())
  266|       |        })
  267|  1.96k|    }
_RINvNtNtCseKOJhBLZIbD_8rsonpath6engine4main14query_executorNtNtNtB6_5input8borrowed13BorrowedBytesINtNtNtB6_6result5nodes13NodesRecorderRShINtNtCshJIxznpEM8j_5alloc3vec3VecNtB1D_5MatchEEINtNtNtB6_14classification4simd12ResolvedSimdNtNtNtB33_6quotes7avx2_6411ConstructorNtNtNtB33_10structural7avx2_6411ConstructorNtNtNtB33_5depth7avx2_6411ConstructorNtNtNtB33_6memmem7avx2_6411ConstructorKj1_EECs9kGaKDyuozi_20fuzz_arbitrary_bytes:
  170|  1.96k|fn query_executor<'i, 'q, 'r, I, R, V: Simd>(
  171|  1.96k|    automaton: &'i Automaton<'q>,
  172|  1.96k|    input: &'i I,
  173|  1.96k|    recorder: &'r R,
  174|  1.96k|    simd: V,
  175|  1.96k|) -> Executor<'i, 'q, 'r, I, R, V>
  176|  1.96k|where
  177|  1.96k|    I: Input,
  178|  1.96k|    R: Recorder<I::Block<'i, BLOCK_SIZE>>,
  179|  1.96k|{
  180|  1.96k|    Executor {
  181|  1.96k|        depth: Depth::ZERO,
  182|  1.96k|        state: automaton.initial_state(),
  183|  1.96k|        stack: SmallStack::new(),
  184|  1.96k|        automaton,
  185|  1.96k|        input,
  186|  1.96k|        recorder,
  187|  1.96k|        simd,
  188|  1.96k|        next_event: None,
  189|  1.96k|        is_list: false,
  190|  1.96k|        array_count: NonNegativeArrayIndex::ZERO,
  191|  1.96k|        has_any_array_item_transition: false,
  192|  1.96k|        has_any_array_item_transition_to_accepting: false,
  193|  1.96k|    }
  194|  1.96k|}
_RNvMs1_NtNtCseKOJhBLZIbD_8rsonpath6engine4mainNtB5_10SmallStack4pushCs9kGaKDyuozi_20fuzz_arbitrary_bytes:
  641|  22.8k|    fn push(&mut self, value: StackFrame) {
  642|  22.8k|        self.contents.push(value)
  643|  22.8k|    }
_RNvMs1_NtNtCseKOJhBLZIbD_8rsonpath6engine4mainNtB5_10SmallStack4peekCs9kGaKDyuozi_20fuzz_arbitrary_bytes:
  626|  5.27k|    fn peek(&mut self) -> Option<StackFrame> {
  627|  5.27k|        self.contents.last().copied()
  628|  5.27k|    }
_RNCNvMs0_NtNtCseKOJhBLZIbD_8rsonpath6engine4mainINtB7_8ExecutorNtNtNtBb_5input8borrowed13BorrowedBytesINtNtNtBb_6result5nodes13NodesRecorderRShINtNtCshJIxznpEM8j_5alloc3vec3VecNtB1H_5MatchEEINtNtNtBb_14classification4simd12ResolvedSimdNtNtNtB37_6quotes7avx2_6411ConstructorNtNtNtB37_10structural7avx2_6411ConstructorNtNtNtB37_5depth7avx2_6411ConstructorNtNtNtB37_6memmem7avx2_6411ConstructorKj1_EE14handle_opening0Cs9kGaKDyuozi_20fuzz_arbitrary_bytes:
  436|     14|            .map_err(|err| EngineError::DepthAboveLimit(idx, err))?;
_RNvMs0_NtNtCseKOJhBLZIbD_8rsonpath6engine4mainINtB5_8ExecutorNtNtNtB9_5input8borrowed13BorrowedBytesINtNtNtB9_6result5nodes13NodesRecorderRShINtNtCshJIxznpEM8j_5alloc3vec3VecNtB1F_5MatchEEINtNtNtB9_14classification4simd12ResolvedSimdNtNtNtB35_6quotes7avx2_6411ConstructorNtNtNtB35_10structural7avx2_6411ConstructorNtNtNtB35_5depth7avx2_6411ConstructorNtNtNtB35_6memmem7avx2_6411ConstructorKj1_EE20find_preceding_colonCs9kGaKDyuozi_20fuzz_arbitrary_bytes:
  559|  24.7k|    fn find_preceding_colon(&self, idx: usize) -> Option<usize> {
  560|  24.7k|        if self.depth == Depth::ZERO {
  561|  1.95k|            None
  562|       |        } else {
  563|  22.8k|            let (char_idx, char) = self.input.seek_non_whitespace_backward(idx - 1)?;
  564|       |
  565|  22.8k|            (char == b':').then_some(char_idx)
  566|       |        }
  567|  24.7k|    }
_RINvXs_NtNtCseKOJhBLZIbD_8rsonpath6engine4mainNtB5_10MainEngineNtB7_6Engine7matchesNtNtNtB9_5input8borrowed13BorrowedBytesINtNtCshJIxznpEM8j_5alloc3vec3VecNtNtB9_6result5MatchEECs9kGaKDyuozi_20fuzz_arbitrary_bytes:
  124|  1.96k|    fn matches<I, S>(&self, input: &I, sink: &mut S) -> Result<(), EngineError>
  125|  1.96k|    where
  126|  1.96k|        I: Input,
  127|  1.96k|        S: Sink<Match>,
  128|  1.96k|    {
  129|  1.96k|        if self.automaton.is_empty_query() {
  130|      0|            return empty_query::match_(input, sink);
  131|  1.96k|        }
  132|  1.96k|
  133|  1.96k|        let recorder = NodesRecorder::build_recorder(sink, input.leading_padding_len());
  134|  1.96k|        config_simd!(self.simd => |simd| {
  135|  1.96k|            let executor = query_executor(&self.automaton, input, &recorder, simd);
  136|  1.96k|            executor.run()
  137|  1.91k|        })?;
  138|       |
  139|     45|        Ok(())
  140|  1.96k|    }
_RNvMs0_NtNtCseKOJhBLZIbD_8rsonpath6engine4mainINtB5_8ExecutorNtNtNtB9_5input8borrowed13BorrowedBytesINtNtNtB9_6result5nodes13NodesRecorderRShINtNtCshJIxznpEM8j_5alloc3vec3VecNtB1F_5MatchEEINtNtNtB9_14classification4simd12ResolvedSimdNtNtNtB35_6quotes7avx2_6411ConstructorNtNtNtB35_10structural7avx2_6411ConstructorNtNtNtB35_5depth7avx2_6411ConstructorNtNtNtB35_6memmem7avx2_6411ConstructorKj1_EE12handle_colonCs9kGaKDyuozi_20fuzz_arbitrary_bytes:
  286|  5.57k|    fn handle_colon(
  287|  5.57k|        &mut self,
  288|  5.57k|        #[allow(unused_variables)] classifier: &mut Classifier!(),
  289|  5.57k|        idx: usize,
  290|  5.57k|    ) -> Result<(), EngineError> {
  291|      0|        debug!("Colon");
  292|       |
  293|  5.57k|        let is_next_opening = if let Some((_, c)) = self.input.seek_non_whitespace_forward(idx + 1).e()? {
  294|  5.50k|            c == b'{' || c == b'['
  295|       |        } else {
  296|     71|            false
  297|       |        };
  298|       |
  299|  5.57k|        if !is_next_opening {
  300|  4.60k|            let mut any_matched = false;
  301|       |
  302|  4.60k|            for &(label, target) in self.automaton[self.state].transitions() {
  303|      0|                match label {
  304|      0|                    TransitionLabel::ArrayIndex(_) => {}
  305|      0|                    TransitionLabel::ObjectMember(member_name) => {
  306|      0|                        if self.automaton.is_accepting(target) && self.is_match(idx, member_name)? {
  307|      0|                            self.record_match_detected_at(
  308|      0|                                idx + 1,
  309|      0|                                NodeTypeHint::Atomic, /* since is_next_opening is false */
  310|      0|                            )?;
  311|      0|                            any_matched = true;
  312|      0|                            break;
  313|      0|                        }
  314|       |                    }
  315|       |                }
  316|       |            }
  317|  4.60k|            let fallback_state = self.automaton[self.state].fallback_state();
  318|  4.60k|            if !any_matched && self.automaton.is_accepting(fallback_state) {
  319|  4.60k|                self.record_match_detected_at(idx + 1, NodeTypeHint::Atomic /* since is_next_opening is false */)?;
  320|      0|            }
  321|  4.53k|            self.next_event = classifier.next()?;
  322|  4.53k|            let is_next_closing = self.next_event.map_or(false, |s| s.is_closing());
  323|  4.53k|            if any_matched && !is_next_closing && self.automaton.is_unitary(self.state) {
  324|      0|                if let Some(s) = self.next_event {
  325|      0|                    match s {
  326|      0|                        Structural::Closing(_, idx) => {
  327|      0|                            self.recorder.record_value_terminator(idx, self.depth)?;
  328|       |                        }
  329|      0|                        Structural::Comma(idx) => self.recorder.record_value_terminator(idx, self.depth)?,
  330|      0|                        Structural::Colon(_) | Structural::Opening(_, _) => (),
  331|       |                    }
  332|      0|                }
  333|      0|                let bracket_type = self.current_node_bracket_type();
  334|      0|                debug!("Skipping unique state from {bracket_type:?}");
  335|      0|                let stop_at = classifier.skip(bracket_type)?;
  336|      0|                self.next_event = Some(Structural::Closing(bracket_type, stop_at));
  337|  4.53k|            }
  338|    965|        }
  339|       |
  340|  5.50k|        Ok(())
  341|  5.57k|    }
_RNvMs1_NtNtCseKOJhBLZIbD_8rsonpath6engine4mainNtB5_10SmallStack18pop_if_at_or_belowCs9kGaKDyuozi_20fuzz_arbitrary_bytes:
  631|  5.27k|    fn pop_if_at_or_below(&mut self, depth: u8) -> Option<StackFrame> {
  632|  5.27k|        if let Some(stack_frame) = self.peek() {
  633|  5.23k|            if depth <= stack_frame.depth {
  634|  5.23k|                return self.contents.pop();
  635|      0|            }
  636|     41|        }
  637|     41|        None
  638|  5.27k|    }
_RNvMs0_NtNtCseKOJhBLZIbD_8rsonpath6engine4mainINtB5_8ExecutorNtNtNtB9_5input8borrowed13BorrowedBytesINtNtNtB9_6result5nodes13NodesRecorderRShINtNtCshJIxznpEM8j_5alloc3vec3VecNtB1F_5MatchEEINtNtNtB9_14classification4simd12ResolvedSimdNtNtNtB35_6quotes7avx2_6411ConstructorNtNtNtB35_10structural7avx2_6411ConstructorNtNtNtB35_5depth7avx2_6411ConstructorNtNtNtB35_6memmem7avx2_6411ConstructorKj1_EE13transition_toCs9kGaKDyuozi_20fuzz_arbitrary_bytes:
  534|  22.8k|    fn transition_to(&mut self, target: State, opening: BracketType) {
  535|  22.8k|        let target_is_list = opening == BracketType::Square;
  536|  22.8k|
  537|  22.8k|        let fallback = self.automaton[self.state].fallback_state();
  538|  22.8k|        let is_fallback_accepting = self.automaton.is_accepting(fallback);
  539|  22.8k|        let searching_list = is_fallback_accepting || self.has_any_array_item_transition;
  540|       |
  541|  22.8k|        if target != self.state || target_is_list != self.is_list || searching_list {
  542|       |            debug!(
  543|      0|                "push {}, goto {target}, is_list = {target_is_list}, array_count: {}",
  544|       |                self.state, self.array_count
  545|       |            );
  546|       |
  547|  22.8k|            self.stack.push(StackFrame {
  548|  22.8k|                depth: *self.depth,
  549|  22.8k|                state: self.state,
  550|  22.8k|                is_list: self.is_list,
  551|  22.8k|                array_count: self.array_count,
  552|  22.8k|                has_any_array_item_transition: self.has_any_array_item_transition,
  553|  22.8k|                has_any_array_item_transition_to_accepting: self.has_any_array_item_transition_to_accepting,
  554|  22.8k|            });
  555|  22.8k|            self.state = target;
  556|      0|        }
  557|  22.8k|    }
_RINvNvMs0_NtNtCseKOJhBLZIbD_8rsonpath6engine4mainINtB8_8ExecutorpppE14run_on_subtree21avx2_pclmulqdq_popcntNtNtNtBc_5input8borrowed13BorrowedBytesINtNtNtBc_6result5nodes13NodesRecorderRShINtNtCshJIxznpEM8j_5alloc3vec3VecNtB2p_5MatchEEINtNtNtBc_14classification4simd12ResolvedSimdNtNtNtB3P_6quotes7avx2_6411ConstructorNtNtNtB3P_10structural7avx2_6411ConstructorNtNtNtB3P_5depth7avx2_6411ConstructorNtNtNtB3P_6memmem7avx2_6411ConstructorKj1_EECs9kGaKDyuozi_20fuzz_arbitrary_bytes:
  231|  1.96k|        {
  232|  51.9k|            loop {
  233|  51.9k|                if eng.next_event.is_none() {
  234|  47.4k|                    eng.next_event = match classifier.next() {
  235|  47.4k|                        Ok(e) => e,
  236|      0|                        Err(err) => return Err(EngineError::InputError(err)),
  237|       |                    };
  238|  4.45k|                }
  239|  51.9k|                if let Some(event) = eng.next_event {
  240|      0|                    debug!("====================");
  241|      0|                    debug!("Event = {:?}", event);
  242|      0|                    debug!("Depth = {:?}", eng.depth);
  243|      0|                    debug!("Stack = {:?}", eng.stack);
  244|      0|                    debug!("State = {:?}", eng.state);
  245|      0|                    debug!("====================");
  246|       |
  247|  50.3k|                    eng.next_event = None;
  248|  50.3k|                    match event {
  249|  5.57k|                        Structural::Colon(idx) => eng.handle_colon(classifier, idx)?,
  250|  14.7k|                        Structural::Comma(idx) => eng.handle_comma(classifier, idx)?,
  251|  24.7k|                        Structural::Opening(b, idx) => eng.handle_opening(classifier, b, idx)?,
  252|  5.27k|                        Structural::Closing(_, idx) => {
  253|  5.27k|                            eng.handle_closing(classifier, idx)?;
  254|       |
  255|  5.27k|                            if eng.depth == Depth::ZERO {
  256|     41|                                break;
  257|  5.23k|                            }
  258|       |                        }
  259|       |                    }
  260|       |                } else {
  261|  1.51k|                    break;
  262|       |                }
  263|       |            }
  264|       |
  265|  1.55k|            Ok(())
_RNvXNtNtCseKOJhBLZIbD_8rsonpath6engine4mainNtB2_10MainEngineNtB4_8Compiler13compile_query:
   50|  1.96k|    fn compile_query(query: &JsonPathQuery) -> Result<MainEngine, CompilerError> {
   51|  1.96k|        let automaton = Automaton::new(query)?;
   52|      0|        debug!("DFA:\n {}", automaton);
   53|  1.96k|        let simd = simd::configure();
   54|  1.96k|        log::info!("SIMD configuration:\n {}", simd);
   55|  1.96k|        Ok(MainEngine { automaton, simd })
   56|  1.96k|    }
_RNvMs0_NtNtCseKOJhBLZIbD_8rsonpath6engine4mainINtB5_8ExecutorNtNtNtB9_5input8borrowed13BorrowedBytesINtNtNtB9_6result5nodes13NodesRecorderRShINtNtCshJIxznpEM8j_5alloc3vec3VecNtB1F_5MatchEEINtNtNtB9_14classification4simd12ResolvedSimdNtNtNtB35_6quotes7avx2_6411ConstructorNtNtNtB35_10structural7avx2_6411ConstructorNtNtNtB35_5depth7avx2_6411ConstructorNtNtNtB35_6memmem7avx2_6411ConstructorKj1_EE3runCs9kGaKDyuozi_20fuzz_arbitrary_bytes:
  203|  1.96k|    fn run(mut self) -> Result<(), EngineError> {
  204|  1.96k|        let mb_head_skip = HeadSkip::new(self.input, self.automaton, self.simd);
  205|  1.96k|
  206|  1.96k|        match mb_head_skip {
  207|      0|            Some(head_skip) => head_skip.run_head_skipping(&mut self),
  208|  1.96k|            None => self.run_and_exit(),
  209|       |        }
  210|  1.96k|    }
_RNvMs0_NtNtCseKOJhBLZIbD_8rsonpath6engine4mainINtB5_8ExecutorNtNtNtB9_5input8borrowed13BorrowedBytesINtNtNtB9_6result5nodes13NodesRecorderRShINtNtCshJIxznpEM8j_5alloc3vec3VecNtB1F_5MatchEEINtNtNtB9_14classification4simd12ResolvedSimdNtNtNtB35_6quotes7avx2_6411ConstructorNtNtNtB35_10structural7avx2_6411ConstructorNtNtNtB35_5depth7avx2_6411ConstructorNtNtNtB35_6memmem7avx2_6411ConstructorKj1_EE12handle_commaCs9kGaKDyuozi_20fuzz_arbitrary_bytes:
  344|  14.7k|    fn handle_comma(&mut self, _classifier: &mut Classifier!(), idx: usize) -> Result<(), EngineError> {
  345|  14.7k|        self.recorder.record_value_terminator(idx, self.depth)?;
  346|  14.7k|        let is_next_opening = if let Some((_, c)) = self.input.seek_non_whitespace_forward(idx + 1).e()? {
  347|  14.3k|            c == b'{' || c == b'['
  348|       |        } else {
  349|    434|            false
  350|       |        };
  351|       |
  352|  14.7k|        let is_fallback_accepting = self.automaton.is_accepting(self.automaton[self.state].fallback_state());
  353|  14.7k|
  354|  14.7k|        if !is_next_opening && self.is_list && is_fallback_accepting {
  355|      0|            debug!("Accepting on comma.");
  356|  12.4k|            self.record_match_detected_at(idx + 1, NodeTypeHint::Atomic /* since is_next_opening is false */)?;
  357|  2.33k|        }
  358|       |
  359|       |        // After wildcard, check for a matching array index.
  360|       |        // If the index increment exceeds the field's limit, give up.
  361|  14.4k|        if self.is_list && self.array_count.try_increment().is_err() {
  362|      0|            return Ok(());
  363|  14.4k|        }
  364|      0|        debug!("Incremented array count to {}", self.array_count);
  365|       |
  366|  14.4k|        let match_index = self
  367|  14.4k|            .automaton
  368|  14.4k|            .has_array_index_transition_to_accepting(self.state, &self.array_count);
  369|  14.4k|
  370|  14.4k|        if self.is_list && !is_next_opening && match_index {
  371|      0|            debug!("Accepting on list item.");
  372|      0|            self.record_match_detected_at(idx + 1, NodeTypeHint::Atomic /* since is_next_opening is false */)?;
  373|  14.4k|        }
  374|       |
  375|  14.4k|        Ok(())
  376|  14.7k|    }
_RNCNvMs0_NtNtCseKOJhBLZIbD_8rsonpath6engine4mainINtB7_8ExecutorNtNtNtBb_5input8borrowed13BorrowedBytesINtNtNtBb_6result5nodes13NodesRecorderRShINtNtCshJIxznpEM8j_5alloc3vec3VecNtB1H_5MatchEEINtNtNtBb_14classification4simd12ResolvedSimdNtNtNtB37_6quotes7avx2_6411ConstructorNtNtNtB37_10structural7avx2_6411ConstructorNtNtNtB37_5depth7avx2_6411ConstructorNtNtNtB37_6memmem7avx2_6411ConstructorKj1_EE14handle_closing0Cs9kGaKDyuozi_20fuzz_arbitrary_bytes:
  494|      2|            .map_err(|err| EngineError::DepthBelowZero(idx, err))?;
_RNvMs0_NtNtCseKOJhBLZIbD_8rsonpath6engine4mainINtB5_8ExecutorNtNtNtB9_5input8borrowed13BorrowedBytesINtNtNtB9_6result5nodes13NodesRecorderRShINtNtCshJIxznpEM8j_5alloc3vec3VecNtB1F_5MatchEEINtNtNtB9_14classification4simd12ResolvedSimdNtNtNtB35_6quotes7avx2_6411ConstructorNtNtNtB35_10structural7avx2_6411ConstructorNtNtNtB35_5depth7avx2_6411ConstructorNtNtNtB35_6memmem7avx2_6411ConstructorKj1_EE14handle_closingCs9kGaKDyuozi_20fuzz_arbitrary_bytes:
  489|  5.27k|    fn handle_closing(&mut self, classifier: &mut Classifier!(), idx: usize) -> Result<(), EngineError> {
  490|      0|        debug!("Closing, decreasing depth and popping stack.");
  491|       |
  492|  5.27k|        self.depth
  493|  5.27k|            .decrement()
  494|  5.27k|            .map_err(|err| EngineError::DepthBelowZero(idx, err))?;
  495|  5.27k|        self.recorder.record_value_terminator(idx, self.depth)?;
  496|       |
  497|  5.27k|        if let Some(stack_frame) = self.stack.pop_if_at_or_below(*self.depth) {
  498|  5.23k|            self.state = stack_frame.state;
  499|  5.23k|            self.is_list = stack_frame.is_list;
  500|  5.23k|            self.array_count = stack_frame.array_count;
  501|  5.23k|            self.has_any_array_item_transition = stack_frame.has_any_array_item_transition;
  502|  5.23k|            self.has_any_array_item_transition_to_accepting = stack_frame.has_any_array_item_transition_to_accepting;
  503|       |
  504|      0|            debug!("Restored array count to {}", self.array_count);
  505|       |
  506|  5.23k|            if self.automaton.is_unitary(self.state) {
  507|      0|                let bracket_type = self.current_node_bracket_type();
  508|      0|                debug!("Skipping unique state from {bracket_type:?}");
  509|      0|                let close_idx = classifier.skip(bracket_type)?;
  510|      0|                self.next_event = Some(Structural::Closing(bracket_type, close_idx));
  511|      0|                return Ok(());
  512|  5.23k|            }
  513|     41|        }
  514|       |
  515|  5.27k|        if self.is_list
  516|  2.05k|            && (self.automaton.is_accepting(self.automaton[self.state].fallback_state())
  517|      0|                || self.has_any_array_item_transition)
  518|  2.05k|        {
  519|  2.05k|            classifier.turn_commas_on(idx);
  520|  3.22k|        } else {
  521|  3.22k|            classifier.turn_commas_off();
  522|  3.22k|        }
  523|       |
  524|  5.27k|        if !self.is_list && self.automaton.has_transition_to_accepting(self.state) {
  525|  3.22k|            classifier.turn_colons_and_commas_on(idx);
  526|  3.22k|        } else {
  527|  2.05k|            classifier.turn_colons_off();
  528|  2.05k|        }
  529|       |
  530|  5.27k|        Ok(())
  531|  5.27k|    }
_RNvMs0_NtNtCseKOJhBLZIbD_8rsonpath6engine4mainINtB5_8ExecutorNtNtNtB9_5input8borrowed13BorrowedBytesINtNtNtB9_6result5nodes13NodesRecorderRShINtNtCshJIxznpEM8j_5alloc3vec3VecNtB1F_5MatchEEINtNtNtB9_14classification4simd12ResolvedSimdNtNtNtB35_6quotes7avx2_6411ConstructorNtNtNtB35_10structural7avx2_6411ConstructorNtNtNtB35_5depth7avx2_6411ConstructorNtNtNtB35_6memmem7avx2_6411ConstructorKj1_EE21verify_subtree_closedCs9kGaKDyuozi_20fuzz_arbitrary_bytes:
  588|  1.55k|    fn verify_subtree_closed(&self) -> Result<(), EngineError> {
  589|  1.55k|        if self.depth != Depth::ZERO {
  590|  1.50k|            Err(EngineError::MissingClosingCharacter())
  591|       |        } else {
  592|     45|            Ok(())
  593|       |        }
  594|  1.55k|    }
_RNCNvMs0_NtNtCseKOJhBLZIbD_8rsonpath6engine4mainINtB7_8ExecutorNtNtNtBb_5input8borrowed13BorrowedBytesINtNtNtBb_6result5nodes13NodesRecorderRShINtNtCshJIxznpEM8j_5alloc3vec3VecNtB1H_5MatchEEINtNtNtBb_14classification4simd12ResolvedSimdNtNtNtB37_6quotes7avx2_6411ConstructorNtNtNtB37_10structural7avx2_6411ConstructorNtNtNtB37_5depth7avx2_6411ConstructorNtNtNtB37_6memmem7avx2_6411ConstructorKj1_EE24record_match_detected_at0Cs9kGaKDyuozi_20fuzz_arbitrary_bytes:
  277|  43.6k|        .map(|x| x.0);
_RNvMs0_NtNtCseKOJhBLZIbD_8rsonpath6engine4mainINtB5_8ExecutorNtNtNtB9_5input8borrowed13BorrowedBytesINtNtNtB9_6result5nodes13NodesRecorderRShINtNtCshJIxznpEM8j_5alloc3vec3VecNtB1F_5MatchEEINtNtNtB9_14classification4simd12ResolvedSimdNtNtNtB35_6quotes7avx2_6411ConstructorNtNtNtB35_10structural7avx2_6411ConstructorNtNtNtB35_5depth7avx2_6411ConstructorNtNtNtB35_6memmem7avx2_6411ConstructorKj1_EE14handle_openingCs9kGaKDyuozi_20fuzz_arbitrary_bytes:
  379|  24.7k|    fn handle_opening(
  380|  24.7k|        &mut self,
  381|  24.7k|        classifier: &mut Classifier!(),
  382|  24.7k|        bracket_type: BracketType,
  383|  24.7k|        idx: usize,
  384|  24.7k|    ) -> Result<(), EngineError> {
  385|      0|        debug!("Opening {bracket_type:?}, increasing depth and pushing stack.",);
  386|  24.7k|        let mut any_matched = false;
  387|  24.7k|
  388|  24.7k|        let colon_idx = self.find_preceding_colon(idx);
  389|       |
  390|  24.7k|        for &(label, target) in self.automaton[self.state].transitions() {
  391|      0|            match label {
  392|      0|                TransitionLabel::ArrayIndex(i) => {
  393|      0|                    if self.is_list && i.eq(&self.array_count) {
  394|      0|                        any_matched = true;
  395|      0|                        self.transition_to(target, bracket_type);
  396|      0|                        if self.automaton.is_accepting(target) {
  397|      0|                            debug!("Accept {idx}");
  398|      0|                            self.record_match_detected_at(idx, NodeTypeHint::Complex(bracket_type))?;
  399|      0|                        }
  400|      0|                        break;
  401|      0|                    }
  402|       |                }
  403|      0|                TransitionLabel::ObjectMember(member_name) => {
  404|      0|                    if let Some(colon_idx) = colon_idx {
  405|      0|                        if self.is_match(colon_idx, member_name)? {
  406|      0|                            any_matched = true;
  407|      0|                            self.transition_to(target, bracket_type);
  408|      0|                            if self.automaton.is_accepting(target) {
  409|      0|                                self.record_match_detected_at(colon_idx + 1, NodeTypeHint::Complex(bracket_type))?;
  410|      0|                            }
  411|      0|                            break;
  412|      0|                        }
  413|      0|                    }
  414|       |                }
  415|       |            }
  416|       |        }
  417|       |
  418|  24.7k|        if !any_matched && self.depth != Depth::ZERO {
  419|  22.8k|            let fallback = self.automaton[self.state].fallback_state();
  420|      0|            debug!("Falling back to {fallback}");
  421|       |
  422|  22.8k|            if self.automaton.is_rejecting(fallback) {
  423|      0|                let closing_idx = classifier.skip(bracket_type)?;
  424|      0|                return self.recorder.record_value_terminator(closing_idx, self.depth);
  425|  22.8k|            } else {
  426|  22.8k|                self.transition_to(fallback, bracket_type);
  427|  22.8k|            }
  428|  22.8k|
  429|  22.8k|            if self.automaton.is_accepting(fallback) {
  430|  22.8k|                self.record_match_detected_at(idx, NodeTypeHint::Complex(bracket_type))?;
  431|      0|            }
  432|  1.95k|        }
  433|       |
  434|  24.7k|        self.depth
  435|  24.7k|            .increment()
  436|  24.7k|            .map_err(|err| EngineError::DepthAboveLimit(idx, err))?;
  437|       |
  438|  24.7k|        self.is_list = bracket_type == BracketType::Square;
  439|  24.7k|        let mut needs_commas = false;
  440|  24.7k|
  441|  24.7k|        if self.is_list {
  442|  13.2k|            self.has_any_array_item_transition = self.automaton.has_any_array_item_transition(self.state);
  443|  13.2k|            self.has_any_array_item_transition_to_accepting =
  444|  13.2k|                self.automaton.has_any_array_item_transition_to_accepting(self.state);
  445|  13.2k|
  446|  13.2k|            let fallback = self.automaton[self.state].fallback_state();
  447|  13.2k|            let is_fallback_accepting = self.automaton.is_accepting(fallback);
  448|       |
  449|  13.2k|            let searching_list = is_fallback_accepting || self.has_any_array_item_transition;
  450|       |
  451|  13.2k|            if searching_list {
  452|  13.2k|                needs_commas = true;
  453|  13.2k|                self.array_count = NonNegativeArrayIndex::ZERO;
  454|      0|                debug!("Initialized array count to {}", self.array_count);
  455|       |
  456|  13.2k|                let wants_first_item =
  457|  13.2k|                    is_fallback_accepting || self.automaton.has_first_array_index_transition_to_accepting(self.state);
  458|       |
  459|  13.2k|                if wants_first_item {
  460|  13.2k|                    let next = self.input.seek_non_whitespace_forward(idx + 1).e()?;
  461|       |
  462|  13.2k|                    match next {
  463|  8.55k|                        Some((_, b'[' | b'{' | b']')) => (), // Complex value or empty list.
  464|  4.21k|                        Some((value_idx, _)) => {
  465|  4.21k|                            self.record_match_detected_at(
  466|  4.21k|                                value_idx,
  467|  4.21k|                                NodeTypeHint::Atomic, /* since the next structural is a ','*/
  468|  4.21k|                            )?;
  469|       |                        }
  470|    518|                        _ => (),
  471|       |                    }
  472|      0|                }
  473|      0|            }
  474|  11.4k|        }
  475|       |
  476|  24.7k|        if !self.is_list && self.automaton.has_transition_to_accepting(self.state) {
  477|  11.4k|            classifier.turn_colons_and_commas_on(idx);
  478|  13.2k|        } else if needs_commas {
  479|  13.2k|            classifier.turn_colons_off();
  480|  13.2k|            classifier.turn_commas_on(idx);
  481|  13.2k|        } else {
  482|      0|            classifier.turn_colons_and_commas_off();
  483|      0|        }
  484|       |
  485|  24.7k|        Ok(())
  486|  24.7k|    }
_RNvMs1_NtNtCseKOJhBLZIbD_8rsonpath6engine4mainNtB5_10SmallStack3new:
  621|  1.96k|    fn new() -> Self {
  622|  1.96k|        Self { contents: smallvec![] }
  623|  1.96k|    }

_RNvMNtNtCseKOJhBLZIbD_8rsonpath6engine13tail_skippingINtB2_8TailSkipINtNtNtB6_5input8borrowed26BorrowedBytesBlockIteratorNtNtB19_7padding19TwoSidesPaddedInputINtNtNtB6_6result5nodes13NodesRecorderRShINtNtCshJIxznpEM8j_5alloc3vec3VecNtB2B_5MatchEEKj40_EINtNtNtNtB6_14classification6quotes7avx2_6421Avx2QuoteClassifier64B14_EINtNtNtB49_10structural7avx2_6416Avx2Classifier64B14_B42_EINtNtB49_4simd12ResolvedSimdNtB45_11ConstructorNtB5e_11ConstructorNtNtNtB49_5depth7avx2_6411ConstructorNtNtNtB49_6memmem7avx2_6411ConstructorKj1_EKB3X_E3newCs9kGaKDyuozi_20fuzz_arbitrary_bytes:
   28|  1.96k|    pub(crate) fn new(classifier: V::StructuralClassifier<'i, I>, simd: V) -> Self {
   29|  1.96k|        Self {
   30|  1.96k|            classifier: Some(classifier),
   31|  1.96k|            simd,
   32|  1.96k|            _phantom: (PhantomData, PhantomData),
   33|  1.96k|        }
   34|  1.96k|    }
_RNvXs0_NtNtCseKOJhBLZIbD_8rsonpath6engine13tail_skippingINtB5_8TailSkipINtNtNtB9_5input8borrowed26BorrowedBytesBlockIteratorNtNtB1c_7padding19TwoSidesPaddedInputINtNtNtB9_6result5nodes13NodesRecorderRShINtNtCshJIxznpEM8j_5alloc3vec3VecNtB2E_5MatchEEKj40_EINtNtNtNtB9_14classification6quotes7avx2_6421Avx2QuoteClassifier64B17_EINtNtNtB4c_10structural7avx2_6416Avx2Classifier64B17_B45_EINtNtB4c_4simd12ResolvedSimdNtB48_11ConstructorNtB5h_11ConstructorNtNtNtB4c_5depth7avx2_6411ConstructorNtNtNtB4c_6memmem7avx2_6411ConstructorKj1_EKB40_ENtNtNtCslATUeuPuGvJ_4core3ops5deref8DerefMut9deref_mutCs9kGaKDyuozi_20fuzz_arbitrary_bytes:
  138|   100k|    fn deref_mut(&mut self) -> &mut Self::Target {
  139|   100k|        self.classifier
  140|   100k|            .as_mut()
  141|   100k|            .expect("tail skip must always hold a classifier")
  142|   100k|    }

_RINvNtCseKOJhBLZIbD_8rsonpath5input8align_toKj80_ECs9kGaKDyuozi_20fuzz_arbitrary_bytes:
  225|  1.96k|fn align_to<const N: usize>(bytes: &[u8]) -> (&[u8], &[u8], &[u8]) {
  226|  1.96k|    let ptr = bytes.as_ptr();
  227|  1.96k|    let offset = ptr.align_offset(N);
  228|  1.96k|    if offset > bytes.len() {
  229|    662|        (bytes, &[], &[])
  230|       |    } else {
  231|  1.29k|        let (left, rest) = bytes.split_at(offset);
  232|  1.29k|        let middle_len = (rest.len() / N) * N;
  233|  1.29k|        let (middle, right) = rest.split_at(middle_len);
  234|  1.29k|
  235|  1.29k|        (left, middle, right)
  236|       |    }
  237|  1.96k|}
_RNvXNtCseKOJhBLZIbD_8rsonpath5inputRShINtB2_10InputBlockKj40_E6halvesCs9kGaKDyuozi_20fuzz_arbitrary_bytes:
  206|  29.2k|    fn halves(&self) -> (&[u8], &[u8]) {
  207|  29.2k|        assert_eq!(N % 2, 0);
  208|  29.2k|        (&self[..N / 2], &self[N / 2..])
  209|  29.2k|    }

_RNvMNtNtCseKOJhBLZIbD_8rsonpath5input8borrowedNtB2_13BorrowedBytes15as_padded_inputCs9kGaKDyuozi_20fuzz_arbitrary_bytes:
   56|  46.0k|    pub(super) fn as_padded_input(&self) -> TwoSidesPaddedInput {
   57|  46.0k|        TwoSidesPaddedInput::new(&self.first_block, self.middle_bytes, &self.last_block)
   58|  46.0k|    }
_RNvXs3_NtNtCseKOJhBLZIbD_8rsonpath5input8borrowedINtB5_26BorrowedBytesBlockIteratorNtNtB7_7padding19TwoSidesPaddedInputINtNtNtB9_6result5nodes13NodesRecorderRShINtNtCshJIxznpEM8j_5alloc3vec3VecNtB1Y_5MatchEEKj40_EINtB7_18InputBlockIteratorKB3k_E10get_offsetCs9kGaKDyuozi_20fuzz_arbitrary_bytes:
  286|  50.5k|    fn get_offset(&self) -> usize {
  287|      0|        debug!("getting input iter {}", self.idx);
  288|  50.5k|        self.idx
  289|  50.5k|    }
_RNvMNtNtCseKOJhBLZIbD_8rsonpath5input8borrowedNtB2_13BorrowedBytes3new:
   44|  1.96k|    pub fn new(bytes: &'a [u8]) -> Self {
   45|  1.96k|        let (first, middle, last) = align_to::<MAX_BLOCK_SIZE>(bytes);
   46|  1.96k|        let first_block = PaddedBlock::pad_first_block(first);
   47|  1.96k|        let last_block = PaddedBlock::pad_last_block(last);
   48|  1.96k|
   49|  1.96k|        Self {
   50|  1.96k|            middle_bytes: middle,
   51|  1.96k|            first_block,
   52|  1.96k|            last_block,
   53|  1.96k|        }
   54|  1.96k|    }
_RNvXs3_NtNtCseKOJhBLZIbD_8rsonpath5input8borrowedINtB5_26BorrowedBytesBlockIteratorNtNtB7_7padding19TwoSidesPaddedInputINtNtNtB9_6result5nodes13NodesRecorderRShINtNtCshJIxznpEM8j_5alloc3vec3VecNtB1Y_5MatchEEKj40_EINtB7_18InputBlockIteratorKB3k_E4nextCs9kGaKDyuozi_20fuzz_arbitrary_bytes:
  245|  11.1k|    fn next(&mut self) -> Result<Option<Self::Block>, Self::Error> {
  246|      0|        debug!("next!");
  247|  11.1k|        return if self.idx >= MAX_BLOCK_SIZE && self.idx < self.input.middle().len() + MAX_BLOCK_SIZE {
  248|  2.33k|            let start = self.idx - MAX_BLOCK_SIZE;
  249|  2.33k|            // SAFETY: Bounds check above.
  250|  2.33k|            // self.idx >= MBS => start >= 0, and self.idx < middle.len + MBS => self.idx < middle.len
  251|  2.33k|            // By construction, middle has length divisible by N.
  252|  2.33k|            let block = unsafe { self.input.middle().get_unchecked(start..start + N) };
  253|  2.33k|            self.recorder.record_block_start(block);
  254|  2.33k|            self.idx += N;
  255|  2.33k|            Ok(Some(block))
  256|       |        } else {
  257|  8.81k|            Ok(cold_path(self))
  258|       |        };
  259|       |
  260|       |        #[cold]
  261|       |        fn cold_path<'a, 'r, R, const N: usize>(
  262|       |            iter: &mut BorrowedBytesBlockIterator<'r, TwoSidesPaddedInput<'a>, R, N>,
  263|       |        ) -> Option<&'a [u8]>
  264|       |        where
  265|       |            R: InputRecorder<&'a [u8]>,
  266|       |        {
  267|       |            let block = iter.input.try_slice(iter.idx, N);
  268|       |
  269|       |            if let Some(b) = block {
  270|       |                iter.recorder.record_block_start(b);
  271|       |                iter.idx += N;
  272|       |            }
  273|       |
  274|       |            block
  275|       |        }
  276|  11.1k|    }
_RNvXs2_NtNtCseKOJhBLZIbD_8rsonpath5input8borrowedNtB5_13BorrowedBytesNtB7_5Input19leading_padding_len:
   99|  1.96k|    fn leading_padding_len(&self) -> usize {
  100|  1.96k|        self.first_block.padding_len()
  101|  1.96k|    }
_RNvXs2_NtNtCseKOJhBLZIbD_8rsonpath5input8borrowedNtB5_13BorrowedBytesNtB7_5Input27seek_non_whitespace_forwardCs9kGaKDyuozi_20fuzz_arbitrary_bytes:
  173|  54.8k|    fn seek_non_whitespace_forward(&self, from: usize) -> Result<Option<(usize, u8)>, Infallible> {
  174|  54.8k|        return Ok(
  175|  54.8k|            // The hot path is when we start and end within the middle section.
  176|  54.8k|            // We use the regular slice path for that scenario, and fall back to the very expensive
  177|  54.8k|            // TwoSidesPaddedInput with all bells and whistles only when that doesn't work.
  178|  54.8k|            if from >= MAX_BLOCK_SIZE && from < self.middle_bytes.len() + MAX_BLOCK_SIZE {
  179|  31.6k|                match self.middle_bytes.seek_non_whitespace_forward(from - MAX_BLOCK_SIZE) {
  180|  31.3k|                    Some((x, y)) => Some((x + MAX_BLOCK_SIZE, y)),
  181|    259|                    None => handle_last(&self.last_block, MAX_BLOCK_SIZE + self.middle_bytes.len()),
  182|       |                }
  183|       |            } else {
  184|  23.2k|                self.as_padded_input().seek_non_whitespace_forward(from)
  185|       |            },
  186|       |        );
  187|       |
  188|       |        #[cold]
  189|       |        #[inline(never)]
  190|       |        fn handle_last(last_block: &PaddedBlock, offset: usize) -> Option<(usize, u8)> {
  191|       |            last_block
  192|       |                .bytes()
  193|       |                .seek_non_whitespace_forward(0)
  194|       |                .map(|(x, y)| (x + offset, y))
  195|       |        }
  196|  54.8k|    }
_RNvXs2_NtNtCseKOJhBLZIbD_8rsonpath5input8borrowedNtB5_13BorrowedBytesNtB7_5Input28seek_non_whitespace_backwardCs9kGaKDyuozi_20fuzz_arbitrary_bytes:
  199|  22.8k|    fn seek_non_whitespace_backward(&self, from: usize) -> Option<(usize, u8)> {
  200|  22.8k|        return if from >= MAX_BLOCK_SIZE && from < self.middle_bytes.len() + MAX_BLOCK_SIZE {
  201|  11.4k|            match self.middle_bytes.seek_non_whitespace_backward(from - MAX_BLOCK_SIZE) {
  202|  11.3k|                Some((x, y)) => Some((x + MAX_BLOCK_SIZE, y)),
  203|     71|                None => handle_first(&self.first_block),
  204|       |            }
  205|       |        } else {
  206|  11.4k|            self.as_padded_input().seek_non_whitespace_backward(from)
  207|       |        };
  208|       |
  209|       |        #[cold]
  210|       |        #[inline(never)]
  211|       |        fn handle_first(first_block: &PaddedBlock) -> Option<(usize, u8)> {
  212|       |            first_block.bytes().seek_non_whitespace_backward(first_block.len() - 1)
  213|       |        }
  214|  22.8k|    }
_RINvXs2_NtNtCseKOJhBLZIbD_8rsonpath5input8borrowedNtB6_13BorrowedBytesNtB8_5Input12seek_forwardKj1_ECs9kGaKDyuozi_20fuzz_arbitrary_bytes:
  146|  22.8k|    fn seek_forward<const N: usize>(&self, from: usize, needles: [u8; N]) -> Result<Option<(usize, u8)>, Infallible> {
  147|  22.8k|        return Ok(
  148|  22.8k|            if from >= MAX_BLOCK_SIZE && from < self.middle_bytes.len() + MAX_BLOCK_SIZE {
  149|  11.3k|                match self.middle_bytes.seek_forward(from - MAX_BLOCK_SIZE, needles) {
  150|  11.3k|                    Some((x, y)) => Some((x + MAX_BLOCK_SIZE, y)),
  151|      0|                    None => handle_last(&self.last_block, MAX_BLOCK_SIZE + self.middle_bytes.len(), needles),
  152|       |                }
  153|       |            } else {
  154|  11.4k|                self.as_padded_input().seek_forward(from, needles)
  155|       |            },
  156|       |        );
  157|       |
  158|       |        #[cold]
  159|       |        #[inline(never)]
  160|       |        fn handle_last<const N: usize>(
  161|       |            last_block: &PaddedBlock,
  162|       |            offset: usize,
  163|       |            needles: [u8; N],
  164|       |        ) -> Option<(usize, u8)> {
  165|       |            last_block
  166|       |                .bytes()
  167|       |                .seek_forward(0, needles)
  168|       |                .map(|(x, y)| (x + offset, y))
  169|       |        }
  170|  22.8k|    }
_RINvXs2_NtNtCseKOJhBLZIbD_8rsonpath5input8borrowedNtB6_13BorrowedBytesNtB8_5Input11iter_blocksINtNtNtBa_6result5nodes13NodesRecorderRShINtNtCshJIxznpEM8j_5alloc3vec3VecNtB1z_5MatchEEKj40_ECs9kGaKDyuozi_20fuzz_arbitrary_bytes:
  114|  1.96k|    fn iter_blocks<'b, 'r, R, const N: usize>(&'b self, recorder: &'r R) -> Self::BlockIterator<'b, 'r, R, N>
  115|  1.96k|    where
  116|  1.96k|        R: InputRecorder<&'b [u8]>,
  117|  1.96k|    {
  118|  1.96k|        let padded_input = TwoSidesPaddedInput::new(&self.first_block, self.middle_bytes, &self.last_block);
  119|  1.96k|
  120|  1.96k|        Self::BlockIterator {
  121|  1.96k|            idx: 0,
  122|  1.96k|            input: padded_input,
  123|  1.96k|            recorder,
  124|  1.96k|        }
  125|  1.96k|    }
_RINvNvXs3_NtNtCseKOJhBLZIbD_8rsonpath5input8borrowedINtB8_26BorrowedBytesBlockIteratorNtNtBa_7padding19TwoSidesPaddedInputpKpEINtBa_18InputBlockIteratorKpE4next9cold_pathINtNtNtBc_6result5nodes13NodesRecorderRShINtNtCshJIxznpEM8j_5alloc3vec3VecNtB2N_5MatchEEKj40_ECs9kGaKDyuozi_20fuzz_arbitrary_bytes:
  261|  8.81k|        fn cold_path<'a, 'r, R, const N: usize>(
  262|  8.81k|            iter: &mut BorrowedBytesBlockIterator<'r, TwoSidesPaddedInput<'a>, R, N>,
  263|  8.81k|        ) -> Option<&'a [u8]>
  264|  8.81k|        where
  265|  8.81k|            R: InputRecorder<&'a [u8]>,
  266|  8.81k|        {
  267|  8.81k|            let block = iter.input.try_slice(iter.idx, N);
  268|       |
  269|  8.81k|            if let Some(b) = block {
  270|  7.22k|                iter.recorder.record_block_start(b);
  271|  7.22k|                iter.idx += N;
  272|  7.22k|            }
  273|       |
  274|  8.81k|            block
  275|  8.81k|        }
_RNvNvXs2_NtNtCseKOJhBLZIbD_8rsonpath5input8borrowedNtB7_13BorrowedBytesNtB9_5Input28seek_non_whitespace_backward12handle_first:
  211|     71|        fn handle_first(first_block: &PaddedBlock) -> Option<(usize, u8)> {
  212|     71|            first_block.bytes().seek_non_whitespace_backward(first_block.len() - 1)
  213|     71|        }
_RNvNvXs2_NtNtCseKOJhBLZIbD_8rsonpath5input8borrowedNtB7_13BorrowedBytesNtB9_5Input27seek_non_whitespace_forward11handle_last:
  190|    259|        fn handle_last(last_block: &PaddedBlock, offset: usize) -> Option<(usize, u8)> {
  191|    259|            last_block
  192|    259|                .bytes()
  193|    259|                .seek_non_whitespace_forward(0)
  194|    259|                .map(|(x, y)| (x + offset, y))
  195|    259|        }
_RNCNvNvXs2_NtNtCseKOJhBLZIbD_8rsonpath5input8borrowedNtB9_13BorrowedBytesNtBb_5Input27seek_non_whitespace_forward11handle_last0Bd_:
  194|    191|                .map(|(x, y)| (x + offset, y))

_RNvXNtNtCseKOJhBLZIbD_8rsonpath5input5errorINtNtCslATUeuPuGvJ_4core6result6ResultINtNtBK_6option6OptionRShENtB2_10InfallibleEINtB2_21InputErrorConvertibleB1h_E1eCs9kGaKDyuozi_20fuzz_arbitrary_bytes:
   50|  11.1k|    fn e(self) -> Result<T, InputError> {
   51|  11.1k|        self.map_err(std::convert::Into::into)
   52|  11.1k|    }
_RNvXNtNtCseKOJhBLZIbD_8rsonpath5input5errorINtNtCslATUeuPuGvJ_4core6result6ResultINtNtBK_6option6OptionTjhEENtB2_10InfallibleEINtB2_21InputErrorConvertibleB1h_E1eCs9kGaKDyuozi_20fuzz_arbitrary_bytes:
   50|  77.7k|    fn e(self) -> Result<T, InputError> {
   51|  77.7k|        self.map_err(std::convert::Into::into)
   52|  77.7k|    }

_RNvMs2_NtNtCseKOJhBLZIbD_8rsonpath5input7paddingNtB5_19TwoSidesPaddedInput3newCs9kGaKDyuozi_20fuzz_arbitrary_bytes:
  305|  48.0k|    pub(super) fn new(first: &'a PaddedBlock, middle: &'a [u8], last: &'a PaddedBlock) -> Self {
  306|  48.0k|        Self {
  307|  48.0k|            first_block: first,
  308|  48.0k|            middle,
  309|  48.0k|            last_block: last,
  310|  48.0k|        }
  311|  48.0k|    }
_RINvMs2_NtNtCseKOJhBLZIbD_8rsonpath5input7paddingNtB6_19TwoSidesPaddedInput23seek_forward_from_firstKj1_ECs9kGaKDyuozi_20fuzz_arbitrary_bytes:
  349|  6.15k|    fn seek_forward_from_first<const N: usize>(&self, from: usize, needles: [u8; N]) -> Option<(usize, u8)> {
  350|  6.15k|        assert!(N > 0);
  351|  6.15k|        debug_assert!(from < MAX_BLOCK_SIZE);
  352|  6.15k|        let bytes = &self.first_block.bytes;
  353|  6.15k|
  354|  6.15k|        seek_forward_impl(bytes, from, needles).or_else(|| {
  355|       |            if self.middle.is_empty() {
  356|       |                self.seek_forward_from_last(bytes.len(), needles)
  357|       |            } else {
  358|       |                self.seek_forward_from_middle(bytes.len(), needles)
  359|       |            }
  360|  6.15k|        })
  361|  6.15k|    }
_RNCINvMs2_NtNtCseKOJhBLZIbD_8rsonpath5input7paddingNtB8_19TwoSidesPaddedInput22seek_forward_from_lastKj1_E0Cs9kGaKDyuozi_20fuzz_arbitrary_bytes:
  379|  5.28k|            .map(|(x, y)| (x + self.middle.len() + MAX_BLOCK_SIZE, y))
_RINvNtNtCseKOJhBLZIbD_8rsonpath5input7padding17seek_forward_implKj1_ECs9kGaKDyuozi_20fuzz_arbitrary_bytes:
  538|  11.4k|fn seek_forward_impl<const N: usize>(bytes: &[u8], from: usize, needles: [u8; N]) -> Option<(usize, u8)> {
  539|  11.4k|    let mut idx = from;
  540|  11.4k|    if idx >= bytes.len() {
  541|      0|        return None;
  542|  11.4k|    }
  543|       |
  544|  11.4k|    loop {
  545|  11.4k|        let b = bytes[idx];
  546|  11.4k|        if needles.contains(&b) {
  547|  11.4k|            return Some((idx, b));
  548|      0|        }
  549|      0|        idx += 1;
  550|      0|        if idx == bytes.len() {
  551|      0|            return None;
  552|      0|        }
  553|       |    }
  554|  11.4k|}
_RNvMNtNtCseKOJhBLZIbD_8rsonpath5input7paddingNtB2_11PaddedBlock11padding_lenCs9kGaKDyuozi_20fuzz_arbitrary_bytes:
   26|  1.96k|    pub(super) fn padding_len(&self) -> usize {
   27|  1.96k|        self.padding_len
   28|  1.96k|    }
_RINvXs0_NtNtCseKOJhBLZIbD_8rsonpath5input7paddingNtB6_19TwoSidesPaddedInputNtB8_13SliceSeekable12seek_forwardKj1_ECs9kGaKDyuozi_20fuzz_arbitrary_bytes:
  126|  11.4k|    fn seek_forward<const N: usize>(&self, from: usize, needles: [u8; N]) -> Option<(usize, u8)> {
  127|  11.4k|        if from < MAX_BLOCK_SIZE {
  128|  6.15k|            self.seek_forward_from_first(from, needles)
  129|  5.28k|        } else if from < self.middle.len() + MAX_BLOCK_SIZE {
  130|      0|            self.seek_forward_from_middle(from, needles)
  131|       |        } else {
  132|  5.28k|            self.seek_forward_from_last(from, needles)
  133|       |        }
  134|  11.4k|    }
_RNvMs2_NtNtCseKOJhBLZIbD_8rsonpath5input7paddingNtB5_19TwoSidesPaddedInput6middle:
  314|  9.58k|    pub(super) fn middle(&self) -> &'a [u8] {
  315|  9.58k|        self.middle
  316|  9.58k|    }
_RINvMs2_NtNtCseKOJhBLZIbD_8rsonpath5input7paddingNtB6_19TwoSidesPaddedInput22seek_forward_from_lastKj1_ECs9kGaKDyuozi_20fuzz_arbitrary_bytes:
  373|  5.28k|    fn seek_forward_from_last<const N: usize>(&self, from: usize, needles: [u8; N]) -> Option<(usize, u8)> {
  374|  5.28k|        assert!(N > 0);
  375|  5.28k|        debug_assert!(from >= self.middle.len() + MAX_BLOCK_SIZE);
  376|  5.28k|        let bytes = &self.last_block.bytes;
  377|  5.28k|
  378|  5.28k|        seek_forward_impl(bytes, from - self.middle.len() - MAX_BLOCK_SIZE, needles)
  379|  5.28k|            .map(|(x, y)| (x + self.middle.len() + MAX_BLOCK_SIZE, y))
  380|  5.28k|    }
_RNvMNtNtCseKOJhBLZIbD_8rsonpath5input7paddingNtB2_11PaddedBlock3lenB6_:
   22|     71|    pub(super) const fn len(&self) -> usize {
   23|     71|        MAX_BLOCK_SIZE
   24|     71|    }
_RNCNvMs2_NtNtCseKOJhBLZIbD_8rsonpath5input7paddingNtB7_19TwoSidesPaddedInput40seek_non_whitespace_backward_from_middles_0Bb_:
  425|     91|            .or_else(|| self.seek_non_whitespace_backward_from_first(MAX_BLOCK_SIZE - 1))
_RNCNvMs2_NtNtCseKOJhBLZIbD_8rsonpath5input7paddingNtB7_19TwoSidesPaddedInput38seek_non_whitespace_backward_from_lasts_0Bb_:
  434|    479|            .or_else(|| {
  435|    479|                if self.middle.is_empty() {
  436|    229|                    self.seek_non_whitespace_backward_from_first(MAX_BLOCK_SIZE - 1)
  437|       |                } else {
  438|    250|                    self.seek_non_whitespace_backward_from_middle(self.middle.len() + MAX_BLOCK_SIZE - 1)
  439|       |                }
  440|    479|            })
_RNvNtNtCseKOJhBLZIbD_8rsonpath5input7padding32seek_non_whitespace_forward_impl:
  557|  23.8k|fn seek_non_whitespace_forward_impl(bytes: &[u8], from: usize) -> Option<(usize, u8)> {
  558|  23.8k|    let mut idx = from;
  559|  23.8k|    if idx >= bytes.len() {
  560|      0|        return None;
  561|  23.8k|    }
  562|       |
  563|   212k|    loop {
  564|   212k|        let b = bytes[idx];
  565|   212k|        if !b.is_ascii_whitespace() {
  566|  21.8k|            return Some((idx, b));
  567|   190k|        }
  568|   190k|        idx += 1;
  569|   190k|        if idx == bytes.len() {
  570|  1.98k|            return None;
  571|   188k|        }
  572|       |    }
  573|  23.8k|}
_RNvMs2_NtNtCseKOJhBLZIbD_8rsonpath5input7paddingNtB5_19TwoSidesPaddedInput37seek_non_whitespace_forward_from_last:
  404|  9.86k|    fn seek_non_whitespace_forward_from_last(&self, from: usize) -> Option<(usize, u8)> {
  405|  9.86k|        debug_assert!(from >= self.middle.len() + MAX_BLOCK_SIZE);
  406|  9.86k|        let bytes = &self.last_block.bytes;
  407|  9.86k|
  408|  9.86k|        seek_non_whitespace_forward_impl(bytes, from - self.middle.len() - MAX_BLOCK_SIZE)
  409|  9.86k|            .map(|(x, y)| (x + self.middle.len() + MAX_BLOCK_SIZE, y))
  410|  9.86k|    }
_RNvMs2_NtNtCseKOJhBLZIbD_8rsonpath5input7paddingNtB5_19TwoSidesPaddedInput11slice_first:
  455|  3.91k|    fn slice_first(&self, start: usize, len: usize) -> &'a [u8] {
  456|  3.91k|        &self.first_block.bytes[start..start + len]
  457|  3.91k|    }
_RNvMNtNtCseKOJhBLZIbD_8rsonpath5input7paddingNtB2_11PaddedBlock14pad_last_block:
   47|  1.96k|    pub(super) fn pad_last_block(bytes: &[u8]) -> Self {
   48|  1.96k|        assert!(bytes.len() <= MAX_BLOCK_SIZE);
   49|  1.96k|        let mut last_block_buf = [JSON_SPACE_BYTE; MAX_BLOCK_SIZE];
   50|  1.96k|        let block_end = bytes.len();
   51|  1.96k|
   52|  1.96k|        last_block_buf[..block_end].copy_from_slice(bytes);
   53|  1.96k|
   54|  1.96k|        Self {
   55|  1.96k|            bytes: last_block_buf,
   56|  1.96k|            padding_len: MAX_BLOCK_SIZE - block_end,
   57|  1.96k|        }
   58|  1.96k|    }
_RNCNvMs2_NtNtCseKOJhBLZIbD_8rsonpath5input7paddingNtB7_19TwoSidesPaddedInput40seek_non_whitespace_backward_from_middle0Bb_:
  424|    159|            .map(|(x, y)| (x + MAX_BLOCK_SIZE, y))
_RNCNvMs2_NtNtCseKOJhBLZIbD_8rsonpath5input7paddingNtB7_19TwoSidesPaddedInput38seek_non_whitespace_backward_from_last0Bb_:
  433|  4.72k|            .map(|(x, y)| (x + self.middle.len() + MAX_BLOCK_SIZE, y))
_RNvMs2_NtNtCseKOJhBLZIbD_8rsonpath5input7paddingNtB5_19TwoSidesPaddedInput38seek_non_whitespace_backward_from_last:
  428|  5.20k|    fn seek_non_whitespace_backward_from_last(&self, from: usize) -> Option<(usize, u8)> {
  429|  5.20k|        debug_assert!(from >= self.middle.len() + MAX_BLOCK_SIZE);
  430|  5.20k|        let bytes = &self.last_block.bytes;
  431|  5.20k|
  432|  5.20k|        seek_non_whitespace_backward_impl(bytes, from - self.middle.len() - MAX_BLOCK_SIZE)
  433|  5.20k|            .map(|(x, y)| (x + self.middle.len() + MAX_BLOCK_SIZE, y))
  434|  5.20k|            .or_else(|| {
  435|       |                if self.middle.is_empty() {
  436|       |                    self.seek_non_whitespace_backward_from_first(MAX_BLOCK_SIZE - 1)
  437|       |                } else {
  438|       |                    self.seek_non_whitespace_backward_from_middle(self.middle.len() + MAX_BLOCK_SIZE - 1)
  439|       |                }
  440|  5.20k|            })
  441|  5.20k|    }
_RNCNvMs2_NtNtCseKOJhBLZIbD_8rsonpath5input7paddingNtB7_19TwoSidesPaddedInput39seek_non_whitespace_forward_from_middles_0Bb_:
  401|     56|            .or_else(|| self.seek_non_whitespace_forward_from_last(bytes.len() + MAX_BLOCK_SIZE))
_RNvMs2_NtNtCseKOJhBLZIbD_8rsonpath5input7paddingNtB5_19TwoSidesPaddedInput10slice_last:
  464|  4.90k|    fn slice_last(&self, start: usize, len: usize) -> Option<&'a [u8]> {
  465|  4.90k|        let start = start - self.middle.len() - MAX_BLOCK_SIZE;
  466|  4.90k|        (start < MAX_BLOCK_SIZE).then(|| &self.last_block.bytes[start..start + len])
  467|  4.90k|    }
_RNvXs0_NtNtCseKOJhBLZIbD_8rsonpath5input7paddingNtB5_19TwoSidesPaddedInputNtB7_13SliceSeekable27seek_non_whitespace_forward:
  138|  23.2k|    fn seek_non_whitespace_forward(&self, from: usize) -> Option<(usize, u8)> {
  139|  23.2k|        if from < MAX_BLOCK_SIZE {
  140|  13.8k|            self.seek_non_whitespace_forward_from_first(from)
  141|  9.40k|        } else if from < self.middle.len() + MAX_BLOCK_SIZE {
  142|      0|            self.seek_non_whitespace_forward_from_middle(from)
  143|       |        } else {
  144|  9.40k|            self.seek_non_whitespace_forward_from_last(from)
  145|       |        }
  146|  23.2k|    }
_RNCNvMs2_NtNtCseKOJhBLZIbD_8rsonpath5input7paddingNtB7_19TwoSidesPaddedInput37seek_non_whitespace_forward_from_last0Bb_:
  409|  8.51k|            .map(|(x, y)| (x + self.middle.len() + MAX_BLOCK_SIZE, y))
_RNvMNtNtCseKOJhBLZIbD_8rsonpath5input7paddingNtB2_11PaddedBlock15pad_first_block:
   34|  1.96k|    pub(super) fn pad_first_block(bytes: &[u8]) -> Self {
   35|  1.96k|        assert!(bytes.len() <= MAX_BLOCK_SIZE);
   36|  1.96k|        let mut block_buf = [JSON_SPACE_BYTE; MAX_BLOCK_SIZE];
   37|  1.96k|        let block_start = MAX_BLOCK_SIZE - bytes.len();
   38|  1.96k|
   39|  1.96k|        block_buf[block_start..].copy_from_slice(bytes);
   40|  1.96k|
   41|  1.96k|        Self {
   42|  1.96k|            bytes: block_buf,
   43|  1.96k|            padding_len: block_start,
   44|  1.96k|        }
   45|  1.96k|    }
_RNCNvMs2_NtNtCseKOJhBLZIbD_8rsonpath5input7paddingNtB7_19TwoSidesPaddedInput10slice_last0Bb_:
  466|  3.31k|        (start < MAX_BLOCK_SIZE).then(|| &self.last_block.bytes[start..start + len])
_RNvNtNtCseKOJhBLZIbD_8rsonpath5input7padding33seek_non_whitespace_backward_impl:
  576|  11.9k|fn seek_non_whitespace_backward_impl(bytes: &[u8], from: usize) -> Option<(usize, u8)> {
  577|  11.9k|    let mut idx = from;
  578|  11.9k|    if idx >= bytes.len() {
  579|      0|        return None;
  580|  11.9k|    }
  581|       |
  582|       |    loop {
  583|  78.0k|        let b = bytes[idx];
  584|  78.0k|        if !b.is_ascii_whitespace() {
  585|  11.4k|            return Some((idx, b));
  586|  66.6k|        }
  587|  66.6k|        if idx == 0 {
  588|    570|            return None;
  589|  66.0k|        }
  590|  66.0k|        idx -= 1;
  591|       |    }
  592|  11.9k|}
_RNvMs2_NtNtCseKOJhBLZIbD_8rsonpath5input7paddingNtB5_19TwoSidesPaddedInput39seek_non_whitespace_forward_from_middle:
  395|    184|    fn seek_non_whitespace_forward_from_middle(&self, from: usize) -> Option<(usize, u8)> {
  396|    184|        debug_assert!(from >= MAX_BLOCK_SIZE);
  397|    184|        let bytes = self.middle;
  398|    184|
  399|    184|        seek_non_whitespace_forward_impl(bytes, from - MAX_BLOCK_SIZE)
  400|    184|            .map(|(x, y)| (x + MAX_BLOCK_SIZE, y))
  401|    184|            .or_else(|| self.seek_non_whitespace_forward_from_last(bytes.len() + MAX_BLOCK_SIZE))
  402|    184|    }
_RNvMs2_NtNtCseKOJhBLZIbD_8rsonpath5input7paddingNtB5_19TwoSidesPaddedInput40seek_non_whitespace_backward_from_middle:
  419|    250|    fn seek_non_whitespace_backward_from_middle(&self, from: usize) -> Option<(usize, u8)> {
  420|    250|        debug_assert!(from >= MAX_BLOCK_SIZE);
  421|    250|        let bytes = self.middle;
  422|    250|
  423|    250|        seek_non_whitespace_backward_impl(bytes, from - MAX_BLOCK_SIZE)
  424|    250|            .map(|(x, y)| (x + MAX_BLOCK_SIZE, y))
  425|    250|            .or_else(|| self.seek_non_whitespace_backward_from_first(MAX_BLOCK_SIZE - 1))
  426|    250|    }
_RNvMs2_NtNtCseKOJhBLZIbD_8rsonpath5input7paddingNtB5_19TwoSidesPaddedInput9try_slice:
  443|  8.81k|    pub(super) fn try_slice(&self, start: usize, len: usize) -> Option<&'a [u8]> {
  444|  8.81k|        debug_assert!(len < MAX_BLOCK_SIZE);
  445|       |
  446|  8.81k|        if start < MAX_BLOCK_SIZE {
  447|  3.91k|            Some(self.slice_first(start, len))
  448|  4.90k|        } else if start < self.middle.len() + MAX_BLOCK_SIZE {
  449|      0|            Some(self.slice_middle(start, len))
  450|       |        } else {
  451|  4.90k|            self.slice_last(start, len)
  452|       |        }
  453|  8.81k|    }
_RNvMs2_NtNtCseKOJhBLZIbD_8rsonpath5input7paddingNtB5_19TwoSidesPaddedInput38seek_non_whitespace_forward_from_first:
  382|  13.8k|    fn seek_non_whitespace_forward_from_first(&self, from: usize) -> Option<(usize, u8)> {
  383|  13.8k|        debug_assert!(from < MAX_BLOCK_SIZE);
  384|  13.8k|        let bytes = &self.first_block.bytes;
  385|  13.8k|
  386|  13.8k|        seek_non_whitespace_forward_impl(bytes, from).or_else(|| {
  387|       |            if self.middle.is_empty() {
  388|       |                self.seek_non_whitespace_forward_from_last(bytes.len())
  389|       |            } else {
  390|       |                self.seek_non_whitespace_forward_from_middle(bytes.len())
  391|       |            }
  392|  13.8k|        })
  393|  13.8k|    }
_RNvMs2_NtNtCseKOJhBLZIbD_8rsonpath5input7paddingNtB5_19TwoSidesPaddedInput39seek_non_whitespace_backward_from_first:
  412|  6.53k|    fn seek_non_whitespace_backward_from_first(&self, from: usize) -> Option<(usize, u8)> {
  413|  6.53k|        debug_assert!(from < MAX_BLOCK_SIZE);
  414|  6.53k|        let bytes = &self.first_block.bytes;
  415|  6.53k|
  416|  6.53k|        seek_non_whitespace_backward_impl(bytes, from)
  417|  6.53k|    }
_RNvXs0_NtNtCseKOJhBLZIbD_8rsonpath5input7paddingNtB5_19TwoSidesPaddedInputNtB7_13SliceSeekable28seek_non_whitespace_backward:
  150|  11.4k|    fn seek_non_whitespace_backward(&self, from: usize) -> Option<(usize, u8)> {
  151|  11.4k|        if from < MAX_BLOCK_SIZE {
  152|  6.21k|            self.seek_non_whitespace_backward_from_first(from)
  153|  5.20k|        } else if from < self.middle.len() + MAX_BLOCK_SIZE {
  154|      0|            self.seek_non_whitespace_backward_from_middle(from)
  155|       |        } else {
  156|  5.20k|            self.seek_non_whitespace_backward_from_last(from)
  157|       |        }
  158|  11.4k|    }
_RNCNvMs2_NtNtCseKOJhBLZIbD_8rsonpath5input7paddingNtB7_19TwoSidesPaddedInput39seek_non_whitespace_forward_from_middle0Bb_:
  400|    128|            .map(|(x, y)| (x + MAX_BLOCK_SIZE, y))
_RNvMNtNtCseKOJhBLZIbD_8rsonpath5input7paddingNtB2_11PaddedBlock5bytesB6_:
   30|    330|    pub(super) fn bytes(&self) -> &[u8] {
   31|    330|        &self.bytes
   32|    330|    }
_RNCNvMs2_NtNtCseKOJhBLZIbD_8rsonpath5input7paddingNtB7_19TwoSidesPaddedInput38seek_non_whitespace_forward_from_first0Bb_:
  386|    584|        seek_non_whitespace_forward_impl(bytes, from).or_else(|| {
  387|    584|            if self.middle.is_empty() {
  388|    400|                self.seek_non_whitespace_forward_from_last(bytes.len())
  389|       |            } else {
  390|    184|                self.seek_non_whitespace_forward_from_middle(bytes.len())
  391|       |            }
  392|    584|        })

_RINvXNtNtCseKOJhBLZIbD_8rsonpath5input5sliceRShNtB5_13SliceSeekable12seek_forwardKj1_ECs9kGaKDyuozi_20fuzz_arbitrary_bytes:
   33|  11.3k|    fn seek_forward<const N: usize>(&self, from: usize, needles: [u8; N]) -> Option<(usize, u8)> {
   34|  11.3k|        let bytes = self.as_ref();
   35|       |
   36|  11.3k|        assert!(N > 0);
   37|  11.3k|        let mut idx = from;
   38|  11.3k|
   39|  11.3k|        if idx >= bytes.len() {
   40|      0|            return None;
   41|  11.3k|        }
   42|       |
   43|  11.3k|        loop {
   44|  11.3k|            let b = bytes[idx];
   45|  11.3k|            if needles.contains(&b) {
   46|  11.3k|                return Some((idx, b));
   47|      0|            }
   48|      0|            idx += 1;
   49|      0|            if idx == bytes.len() {
   50|      0|                return None;
   51|      0|            }
   52|       |        }
   53|  11.3k|    }
_RNvXNtNtCseKOJhBLZIbD_8rsonpath5input5sliceRShNtB4_13SliceSeekable28seek_non_whitespace_backwardCs9kGaKDyuozi_20fuzz_arbitrary_bytes:
   77|  11.4k|    fn seek_non_whitespace_backward(&self, from: usize) -> Option<(usize, u8)> {
   78|  11.4k|        let bytes = self.as_ref();
   79|  11.4k|        let mut idx = from;
   80|  11.4k|
   81|  11.4k|        if idx >= bytes.len() {
   82|      0|            return None;
   83|  11.4k|        }
   84|       |
   85|       |        loop {
   86|  19.2k|            let b = bytes[idx];
   87|  19.2k|            if !b.is_ascii_whitespace() {
   88|  11.3k|                return Some((idx, b));
   89|  7.87k|            }
   90|  7.87k|            if idx == 0 {
   91|     71|                return None;
   92|  7.80k|            }
   93|  7.80k|            idx -= 1;
   94|       |        }
   95|  11.4k|    }
_RNvXNtNtCseKOJhBLZIbD_8rsonpath5input5sliceRShNtB4_13SliceSeekable27seek_non_whitespace_forwardCs9kGaKDyuozi_20fuzz_arbitrary_bytes:
   56|  31.6k|    fn seek_non_whitespace_forward(&self, from: usize) -> Option<(usize, u8)> {
   57|  31.6k|        let bytes = self.as_ref();
   58|  31.6k|        let mut idx = from;
   59|  31.6k|
   60|  31.6k|        if idx >= bytes.len() {
   61|      0|            return None;
   62|  31.6k|        }
   63|       |
   64|  61.2k|        loop {
   65|  61.2k|            let b = bytes[idx];
   66|  61.2k|            if !b.is_ascii_whitespace() {
   67|  31.3k|                return Some((idx, b));
   68|  29.8k|            }
   69|  29.8k|            idx += 1;
   70|  29.8k|            if idx == bytes.len() {
   71|    259|                return None;
   72|  29.6k|            }
   73|       |        }
   74|  31.6k|    }
_RNvXNtNtCseKOJhBLZIbD_8rsonpath5input5sliceRShNtB4_13SliceSeekable28seek_non_whitespace_backwardB6_:
   77|     71|    fn seek_non_whitespace_backward(&self, from: usize) -> Option<(usize, u8)> {
   78|     71|        let bytes = self.as_ref();
   79|     71|        let mut idx = from;
   80|     71|
   81|     71|        if idx >= bytes.len() {
   82|      0|            return None;
   83|     71|        }
   84|       |
   85|       |        loop {
   86|  2.04k|            let b = bytes[idx];
   87|  2.04k|            if !b.is_ascii_whitespace() {
   88|     71|                return Some((idx, b));
   89|  1.97k|            }
   90|  1.97k|            if idx == 0 {
   91|      0|                return None;
   92|  1.97k|            }
   93|  1.97k|            idx -= 1;
   94|       |        }
   95|     71|    }
_RNvXNtNtCseKOJhBLZIbD_8rsonpath5input5sliceRShNtB4_13SliceSeekable27seek_non_whitespace_forwardB6_:
   56|    259|    fn seek_non_whitespace_forward(&self, from: usize) -> Option<(usize, u8)> {
   57|    259|        let bytes = self.as_ref();
   58|    259|        let mut idx = from;
   59|    259|
   60|    259|        if idx >= bytes.len() {
   61|      0|            return None;
   62|    259|        }
   63|       |
   64|  15.0k|        loop {
   65|  15.0k|            let b = bytes[idx];
   66|  15.0k|            if !b.is_ascii_whitespace() {
   67|    191|                return Some((idx, b));
   68|  14.8k|            }
   69|  14.8k|            idx += 1;
   70|  14.8k|            if idx == bytes.len() {
   71|     68|                return None;
   72|  14.7k|            }
   73|       |        }
   74|    259|    }

_RNvCseKOJhBLZIbD_8rsonpath18is_json_whitespace:
  354|  16.4k|pub(crate) fn is_json_whitespace(x: u8) -> bool {
  355|  16.4k|    JSON_WHITESPACE_BYTES.contains(&x)
  356|  16.4k|}

_RNvMs0_NtCseKOJhBLZIbD_8rsonpath5queryNtB5_13JsonPathQuery5parse:
  140|  1.96k|    pub fn parse(query_string: &str) -> Result<Self, ParserError> {
  141|  1.96k|        self::parser::parse_json_path_query(query_string)
  142|  1.96k|    }
_RNvXs3_NtCseKOJhBLZIbD_8rsonpath5queryNtB5_17JsonPathQueryNodeNtB5_21JsonPathQueryNodeType7is_root:
  219|  5.88k|    fn is_root(&self) -> bool {
  220|  5.88k|        matches!(self, Root(_))
  221|  5.88k|    }
_RNvXs_NtCseKOJhBLZIbD_8rsonpath5queryNtB4_21JsonPathQueryIteratorNtNtNtNtCslATUeuPuGvJ_4core4iter6traits8iterator8Iterator4nextB6_:
  110|  5.88k|    fn next(&mut self) -> Option<Self::Item> {
  111|  5.88k|        let result = self.node;
  112|       |
  113|  5.88k|        if let Some(node) = result {
  114|  3.92k|            self.node = node.child()
  115|  1.96k|        }
  116|       |
  117|  5.88k|        result
  118|  5.88k|    }
_RNvMNtCseKOJhBLZIbD_8rsonpath5queryNtB2_17JsonPathQueryNode4iter:
   89|  1.96k|    pub fn iter(&self) -> JsonPathQueryIterator {
   90|  1.96k|        JsonPathQueryIterator { node: Some(self) }
   91|  1.96k|    }
_RNvMs0_NtCseKOJhBLZIbD_8rsonpath5queryNtB5_13JsonPathQuery3newB7_:
  150|  1.96k|    pub fn new(node: Box<JsonPathQueryNode>) -> Self {
  151|  1.96k|        let root = if node.is_root() {
  152|  1.96k|            node
  153|       |        } else {
  154|      0|            info!("Implicitly using the Root expression (`$`) at the start of the query.");
  155|      0|            Box::new(Root(Some(node)))
  156|       |        };
  157|       |
  158|  1.96k|        Self { root }
  159|  1.96k|    }
_RNvMNtCseKOJhBLZIbD_8rsonpath5queryNtB2_17JsonPathQueryNode5child:
   73|  3.92k|    pub fn child(&self) -> Option<&Self> {
   74|  3.92k|        match self {
   75|  1.96k|            Root(node)
   76|      0|            | Child(_, node)
   77|      0|            | AnyChild(node)
   78|      0|            | Descendant(_, node)
   79|  1.96k|            | AnyDescendant(node)
   80|      0|            | ArrayIndexChild(_, node)
   81|  3.92k|            | ArrayIndexDescendant(_, node) => node.as_deref(),
   82|  3.92k|        }
   83|  3.92k|    }
_RNvMs0_NtCseKOJhBLZIbD_8rsonpath5queryNtB5_13JsonPathQuery4root:
  128|  3.92k|    pub fn root(&self) -> &JsonPathQueryNode {
  129|  3.92k|        self.root.as_ref()
  130|  3.92k|    }

_RNvMs6_NtNtCseKOJhBLZIbD_8rsonpath5query9automatonNtB5_9Automaton3newCs9kGaKDyuozi_20fuzz_arbitrary_bytes:
  148|  1.96k|    pub fn new(query: &'q JsonPathQuery) -> Result<Self, CompilerError> {
  149|  1.96k|        let nfa = NondeterministicAutomaton::new(query)?;
  150|      0|        debug!("NFA: {}", nfa);
  151|  1.96k|        Automaton::minimize(nfa)
  152|  1.96k|    }
_RNvMs6_NtNtCseKOJhBLZIbD_8rsonpath5query9automatonNtB5_9Automaton12is_accepting:
  220|  80.3k|    pub fn is_accepting(&self, state: State) -> bool {
  221|  80.3k|        self[state].attributes.is_accepting()
  222|  80.3k|    }
_RNvMs6_NtNtCseKOJhBLZIbD_8rsonpath5query9automatonNtB5_9Automaton14is_empty_query:
  176|  1.96k|    pub fn is_empty_query(&self) -> bool {
  177|  1.96k|        self.states.len() == 2
  178|  1.96k|    }
_RNvMs6_NtNtCseKOJhBLZIbD_8rsonpath5query9automatonNtB5_9Automaton42has_any_array_item_transition_to_accepting:
  259|  13.2k|    pub fn has_any_array_item_transition_to_accepting(&self, state: State) -> bool {
  260|  13.2k|        self[state].transitions().iter().any(|t| match t {
  261|       |            (TransitionLabel::ArrayIndex(_), s) => self.is_accepting(*s),
  262|       |            _ => false,
  263|  13.2k|        })
  264|  13.2k|    }
_RNvMs7_NtNtCseKOJhBLZIbD_8rsonpath5query9automatonNtB5_10StateTable14fallback_state:
  387|  82.3k|    pub fn fallback_state(&self) -> State {
  388|  82.3k|        self.fallback_state
  389|  82.3k|    }
_RNvXs5_NtNtCseKOJhBLZIbD_8rsonpath5query9automatonNtB5_9AutomatonINtNtNtCslATUeuPuGvJ_4core3ops5index5IndexNtNtB5_5state5StateE5index:
  134|   277k|    fn index(&self, index: State) -> &Self::Output {
  135|   277k|        &self.states[index.0 as usize]
  136|   277k|    }
_RNvMs6_NtNtCseKOJhBLZIbD_8rsonpath5query9automatonNtB5_9Automaton10is_unitary:
  371|  5.23k|    pub fn is_unitary(&self, state: State) -> bool {
  372|  5.23k|        self[state].attributes.is_unitary()
  373|  5.23k|    }
_RNvMs6_NtNtCseKOJhBLZIbD_8rsonpath5query9automatonNtB5_9Automaton12is_rejecting:
  349|  22.8k|    pub fn is_rejecting(&self, state: State) -> bool {
  350|  22.8k|        self[state].attributes.is_rejecting()
  351|  22.8k|    }
_RNvMs6_NtNtCseKOJhBLZIbD_8rsonpath5query9automatonNtB5_9Automaton13initial_state:
  202|  3.92k|    pub fn initial_state(&self) -> State {
  203|  3.92k|        State(1)
  204|  3.92k|    }
_RNvMs6_NtNtCseKOJhBLZIbD_8rsonpath5query9automatonNtB5_9Automaton27has_transition_to_accepting:
  331|  14.7k|    pub fn has_transition_to_accepting(&self, state: State) -> bool {
  332|  14.7k|        self[state].attributes.has_transition_to_accepting()
  333|  14.7k|    }
_RNvMs6_NtNtCseKOJhBLZIbD_8rsonpath5query9automatonNtB5_9Automaton39has_array_index_transition_to_accepting:
  310|  14.4k|    pub fn has_array_index_transition_to_accepting(&self, state: State, match_index: &NonNegativeArrayIndex) -> bool {
  311|  14.4k|        self[state].transitions().iter().any(|t| match t {
  312|       |            (TransitionLabel::ArrayIndex(i), s) => i.eq(match_index) && self.is_accepting(*s),
  313|       |            _ => false,
  314|  14.4k|        })
  315|  14.4k|    }
_RNvMs6_NtNtCseKOJhBLZIbD_8rsonpath5query9automatonNtB5_9Automaton29has_any_array_item_transition:
  238|  13.2k|    pub fn has_any_array_item_transition(&self, state: State) -> bool {
  239|  13.2k|        self[state]
  240|  13.2k|            .transitions()
  241|  13.2k|            .iter()
  242|  13.2k|            .any(|t| matches!(t, (TransitionLabel::ArrayIndex(_), _)))
  243|  13.2k|    }
_RNvMs7_NtNtCseKOJhBLZIbD_8rsonpath5query9automatonNtB5_10StateTable11transitions:
  397|  72.3k|    pub fn transitions(&self) -> &[Transition<'q>] {
  398|  72.3k|        &self.transitions
  399|  72.3k|    }
_RNvXs2_NtNtCseKOJhBLZIbD_8rsonpath5query9automatonNtB5_10StateTableNtNtCslATUeuPuGvJ_4core7default7Default7defaultB9_:
  108|  3.92k|    fn default() -> Self {
  109|  3.92k|        Self {
  110|  3.92k|            attributes: StateAttributes::default(),
  111|  3.92k|            transitions: Default::default(),
  112|  3.92k|            fallback_state: State(0),
  113|  3.92k|        }
  114|  3.92k|    }
_RNvMs6_NtNtCseKOJhBLZIbD_8rsonpath5query9automatonNtB5_9Automaton8minimize:
  375|  1.96k|    fn minimize(nfa: NondeterministicAutomaton<'q>) -> Result<Self, CompilerError> {
  376|  1.96k|        minimizer::minimize(nfa)
  377|  1.96k|    }

_RNvMNtNtNtCseKOJhBLZIbD_8rsonpath5query9automaton9minimizerNtB2_9Minimizer23process_nfa_transitions:
  215|  3.92k|    fn process_nfa_transitions(
  216|  3.92k|        &self,
  217|  3.92k|        current_superstate: SmallSet256,
  218|  3.92k|        current_checkpoint: Option<NfaStateId>,
  219|  3.92k|    ) -> Result<SuperstateTransitionTable<'q>, CompilerError> {
  220|  3.92k|        let mut wildcard_targets = current_superstate
  221|  3.92k|            .iter()
  222|  3.92k|            .map(NfaStateId)
  223|  3.92k|            .filter_map(|id| match self.nfa[id] {
  224|       |                NfaState::Recursive(nfa::Transition::Wildcard) | NfaState::Direct(nfa::Transition::Wildcard) => {
  225|       |                    Some(id.next().map(|x| x.0))
  226|       |                }
  227|       |                _ => None,
  228|  3.92k|            })
  229|  3.92k|            .collect::<Result<SmallSet256, _>>()?;
  230|  3.92k|        if let Some(checkpoint) = current_checkpoint {
  231|  3.92k|            wildcard_targets.insert(checkpoint.0);
  232|  3.92k|        }
  233|       |
  234|      0|        debug!("Wildcard target: {wildcard_targets:?}");
  235|       |
  236|  3.92k|        let mut transitions = SuperstateTransitionTable {
  237|  3.92k|            labelled: VecMap::new(),
  238|  3.92k|            wildcard: wildcard_targets,
  239|  3.92k|        };
  240|       |
  241|  5.88k|        for nfa_state in current_superstate.iter().map(NfaStateId) {
  242|  5.88k|            match self.nfa[nfa_state] {
  243|       |                // Direct states simply have a single transition to the next state in the NFA.
  244|       |                // Recursive transitions also have a self-loop, but that is handled by the
  245|       |                // checkpoints mechanism - here we only handle the forward transition.
  246|      0|                NfaState::Direct(nfa::Transition::Labelled(label))
  247|      0|                | NfaState::Recursive(nfa::Transition::Labelled(label)) => {
  248|      0|                    debug!("Considering transition {nfa_state} --{}-> {}", label, nfa_state.next()?,);
  249|       |                    // Add the target NFA state to the target superstate, or create a singleton
  250|       |                    // set if this is the first transition via this label encountered in the loop.
  251|      0|                    if let Some(target) = transitions.labelled.get_mut(&label) {
  252|      0|                        target.insert(nfa_state.next()?.0);
  253|       |                    } else {
  254|      0|                        let mut new_set = transitions.wildcard;
  255|      0|                        new_set.insert(nfa_state.next()?.0);
  256|      0|                        transitions.labelled.insert(label, new_set);
  257|       |                    }
  258|       |                }
  259|       |                NfaState::Direct(nfa::Transition::Wildcard)
  260|       |                | NfaState::Recursive(nfa::Transition::Wildcard)
  261|  5.88k|                | NfaState::Accepting => (),
  262|       |            }
  263|       |        }
  264|       |
  265|  3.92k|        Ok(transitions)
  266|  3.92k|    }
_RNvMNtNtNtCseKOJhBLZIbD_8rsonpath5query9automaton9minimizerNtB2_9Minimizer32normalize_superstate_transitions:
  270|  3.92k|    fn normalize_superstate_transitions(
  271|  3.92k|        &mut self,
  272|  3.92k|        transitions: &mut SuperstateTransitionTable,
  273|  3.92k|        current_checkpoint: Option<NfaStateId>,
  274|  3.92k|    ) -> Result<(), CompilerError> {
  275|  3.92k|        fn normalize_one(
  276|  3.92k|            this: &mut Minimizer,
  277|  3.92k|            state: &mut SmallSet256,
  278|  3.92k|            current_checkpoint: Option<NfaStateId>,
  279|  3.92k|        ) -> Result<(), CompilerError> {
  280|  3.92k|            if let Some(checkpoint) = current_checkpoint {
  281|  3.92k|                state.insert(checkpoint.0);
  282|  3.92k|            }
  283|  3.92k|
  284|  3.92k|            this.normalize(state);
  285|  3.92k|            this.activate_if_new(*state)?;
  286|  3.92k|
  287|  3.92k|            if let Some(checkpoint) = current_checkpoint {
  288|  3.92k|                this.checkpoints.insert(*state, checkpoint);
  289|  3.92k|            }
  290|  3.92k|
  291|  3.92k|            Ok(())
  292|  3.92k|        }
  293|  3.92k|
  294|  3.92k|        normalize_one(self, &mut transitions.wildcard, current_checkpoint)?;
  295|  3.92k|        for (_, state) in &mut transitions.labelled {
  296|      0|            normalize_one(self, state, current_checkpoint)?;
  297|       |        }
  298|       |
  299|  3.92k|        Ok(())
  300|  3.92k|    }
_RNCNvMNtNtNtCseKOJhBLZIbD_8rsonpath5query9automaton9minimizerNtB4_9Minimizer23process_nfa_transitions0Ba_:
  223|  5.88k|            .filter_map(|id| match self.nfa[id] {
  224|       |                NfaState::Recursive(nfa::Transition::Wildcard) | NfaState::Direct(nfa::Transition::Wildcard) => {
  225|  3.92k|                    Some(id.next().map(|x| x.0))
  226|       |                }
  227|  1.96k|                _ => None,
  228|  5.88k|            })
_RNCNvMNtNtNtCseKOJhBLZIbD_8rsonpath5query9automaton9minimizerNtB4_9Minimizer9normalize0Ba_:
  309|  7.84k|            .filter(|&x| matches!(self.nfa[x], NfaState::Recursive(_)))
_RNvNvMNtNtNtCseKOJhBLZIbD_8rsonpath5query9automaton9minimizerNtB4_9Minimizer32normalize_superstate_transitions13normalize_one:
  275|  3.92k|        fn normalize_one(
  276|  3.92k|            this: &mut Minimizer,
  277|  3.92k|            state: &mut SmallSet256,
  278|  3.92k|            current_checkpoint: Option<NfaStateId>,
  279|  3.92k|        ) -> Result<(), CompilerError> {
  280|  3.92k|            if let Some(checkpoint) = current_checkpoint {
  281|  3.92k|                state.insert(checkpoint.0);
  282|  3.92k|            }
  283|       |
  284|  3.92k|            this.normalize(state);
  285|  3.92k|            this.activate_if_new(*state)?;
  286|       |
  287|  3.92k|            if let Some(checkpoint) = current_checkpoint {
  288|  3.92k|                this.checkpoints.insert(*state, checkpoint);
  289|  3.92k|            }
  290|       |
  291|  3.92k|            Ok(())
  292|  3.92k|        }
_RNvMNtNtNtCseKOJhBLZIbD_8rsonpath5query9automaton9minimizerNtB2_9Minimizer18process_superstate:
  128|  3.92k|    fn process_superstate(&mut self, current_superstate: SmallSet256) -> Result<(), CompilerError> {
  129|  3.92k|        let current_checkpoint = self.determine_checkpoint(current_superstate);
  130|      0|        debug!("Expanding superstate: {current_superstate:?}, last checkpoint is {current_checkpoint:?}");
  131|       |
  132|  3.92k|        let mut transitions = self.process_nfa_transitions(current_superstate, current_checkpoint)?;
  133|      0|        debug!("Raw transitions: {:?}", transitions);
  134|       |
  135|  3.92k|        self.normalize_superstate_transitions(&mut transitions, current_checkpoint)?;
  136|      0|        debug!("Normalized transitions: {:?}", transitions);
  137|       |
  138|       |        // Translate the transitions to the data model expected by TransitionTable.
  139|  3.92k|        let translated_transitions: SmallVec<_> = transitions
  140|  3.92k|            .labelled
  141|  3.92k|            .into_iter()
  142|  3.92k|            .map(|(label, state)| (label, self.superstates[&state]))
  143|  3.92k|            .collect();
  144|      0|        debug!("Translated transitions: {translated_transitions:?}");
  145|       |
  146|       |        // If a checkpoint was reached, its singleton superstate is this DFA state's fallback state.
  147|       |        // Otherwise, we set the fallback to the rejecting state.
  148|  3.92k|        let id = self.superstates[&current_superstate];
  149|  3.92k|        let fallback_state = self.superstates[&transitions.wildcard];
  150|  3.92k|        let attributes = self.build_attributes(id, &translated_transitions, fallback_state);
  151|  3.92k|        let table = &mut self.dfa_states[id.0 as usize];
  152|  3.92k|        table.transitions = translated_transitions;
  153|  3.92k|        table.fallback_state = fallback_state;
  154|  3.92k|        table.attributes = attributes;
  155|  3.92k|
  156|  3.92k|        Ok(())
  157|  3.92k|    }
_RNvMNtNtNtCseKOJhBLZIbD_8rsonpath5query9automaton9minimizerNtB2_9Minimizer16build_attributes:
  161|  3.92k|    fn build_attributes(
  162|  3.92k|        &self,
  163|  3.92k|        id: DfaStateId,
  164|  3.92k|        transitions: &[(TransitionLabel, DfaStateId)],
  165|  3.92k|        fallback: DfaStateId,
  166|  3.92k|    ) -> StateAttributes {
  167|  3.92k|        let mut attrs = StateAttributesBuilder::new();
  168|  3.92k|
  169|  3.92k|        if self.accepting.contains(id.0) {
  170|      0|            debug!("{id} is accepting");
  171|  1.96k|            attrs = attrs.accepting();
  172|  1.96k|        }
  173|  3.92k|        if id == Self::rejecting_state() {
  174|      0|            debug!("{id} is rejecting");
  175|      0|            attrs = attrs.rejecting();
  176|  3.92k|        }
  177|  3.92k|        if transitions.len() == 1 && fallback == Self::rejecting_state() {
  178|      0|            debug!("{id} is unitary");
  179|      0|            attrs = attrs.unitary();
  180|  3.92k|        }
  181|  3.92k|        if self.accepting.contains(fallback.0) || transitions.iter().any(|(_, s)| self.accepting.contains(s.0)) {
  182|      0|            debug!("{id} has transitions to accepting");
  183|  3.92k|            attrs = attrs.transitions_to_accepting();
  184|      0|        }
  185|       |
  186|  3.92k|        attrs.into()
  187|  3.92k|    }
_RNvMNtNtNtCseKOJhBLZIbD_8rsonpath5query9automaton9minimizerNtB2_9Minimizer15activate_if_new:
  106|  5.88k|    fn activate_if_new(&mut self, superstate: SmallSet256) -> Result<(), CompilerError> {
  107|  5.88k|        if !self.superstates.contains_key(&superstate) {
  108|  3.92k|            let identifier = self
  109|  3.92k|                .superstates
  110|  3.92k|                .len()
  111|  3.92k|                .try_into()
  112|  3.92k|                .map(DfaStateId)
  113|  3.92k|                .map_err(|err| CompilerError::QueryTooComplex(Some(err)))?;
  114|  3.92k|            self.superstates.insert(superstate, identifier);
  115|  3.92k|            self.active_superstates.push(superstate);
  116|  3.92k|            self.dfa_states.push(StateTable::default());
  117|      0|            debug!("New superstate created: {superstate:?} {identifier}");
  118|  3.92k|            if superstate.contains(self.nfa.accepting_state().0) {
  119|  1.96k|                self.accepting.insert(identifier.0);
  120|  1.96k|            }
  121|  1.96k|        }
  122|       |
  123|  5.88k|        Ok(())
  124|  5.88k|    }
_RNvMNtNtNtCseKOJhBLZIbD_8rsonpath5query9automaton9minimizerNtB2_9Minimizer20determine_checkpoint:
  192|  3.92k|    fn determine_checkpoint(&mut self, superstate: SmallSet256) -> Option<NfaStateId> {
  193|  3.92k|        if let Some(nfa_state) = self.as_checkpoint(superstate) {
  194|  1.96k|            self.checkpoints.insert(superstate, nfa_state);
  195|  1.96k|            Some(nfa_state)
  196|       |        } else {
  197|  1.96k|            self.checkpoints.get(&superstate).copied()
  198|       |        }
  199|  3.92k|    }
_RNCNCNvMNtNtNtCseKOJhBLZIbD_8rsonpath5query9automaton9minimizerNtB6_9Minimizer23process_nfa_transitions00Bc_:
  225|  3.92k|                    Some(id.next().map(|x| x.0))
_RNvMNtNtNtCseKOJhBLZIbD_8rsonpath5query9automaton9minimizerNtB2_9Minimizer3run:
   78|  1.96k|    fn run(mut self) -> Result<Automaton<'q>, CompilerError> {
   79|  1.96k|        // Rejecting state has no outgoing transitions except for a self-loop.
   80|  1.96k|        self.dfa_states.push(StateTable {
   81|  1.96k|            transitions: smallvec![],
   82|  1.96k|            fallback_state: Self::rejecting_state(),
   83|  1.96k|            attributes: StateAttributesBuilder::new().rejecting().into(),
   84|  1.96k|        });
   85|  1.96k|        self.superstates.insert(SmallSet256::default(), Self::rejecting_state());
   86|  1.96k|
   87|  1.96k|        // Initial superstate is {0}.
   88|  1.96k|        let initial_superstate = [0].into();
   89|  1.96k|        self.activate_if_new(initial_superstate)?;
   90|       |
   91|  5.88k|        while let Some(superstate) = self.active_superstates.pop() {
   92|  3.92k|            self.process_superstate(superstate)?;
   93|       |        }
   94|       |
   95|  1.96k|        Ok(Automaton {
   96|  1.96k|            states: self.dfa_states,
   97|  1.96k|        })
   98|  1.96k|    }
_RNvMNtNtNtCseKOJhBLZIbD_8rsonpath5query9automaton9minimizerNtB2_9Minimizer13as_checkpoint:
  203|  3.92k|    fn as_checkpoint(&self, superstate: SmallSet256) -> Option<NfaStateId> {
  204|  3.92k|        if let Some(single_state) = superstate.singleton().map(NfaStateId) {
  205|  1.96k|            if matches!(self.nfa[single_state], NfaState::Recursive(_)) {
  206|  1.96k|                return Some(single_state);
  207|      0|            }
  208|  1.96k|        }
  209|       |
  210|  1.96k|        None
  211|  3.92k|    }
_RNvMNtNtNtCseKOJhBLZIbD_8rsonpath5query9automaton9minimizerNtB2_9Minimizer9normalize:
  305|  3.92k|    fn normalize(&self, superstate: &mut SmallSet256) {
  306|  3.92k|        let furthest_checkpoint = superstate
  307|  3.92k|            .iter()
  308|  3.92k|            .map(NfaStateId)
  309|  3.92k|            .filter(|&x| matches!(self.nfa[x], NfaState::Recursive(_)))
  310|  3.92k|            .max();
  311|       |
  312|  3.92k|        if let Some(cutoff) = furthest_checkpoint {
  313|  3.92k|            superstate.remove_all_before(cutoff.0);
  314|  3.92k|        }
  315|  3.92k|    }
_RNvMNtNtNtCseKOJhBLZIbD_8rsonpath5query9automaton9minimizerNtB2_9Minimizer15rejecting_stateB8_:
  100|  7.84k|    fn rejecting_state() -> DfaStateId {
  101|  7.84k|        DfaStateId(0)
  102|  7.84k|    }
_RNvNtNtNtCseKOJhBLZIbD_8rsonpath5query9automaton9minimizer8minimize:
   17|  1.96k|pub(super) fn minimize(nfa: NondeterministicAutomaton) -> Result<Automaton, CompilerError> {
   18|  1.96k|    let minimizer = Minimizer {
   19|  1.96k|        nfa,
   20|  1.96k|        superstates: VecMap::new(),
   21|  1.96k|        checkpoints: VecMap::new(),
   22|  1.96k|        active_superstates: smallvec![],
   23|  1.96k|        dfa_states: vec![],
   24|  1.96k|        accepting: SmallSet256::default(),
   25|  1.96k|    };
   26|  1.96k|
   27|  1.96k|    minimizer.run()
   28|  1.96k|}

_RNvMs_NtNtNtCseKOJhBLZIbD_8rsonpath5query9automaton3nfaNtB4_25NondeterministicAutomaton15accepting_state:
   93|  3.92k|    pub(super) fn accepting_state(&self) -> NfaStateId {
   94|  3.92k|        // CAST: safe because of the check in `new`.
   95|  3.92k|        NfaStateId((self.ordered_states.len() - 1) as u8)
   96|  3.92k|    }
_RNvMNtNtNtCseKOJhBLZIbD_8rsonpath5query9automaton3nfaNtB2_10NfaStateId4next:
   49|  3.92k|    pub(super) fn next(&self) -> Result<Self, CompilerError> {
   50|  3.92k|        self.0
   51|  3.92k|            .checked_add(1)
   52|  3.92k|            .ok_or(CompilerError::QueryTooComplex(None))
   53|  3.92k|            .map(Self)
   54|  3.92k|    }
_RNCNvMs_NtNtNtCseKOJhBLZIbD_8rsonpath5query9automaton3nfaNtB6_25NondeterministicAutomaton3new0Bc_:
   69|  3.92k|            .filter_map(|node| match node {
   70|  1.96k|                JsonPathQueryNode::Root(_) => None,
   71|      0|                JsonPathQueryNode::Descendant(name, _) => Some(Ok(Recursive(Transition::Labelled(name.into())))),
   72|      0|                JsonPathQueryNode::Child(name, _) => Some(Ok(Direct(Transition::Labelled(name.into())))),
   73|      0|                JsonPathQueryNode::AnyChild(_) => Some(Ok(Direct(Transition::Wildcard))),
   74|  1.96k|                JsonPathQueryNode::AnyDescendant(_) => Some(Ok(Recursive(Transition::Wildcard))),
   75|      0|                JsonPathQueryNode::ArrayIndexChild(index, _) => Some(Ok(Direct(Transition::Labelled((*index).into())))),
   76|      0|                JsonPathQueryNode::ArrayIndexDescendant(index, _) => {
   77|      0|                    Some(Ok(Recursive(Transition::Labelled((*index).into()))))
   78|       |                }
   79|  3.92k|            })
_RNvXs0_NtNtNtCseKOJhBLZIbD_8rsonpath5query9automaton3nfaNtB5_25NondeterministicAutomatonINtNtNtCslATUeuPuGvJ_4core3ops5index5IndexNtB5_10NfaStateIdE5index:
  102|  21.5k|    fn index(&self, index: NfaStateId) -> &Self::Output {
  103|  21.5k|        &self.ordered_states[index.0 as usize]
  104|  21.5k|    }
_RNvMs_NtNtNtCseKOJhBLZIbD_8rsonpath5query9automaton3nfaNtB4_25NondeterministicAutomaton3new:
   63|  1.96k|    pub(super) fn new(query: &'q JsonPathQuery) -> Result<Self, CompilerError> {
   64|  1.96k|        debug_assert!(query.root().is_root());
   65|       |
   66|  1.96k|        let states_result: Result<Vec<NfaState>, CompilerError> = query
   67|  1.96k|            .root()
   68|  1.96k|            .iter()
   69|  1.96k|            .filter_map(|node| match node {
   70|       |                JsonPathQueryNode::Root(_) => None,
   71|       |                JsonPathQueryNode::Descendant(name, _) => Some(Ok(Recursive(Transition::Labelled(name.into())))),
   72|       |                JsonPathQueryNode::Child(name, _) => Some(Ok(Direct(Transition::Labelled(name.into())))),
   73|       |                JsonPathQueryNode::AnyChild(_) => Some(Ok(Direct(Transition::Wildcard))),
   74|       |                JsonPathQueryNode::AnyDescendant(_) => Some(Ok(Recursive(Transition::Wildcard))),
   75|       |                JsonPathQueryNode::ArrayIndexChild(index, _) => Some(Ok(Direct(Transition::Labelled((*index).into())))),
   76|       |                JsonPathQueryNode::ArrayIndexDescendant(index, _) => {
   77|       |                    Some(Ok(Recursive(Transition::Labelled((*index).into()))))
   78|       |                }
   79|  1.96k|            })
   80|  1.96k|            .collect();
   81|  1.96k|        let mut states = states_result?;
   82|       |
   83|  1.96k|        states.push(Accepting);
   84|  1.96k|
   85|  1.96k|        let accepting_state: Result<u8, _> = (states.len() - 1).try_into();
   86|  1.96k|        if let Err(err) = accepting_state {
   87|      0|            Err(CompilerError::QueryTooComplex(Some(err)))
   88|       |        } else {
   89|  1.96k|            Ok(NondeterministicAutomaton { ordered_states: states })
   90|       |        }
   91|  1.96k|    }

_RNvXNtNtNtCseKOJhBLZIbD_8rsonpath5query9automaton9small_setNtB2_11SmallSet256INtB2_8SmallSethE6insert:
   57|  15.6k|    fn insert(&mut self, elem: u8) {
   58|  15.6k|        if elem < 128 {
   59|  15.6k|            self.half_1.insert(elem)
   60|       |        } else {
   61|      0|            self.half_2.insert(elem - 128)
   62|       |        }
   63|  15.6k|    }
_RNvXNtNtNtCseKOJhBLZIbD_8rsonpath5query9automaton9small_setNtB2_11SmallSet256INtB2_8SmallSethE17remove_all_before:
   95|  3.92k|    fn remove_all_before(&mut self, cutoff: u8) {
   96|  3.92k|        if cutoff < 128 {
   97|  3.92k|            self.half_1.remove_all_before(cutoff)
   98|      0|        } else {
   99|      0|            self.half_1.clear();
  100|      0|            self.half_2.remove_all_before(cutoff - 128);
  101|      0|        }
  102|  3.92k|    }
_RNvXse_NtNtNtCseKOJhBLZIbD_8rsonpath5query9automaton9small_setNtB5_11SmallSet256NtNtCslATUeuPuGvJ_4core3cmp9PartialEq2eqBb_:
   37|  49.0k|#[derive(Default, Clone, Copy, PartialEq, Eq)]
_RNvXs_NtNtNtCseKOJhBLZIbD_8rsonpath5query9automaton9small_setNtB4_11SmallSet128INtB4_8SmallSethE17remove_all_before:
  139|  3.92k|    fn remove_all_before(&mut self, cutoff: u8) {
  140|  3.92k|        let mask: u128 = 0xFFFF_FFFF_FFFF_FFFF_FFFF_FFFF_FFFF_FFFF << cutoff;
  141|  3.92k|        self.bitmask &= mask;
  142|  3.92k|    }
_RNvXNtNtNtCseKOJhBLZIbD_8rsonpath5query9automaton9small_setNtB2_11SmallSet256INtB2_8SmallSethE8contains:
   65|  11.7k|    fn contains(&self, elem: u8) -> bool {
   66|  11.7k|        if elem < 128 {
   67|  11.7k|            self.half_1.contains(elem)
   68|       |        } else {
   69|      0|            self.half_2.contains(elem - 128)
   70|       |        }
   71|  11.7k|    }
_RNvXs_NtNtNtCseKOJhBLZIbD_8rsonpath5query9automaton9small_setNtB4_11SmallSet128INtB4_8SmallSethE8contains:
  118|  11.7k|    fn contains(&self, elem: u8) -> bool {
  119|  11.7k|        (self.bitmask & (1 << elem)) != 0
  120|  11.7k|    }
_RNvXs_NtNtNtCseKOJhBLZIbD_8rsonpath5query9automaton9small_setNtB4_11SmallSet128INtB4_8SmallSethE6insert:
  114|  15.6k|    fn insert(&mut self, elem: u8) {
  115|  15.6k|        self.bitmask |= 1 << elem;
  116|  15.6k|    }
_RNvXsa_NtNtNtCseKOJhBLZIbD_8rsonpath5query9automaton9small_setNtB5_11SmallSet256NtNtCslATUeuPuGvJ_4core7default7Default7defaultBb_:
   37|  9.80k|#[derive(Default, Clone, Copy, PartialEq, Eq)]
_RNvXs_NtNtNtCseKOJhBLZIbD_8rsonpath5query9automaton9small_setNtB4_11SmallSet128INtB4_8SmallSethE8is_emptyBa_:
  110|  7.84k|    fn is_empty(&self) -> bool {
  111|  7.84k|        self.bitmask == 0
  112|  7.84k|    }
_RNvXs_NtNtNtCseKOJhBLZIbD_8rsonpath5query9automaton9small_setNtB4_11SmallSet128INtB4_8SmallSethE9singleton:
  126|  3.92k|    fn singleton(&self) -> Option<u8> {
  127|  3.92k|        let elem = self.bitmask.trailing_zeros();
  128|  3.92k|        let elem_mask = 1_u128.wrapping_shl(elem);
  129|  3.92k|        let remainder = self.bitmask ^ elem_mask;
  130|  3.92k|
  131|  3.92k|        // CAST: trivially safe as bitmask can have at most 128 zeroes.
  132|  3.92k|        (remainder == 0).then_some(elem as u8)
  133|  3.92k|    }
_RNvXsl_NtNtNtCseKOJhBLZIbD_8rsonpath5query9automaton9small_setNtB5_11SmallSet128NtNtCslATUeuPuGvJ_4core3cmp9PartialEq2eqBb_:
   43|  62.7k|#[derive(Default, Clone, Copy, PartialEq, Eq)]
_RNvXNtNtNtCseKOJhBLZIbD_8rsonpath5query9automaton9small_setNtB2_11SmallSet256INtB2_8SmallSethE9singleton:
   80|  3.92k|    fn singleton(&self) -> Option<u8> {
   81|  3.92k|        if self.half_1.is_empty() {
   82|      0|            self.half_2.singleton().map(|x| x + 128)
   83|  3.92k|        } else if self.half_2.is_empty() {
   84|  3.92k|            self.half_1.singleton()
   85|       |        } else {
   86|      0|            None
   87|       |        }
   88|  3.92k|    }
_RNvXNtNtNtCseKOJhBLZIbD_8rsonpath5query9automaton9small_setNtB2_11SmallSet256INtB2_8SmallSethE4iterB8_:
   73|  11.7k|    fn iter(&self) -> SmallSet256Iter {
   74|  11.7k|        SmallSet256Iter {
   75|  11.7k|            half_1: self.half_1.iter(),
   76|  11.7k|            half_2: self.half_2.iter(),
   77|  11.7k|        }
   78|  11.7k|    }
_RINvXs6_NtNtNtCseKOJhBLZIbD_8rsonpath5query9automaton9small_setNtB6_11SmallSet256INtNtNtNtCslATUeuPuGvJ_4core4iter6traits7collect12FromIteratorhE9from_iterINtNtB1o_8adapters12GenericShuntINtNtB2w_10filter_map9FilterMapINtNtB2w_3map3MapNtB6_15SmallSet256IterNcNtNtB8_3nfa10NfaStateId0ENCNvMNtB8_9minimizerNtB4D_9Minimizer23process_nfa_transitions0EINtNtB1q_6result6ResultNtNtB1q_7convert10InfallibleNtNtBa_5error13CompilerErrorEEEBc_:
  189|  3.92k|    fn from_iter<T: IntoIterator<Item = u8>>(iter: T) -> Self {
  190|  3.92k|        let mut result = Self::default();
  191|  7.84k|        for elem in iter {
  192|  3.92k|            result.insert(elem);
  193|  3.92k|        }
  194|  3.92k|        result
  195|  3.92k|    }
_RNvXs_NtNtNtCseKOJhBLZIbD_8rsonpath5query9automaton9small_setNtB4_11SmallSet128INtB4_8SmallSethE4iterBa_:
  122|  23.5k|    fn iter(&self) -> SmallSet128Iter {
  123|  23.5k|        SmallSet128Iter { bitmask: self.bitmask }
  124|  23.5k|    }
_RNvXsh_NtNtNtCseKOJhBLZIbD_8rsonpath5query9automaton9small_setNtB5_11SmallSet128NtNtCslATUeuPuGvJ_4core7default7Default7defaultBb_:
   43|  19.6k|#[derive(Default, Clone, Copy, PartialEq, Eq)]
_RNvXs8_NtNtNtCseKOJhBLZIbD_8rsonpath5query9automaton9small_setNtB5_15SmallSet256IterNtNtNtNtCslATUeuPuGvJ_4core4iter6traits8iterator8Iterator4next:
  213|  31.3k|    fn next(&mut self) -> Option<Self::Item> {
  214|  31.3k|        self.half_1.next().or_else(|| self.half_2.next().map(|x| x + 128))
  215|  31.3k|    }
_RNvXs9_NtNtNtCseKOJhBLZIbD_8rsonpath5query9automaton9small_setNtB5_15SmallSet128IterNtNtNtNtCslATUeuPuGvJ_4core4iter6traits8iterator8Iterator4next:
  225|  43.1k|    fn next(&mut self) -> Option<Self::Item> {
  226|  43.1k|        let next_elem = self.bitmask.trailing_zeros();
  227|  43.1k|
  228|  43.1k|        if next_elem == 128 {
  229|  23.5k|            return None;
  230|  19.6k|        }
  231|  19.6k|
  232|  19.6k|        let elem_mask = 1 << next_elem;
  233|  19.6k|        self.bitmask ^= elem_mask;
  234|  19.6k|
  235|  19.6k|        // CAST: trivially safe as bitmask can have at most 128 zeroes.
  236|  19.6k|        Some(next_elem as u8)
  237|  43.1k|    }
_RNCNvXs8_NtNtNtCseKOJhBLZIbD_8rsonpath5query9automaton9small_setNtB7_15SmallSet256IterNtNtNtNtCslATUeuPuGvJ_4core4iter6traits8iterator8Iterator4next0Bd_:
  214|  11.7k|        self.half_1.next().or_else(|| self.half_2.next().map(|x| x + 128))
_RINvXs6_NtNtNtCseKOJhBLZIbD_8rsonpath5query9automaton9small_setNtB6_11SmallSet256INtNtNtNtCslATUeuPuGvJ_4core4iter6traits7collect12FromIteratorhE9from_iterAhj1_EBc_:
  189|  1.96k|    fn from_iter<T: IntoIterator<Item = u8>>(iter: T) -> Self {
  190|  1.96k|        let mut result = Self::default();
  191|  3.92k|        for elem in iter {
  192|  1.96k|            result.insert(elem);
  193|  1.96k|        }
  194|  1.96k|        result
  195|  1.96k|    }
_RNvXs1_NtNtNtCseKOJhBLZIbD_8rsonpath5query9automaton9small_setNtB5_11SmallSet256INtNtCslATUeuPuGvJ_4core7convert4FromAhj1_E4fromBb_:
  155|  1.96k|    fn from(arr: [u8; N]) -> Self {
  156|  1.96k|        Self::from_iter(arr)
  157|  1.96k|    }

_RNvMs1_NtNtNtCseKOJhBLZIbD_8rsonpath5query9automaton5stateNtB5_15StateAttributes12is_accepting:
  100|  80.3k|    pub fn is_accepting(&self) -> bool {
  101|  80.3k|        self.is_set(StateAttribute::Accepting)
  102|  80.3k|    }
_RNvMs1_NtNtNtCseKOJhBLZIbD_8rsonpath5query9automaton5stateNtB5_15StateAttributes10is_unitary:
  125|  5.23k|    pub fn is_unitary(&self) -> bool {
  126|  5.23k|        self.is_set(StateAttribute::Unitary)
  127|  5.23k|    }
_RNvXsn_NtNtNtCseKOJhBLZIbD_8rsonpath5query9automaton5stateNtB5_5StateNtNtCslATUeuPuGvJ_4core3cmp9PartialEq2eqCs9kGaKDyuozi_20fuzz_arbitrary_bytes:
  137|  24.7k|#[derive(Clone, Copy, PartialEq, Eq, PartialOrd, Ord, Hash, Debug)]
_RNvMs1_NtNtNtCseKOJhBLZIbD_8rsonpath5query9automaton5stateNtB5_15StateAttributes12is_rejecting:
  108|  22.8k|    pub fn is_rejecting(&self) -> bool {
  109|  22.8k|        self.is_set(StateAttribute::Rejecting)
  110|  22.8k|    }
_RNvMs1_NtNtNtCseKOJhBLZIbD_8rsonpath5query9automaton5stateNtB5_15StateAttributes27has_transition_to_accepting:
  116|  14.7k|    pub fn has_transition_to_accepting(&self) -> bool {
  117|  14.7k|        self.is_set(StateAttribute::TransitionsToAccepting)
  118|  14.7k|    }
_RNvMs1_NtNtNtCseKOJhBLZIbD_8rsonpath5query9automaton5stateNtB5_15StateAttributes6is_set:
  131|   123k|    fn is_set(&self, attr: StateAttribute) -> bool {
  132|   123k|        (self.0 & attr as u8) != 0
  133|   123k|    }
_RNvMNtNtNtCseKOJhBLZIbD_8rsonpath5query9automaton5stateNtB2_22StateAttributesBuilder24transitions_to_acceptingB8_:
   50|  3.92k|    pub(crate) fn transitions_to_accepting(self) -> Self {
   51|  3.92k|        self.set(StateAttribute::TransitionsToAccepting)
   52|  3.92k|    }
_RNvMNtNtNtCseKOJhBLZIbD_8rsonpath5query9automaton5stateNtB2_22StateAttributesBuilder3setB8_:
   58|  7.84k|    fn set(self, attr: StateAttribute) -> Self {
   59|  7.84k|        Self {
   60|  7.84k|            attrs: StateAttributes(self.attrs.0 | attr as u8),
   61|  7.84k|        }
   62|  7.84k|    }
_RNvMNtNtNtCseKOJhBLZIbD_8rsonpath5query9automaton5stateNtB2_22StateAttributesBuilder5buildB8_:
   54|  5.88k|    pub(crate) fn build(self) -> StateAttributes {
   55|  5.88k|        self.attrs
   56|  5.88k|    }
_RNvMNtNtNtCseKOJhBLZIbD_8rsonpath5query9automaton5stateNtB2_22StateAttributesBuilder9acceptingB8_:
   38|  1.96k|    pub(crate) fn accepting(self) -> Self {
   39|  1.96k|        self.set(StateAttribute::Accepting)
   40|  1.96k|    }
_RNvXs_NtNtNtCseKOJhBLZIbD_8rsonpath5query9automaton5stateNtB4_15StateAttributesINtNtCslATUeuPuGvJ_4core7convert4FromNtB4_22StateAttributesBuilderE4from:
   67|  5.88k|    fn from(value: StateAttributesBuilder) -> Self {
   68|  5.88k|        value.build()
   69|  5.88k|    }
_RNvXsj_NtNtNtCseKOJhBLZIbD_8rsonpath5query9automaton5stateNtB5_15StateAttributesNtNtCslATUeuPuGvJ_4core7default7Default7defaultBb_:
   28|  3.92k|#[derive(Clone, Copy, PartialEq, Eq, Hash, Debug, Default)]
_RNvMNtNtNtCseKOJhBLZIbD_8rsonpath5query9automaton5stateNtB2_22StateAttributesBuilder3newB8_:
   32|  5.88k|    pub(crate) fn new() -> Self {
   33|  5.88k|        Self {
   34|  5.88k|            attrs: StateAttributes(0),
   35|  5.88k|        }
   36|  5.88k|    }
_RNvXsn_NtNtNtCseKOJhBLZIbD_8rsonpath5query9automaton5stateNtB5_5StateNtNtCslATUeuPuGvJ_4core3cmp9PartialEq2eqBb_:
  137|  3.92k|#[derive(Clone, Copy, PartialEq, Eq, PartialOrd, Ord, Hash, Debug)]
_RNvMNtNtNtCseKOJhBLZIbD_8rsonpath5query9automaton5stateNtB2_22StateAttributesBuilder9rejectingB8_:
   42|  1.96k|    pub(crate) fn rejecting(self) -> Self {
   43|  1.96k|        self.set(StateAttribute::Rejecting)
   44|  1.96k|    }

_RNvMs_NtNtCseKOJhBLZIbD_8rsonpath5query23nonnegative_array_indexNtB4_21NonNegativeArrayIndex13try_incrementCs9kGaKDyuozi_20fuzz_arbitrary_bytes:
   53|  13.0k|    pub fn try_increment(&mut self) -> Result<(), ArrayIndexError> {
   54|  13.0k|        let new_index = self.0 + 1;
   55|  13.0k|        if new_index <= JSON_NUMBER_ULIMIT {
   56|  13.0k|            self.0 = new_index;
   57|  13.0k|            Ok(())
   58|       |        } else {
   59|      0|            Err(ArrayIndexError::ExceedsUpperLimitError(new_index.to_string()))
   60|       |        }
   61|  13.0k|    }

_RNvNtNtCseKOJhBLZIbD_8rsonpath5query6parser7escapedB5_:
  294|  7.84k|fn escaped<'a>() -> impl Parser<'a, &'a str> {
  295|  7.84k|    alt((
  296|  7.84k|        value("\\b", tag("b")),
  297|  7.84k|        value("\\f", tag("f")),
  298|  7.84k|        value("\\n", tag("n")),
  299|  7.84k|        value("\\r", tag("r")),
  300|  7.84k|        value("\\t", tag("t")),
  301|  7.84k|        value("\\\\", tag("\\")),
  302|  7.84k|        value("/", tag("/")),
  303|  7.84k|    ))
  304|  7.84k|}
_RINvNtNtCseKOJhBLZIbD_8rsonpath5query6parser14tokens_to_nodeINtNtNtCshJIxznpEM8j_5alloc3vec9into_iter8IntoIterNtB2_5TokenEEB6_:
  110|  3.92k|fn tokens_to_node<'a, I: Iterator<Item = Token<'a>>>(tokens: &mut I) -> Result<Option<JsonPathQueryNode>, ParserError> {
  111|  3.92k|    match tokens.next() {
  112|  1.96k|        Some(token) => {
  113|  1.96k|            let child_node = tokens_to_node(tokens)?.map(Box::new);
  114|  1.96k|            match token {
  115|      0|                Token::Root => Ok(Some(JsonPathQueryNode::Root(child_node))),
  116|      0|                Token::Child(member) => Ok(Some(JsonPathQueryNode::Child(
  117|      0|                    JsonString::new(member.borrow()),
  118|      0|                    child_node,
  119|      0|                ))),
  120|      0|                Token::ArrayIndexChild(i) => Ok(Some(JsonPathQueryNode::ArrayIndexChild(i, child_node))),
  121|      0|                Token::WildcardChild() => Ok(Some(JsonPathQueryNode::AnyChild(child_node))),
  122|      0|                Token::Descendant(member) => Ok(Some(JsonPathQueryNode::Descendant(
  123|      0|                    JsonString::new(member.borrow()),
  124|      0|                    child_node,
  125|      0|                ))),
  126|      0|                Token::ArrayIndexDescendant(i) => Ok(Some(JsonPathQueryNode::ArrayIndexDescendant(i, child_node))),
  127|  1.96k|                Token::WildcardDescendant() => Ok(Some(JsonPathQueryNode::AnyDescendant(child_node))),
  128|       |            }
  129|       |        }
  130|  1.96k|        _ => Ok(None),
  131|       |    }
  132|  3.92k|}
_RNCNvNtNtCseKOJhBLZIbD_8rsonpath5query6parser8jsonpath0B7_:
  151|  1.96k|        opt(map(char('$'), |_| Token::Root)), // root selector
_RNvNtNtCseKOJhBLZIbD_8rsonpath5query6parser23wildcard_child_selectorB5_:
  166|  1.96k|fn wildcard_child_selector<'a>() -> impl Parser<'a, Token<'a>> {
  167|  1.96k|    map(alt((dot_wildcard_selector(), index_wildcard_selector())), |_| {
  168|       |        Token::WildcardChild()
  169|  1.96k|    })
  170|  1.96k|}
_RNvNtNtCseKOJhBLZIbD_8rsonpath5query6parser8jsonpath:
  149|  1.96k|fn jsonpath<'a>() -> impl Parser<'a, (Option<Token<'a>>, Vec<Token<'a>>)> {
  150|  1.96k|    pair(
  151|  1.96k|        opt(map(char('$'), |_| Token::Root)), // root selector
  152|  1.96k|        non_root(),
  153|  1.96k|    )
  154|  1.96k|}
_RNvNtNtCseKOJhBLZIbD_8rsonpath5query6parser8non_root:
  156|  1.96k|fn non_root<'a>() -> impl Parser<'a, Vec<Token<'a>>> {
  157|  1.96k|    many0(alt((
  158|  1.96k|        wildcard_child_selector(),
  159|  1.96k|        child_selector(),
  160|  1.96k|        array_index_child_selector(),
  161|  1.96k|        wildcard_descendant_selector(),
  162|  1.96k|        descendant_selector(),
  163|  1.96k|    )))
  164|  1.96k|}
_RNvNtNtCseKOJhBLZIbD_8rsonpath5query6parser21parse_json_path_query:
   68|  1.96k|pub(crate) fn parse_json_path_query(query_string: &str) -> Result<JsonPathQuery, ParserError> {
   69|  1.96k|    let tokens_result = jsonpath()(query_string);
   70|  1.96k|    let finished = tokens_result.finish();
   71|  1.96k|
   72|  1.96k|    match finished {
   73|  1.96k|        Ok(("", (_root_token, tokens))) => {
   74|      0|            debug!("Parsed tokens: {}", {
   75|      0|                use fmt::Write;
   76|      0|                _root_token.map_or(String::new(), |x| format!("{x}"))
   77|      0|                    + &tokens.iter().fold(String::new(), |mut out, x| {
   78|       |                        write!(out, "({x:?})").expect("infallible");
   79|       |                        out
   80|      0|                    })
   81|       |            });
   82|  1.96k|            let node = tokens_to_node(&mut tokens.into_iter())?;
   83|  1.96k|            Ok(match node {
   84|      0|                None => JsonPathQuery::new(Box::new(JsonPathQueryNode::Root(None))),
   85|  1.96k|                Some(node) if node.is_root() => JsonPathQuery::new(Box::new(node)),
   86|  1.96k|                Some(node) => JsonPathQuery::new(Box::new(JsonPathQueryNode::Root(Some(Box::new(node))))),
   87|       |            })
   88|       |        }
   89|       |        _ => {
   90|      0|            let mut parse_errors = ParseErrorReport::new();
   91|      0|            let mut continuation = finished.map(|x| x.0);
   92|      0|            loop {
   93|      0|                match continuation {
   94|      0|                    Ok("") => return Err(ParserError::SyntaxError { report: parse_errors }),
   95|      0|                    Ok(remaining) => {
   96|      0|                        let error_character_index = query_string.len() - remaining.len();
   97|      0|                        parse_errors.record_at(error_character_index);
   98|      0|                        let next_char_boundary = (1..=4)
   99|      0|                            .find(|x| remaining.is_char_boundary(*x))
  100|      0|                            .expect("longest UTF8 char is 4 bytes");
  101|      0|                        continuation = non_root()(&remaining[next_char_boundary..]).finish().map(|x| x.0);
  102|      0|                    }
  103|      0|                    Err(e) => return Err(nom::error::Error::new(query_string.to_owned(), e.code).into()),
  104|       |                }
  105|       |            }
  106|       |        }
  107|       |    }
  108|  1.96k|}
_RNCNvNtNtCseKOJhBLZIbD_8rsonpath5query6parser12member_first0B7_:
  216|  1.96k|    verify(anychar, |&x| x.is_alpha() || x == '_' || !x.is_ascii())
_RNvNtNtCseKOJhBLZIbD_8rsonpath5query6parser9unescapedB5_:
  306|  7.84k|fn unescaped<'a>() -> impl Parser<'a, char> {
  307|  7.84k|    verify(none_of(r#"'"\"#), |&c| u32::from(c) >= 0x20)
  308|  7.84k|}
_RNvNtNtCseKOJhBLZIbD_8rsonpath5query6parser18parsed_array_indexB5_:
  239|  3.92k|fn parsed_array_index<'a>() -> impl Parser<'a, u64> {
  240|  3.92k|    map_res(length_limited_array_index(), str::parse)
  241|  3.92k|}
_RNvNtNtCseKOJhBLZIbD_8rsonpath5query6parser20double_quoted_member:
  285|  3.92k|fn double_quoted_member<'a>() -> impl Parser<'a, String> {
  286|  3.92k|    escaped_transform(
  287|  3.92k|        recognize(many1(alt((unescaped(), char('\''))))),
  288|  3.92k|        '\\',
  289|  3.92k|        // If ["\""] is parsed the string must be \". Same reason as in single_quoted_member.
  290|  3.92k|        alt((escaped(), value("\\\"", tag("\"")))),
  291|  3.92k|    )
  292|  3.92k|}
_RNvNtNtCseKOJhBLZIbD_8rsonpath5query6parser26length_limited_array_indexB5_:
  244|  3.92k|fn length_limited_array_index<'a>() -> impl Parser<'a, &'a str> {
  245|  3.92k|    map_res(digit1, |cs: &str| {
  246|       |        if cs.len() > (ARRAY_INDEX_ULIMIT_BASE_10_DIGIT_COUNT + 1) {
  247|       |            Err(ArrayIndexError::ExceedsUpperLimitError(cs.to_owned()))
  248|       |        } else {
  249|       |            Ok(cs)
  250|       |        }
  251|  3.92k|    })
  252|  3.92k|}
_RNvNtNtCseKOJhBLZIbD_8rsonpath5query6parser13quoted_member:
  254|  3.92k|fn quoted_member<'a>() -> impl Parser<'a, MemberString<'a>> {
  255|  3.92k|    alt((
  256|  3.92k|        delimited(
  257|  3.92k|            char('\''),
  258|  3.92k|            map(opt(single_quoted_member()), MemberString::from),
  259|  3.92k|            char('\''),
  260|  3.92k|        ),
  261|  3.92k|        delimited(
  262|  3.92k|            char('"'),
  263|  3.92k|            map(opt(double_quoted_member()), MemberString::from),
  264|  3.92k|            char('"'),
  265|  3.92k|        ),
  266|  3.92k|    ))
  267|  3.92k|}
_RNvNtNtCseKOJhBLZIbD_8rsonpath5query6parser20single_quoted_member:
  269|  3.92k|fn single_quoted_member<'a>() -> impl Parser<'a, String> {
  270|  3.92k|    escaped_transform(
  271|  3.92k|        // If ['"'] is parsed, we want the string to be \", not ", since
  272|  3.92k|        // in a valid JSON document the only way to represent a double quote in a string is with an escape.
  273|  3.92k|        map(
  274|  3.92k|            many1(alt((
  275|  3.92k|                map(unescaped(), MaybeEscapedChar::Char),
  276|  3.92k|                map(char('"'), MaybeEscapedChar::Escaped),
  277|  3.92k|            ))),
  278|  3.92k|            MaybeEscapedCharVec,
  279|  3.92k|        ),
  280|  3.92k|        '\\',
  281|  3.92k|        alt((escaped(), value("'", tag("'")))),
  282|  3.92k|    )
  283|  3.92k|}
_RNvNtNtCseKOJhBLZIbD_8rsonpath5query6parser14child_selector:
  172|  1.96k|fn child_selector<'a>() -> impl Parser<'a, Token<'a>> {
  173|  1.96k|    map(alt((dot_selector(), index_selector())), Token::Child)
  174|  1.96k|}
_RNvNtNtCseKOJhBLZIbD_8rsonpath5query6parser19descendant_selector:
  184|  1.96k|fn descendant_selector<'a>() -> impl Parser<'a, Token<'a>> {
  185|  1.96k|    preceded(
  186|  1.96k|        tag(".."),
  187|  1.96k|        alt((
  188|  1.96k|            map(alt((member(), index_selector())), Token::Descendant),
  189|  1.96k|            array_index_descendant_selector(),
  190|  1.96k|        )),
  191|  1.96k|    )
  192|  1.96k|}
_RNvNtNtCseKOJhBLZIbD_8rsonpath5query6parser23nonnegative_array_indexB5_:
  235|  3.92k|fn nonnegative_array_index<'a>() -> impl Parser<'a, NonNegativeArrayIndex> {
  236|  3.92k|    map_res(parsed_array_index(), TryInto::try_into)
  237|  3.92k|}
_RNvNtNtCseKOJhBLZIbD_8rsonpath5query6parser6memberB5_:
  208|  3.92k|fn member<'a>() -> impl Parser<'a, MemberString<'a>> {
  209|  3.92k|    map(
  210|  3.92k|        recognize(pair(member_first(), many0(member_character()))),
  211|  3.92k|        MemberString::Borrowed,
  212|  3.92k|    )
  213|  3.92k|}
_RNvNtNtCseKOJhBLZIbD_8rsonpath5query6parser31array_index_descendant_selectorB5_:
  227|  1.96k|fn array_index_descendant_selector<'a>() -> impl Parser<'a, Token<'a>> {
  228|  1.96k|    map(array_index_selector(), Token::ArrayIndexDescendant)
  229|  1.96k|}
_RNvNtNtCseKOJhBLZIbD_8rsonpath5query6parser20array_index_selectorB5_:
  231|  3.92k|fn array_index_selector<'a>() -> impl Parser<'a, NonNegativeArrayIndex> {
  232|  3.92k|    delimited(char('['), nonnegative_array_index(), char(']'))
  233|  3.92k|}
_RNvNtNtCseKOJhBLZIbD_8rsonpath5query6parser16member_characterB5_:
  219|  3.92k|fn member_character<'a>() -> impl Parser<'a, char> {
  220|  3.92k|    verify(anychar, |&x| x.is_alphanumeric() || x == '_' || !x.is_ascii())
  221|  3.92k|}
_RNvNtNtCseKOJhBLZIbD_8rsonpath5query6parser26array_index_child_selectorB5_:
  223|  1.96k|fn array_index_child_selector<'a>() -> impl Parser<'a, Token<'a>> {
  224|  1.96k|    map(array_index_selector(), Token::ArrayIndexChild)
  225|  1.96k|}
_RNvNtNtCseKOJhBLZIbD_8rsonpath5query6parser23index_wildcard_selectorB5_:
  204|  3.92k|fn index_wildcard_selector<'a>() -> impl Parser<'a, char> {
  205|  3.92k|    delimited(char('['), char('*'), char(']'))
  206|  3.92k|}
_RNvNtNtCseKOJhBLZIbD_8rsonpath5query6parser12dot_selectorB5_:
  176|  1.96k|fn dot_selector<'a>() -> impl Parser<'a, MemberString<'a>> {
  177|  1.96k|    preceded(char('.'), member())
  178|  1.96k|}
_RNvNtNtCseKOJhBLZIbD_8rsonpath5query6parser28wildcard_descendant_selectorB5_:
  194|  1.96k|fn wildcard_descendant_selector<'a>() -> impl Parser<'a, Token<'a>> {
  195|  1.96k|    map(preceded(tag(".."), alt((char('*'), index_wildcard_selector()))), |_| {
  196|       |        Token::WildcardDescendant()
  197|  1.96k|    })
  198|  1.96k|}
_RNvNtNtCseKOJhBLZIbD_8rsonpath5query6parser14index_selector:
  200|  3.92k|fn index_selector<'a>() -> impl Parser<'a, MemberString<'a>> {
  201|  3.92k|    delimited(char('['), quoted_member(), char(']'))
  202|  3.92k|}
_RNvNtNtCseKOJhBLZIbD_8rsonpath5query6parser21dot_wildcard_selectorB5_:
  180|  1.96k|fn dot_wildcard_selector<'a>() -> impl Parser<'a, char> {
  181|  1.96k|    preceded(char('.'), char('*'))
  182|  1.96k|}
_RNCNvNtNtCseKOJhBLZIbD_8rsonpath5query6parser28wildcard_descendant_selector0B7_:
  195|  1.96k|    map(preceded(tag(".."), alt((char('*'), index_wildcard_selector()))), |_| {
  196|  1.96k|        Token::WildcardDescendant()
  197|  1.96k|    })
_RNvNtNtCseKOJhBLZIbD_8rsonpath5query6parser12member_firstB5_:
  215|  3.92k|fn member_first<'a>() -> impl Parser<'a, char> {
  216|  3.92k|    verify(anychar, |&x| x.is_alpha() || x == '_' || !x.is_ascii())
  217|  3.92k|}

_RNvXs2_NtCseKOJhBLZIbD_8rsonpath6resultINtNtCshJIxznpEM8j_5alloc3vec3VecNtB5_5MatchEINtB5_4SinkB18_E9add_matchCs9kGaKDyuozi_20fuzz_arbitrary_bytes:
  144|  14.0k|    fn add_match(&mut self, data: D) -> Result<(), Infallible> {
  145|  14.0k|        self.push(data);
  146|  14.0k|        Ok(())
  147|  14.0k|    }
_RNvXsa_NtCseKOJhBLZIbD_8rsonpath6resultNtB5_15MatchedNodeTypeNtNtCslATUeuPuGvJ_4core3cmp9PartialEq2eqCs9kGaKDyuozi_20fuzz_arbitrary_bytes:
  189|  22.0k|#[derive(Debug, PartialEq, Eq, Hash, Clone, Copy)]

_RNvMs2_NtNtCseKOJhBLZIbD_8rsonpath6result5nodesINtB5_14SimpleRecorderRShINtNtCshJIxznpEM8j_5alloc3vec3VecNtB7_5MatchEE12record_blockCs9kGaKDyuozi_20fuzz_arbitrary_bytes:
  224|  6.42k|    fn record_block(&mut self, block: B) {
  225|  6.42k|        if let Some(finished) = self.current_block.as_ref() {
  226|  4.46k|            if let Some(node) = self.node.as_mut() {
  227|      0|                debug!("Continuing node, idx is {}", self.idx);
  228|  1.74k|                append_block(&mut node.buf, finished, self.idx, node.start_idx)
  229|  2.72k|            }
  230|       |
  231|  4.46k|            self.idx += finished.len();
  232|  1.96k|        }
  233|       |
  234|  6.42k|        self.current_block = Some(block);
  235|      0|        debug!("New block, idx = {}", self.idx);
  236|  6.42k|    }
_RNvMs2_NtNtCseKOJhBLZIbD_8rsonpath6result5nodesINtB5_14SimpleRecorderRShINtNtCshJIxznpEM8j_5alloc3vec3VecNtB7_5MatchEE16try_record_matchCs9kGaKDyuozi_20fuzz_arbitrary_bytes:
  268|  12.8k|    fn try_record_match(&mut self, idx: usize, depth: Depth, ty: MatchedNodeType) -> bool {
  269|  12.8k|        if self.node.is_some() {
  270|      0|            debug!("nested match detected, switching to stack");
  271|  1.49k|            return false;
  272|  11.3k|        }
  273|  11.3k|
  274|  11.3k|        let node = SimplePartialNode {
  275|  11.3k|            start_idx: idx,
  276|  11.3k|            start_depth: depth,
  277|  11.3k|            buf: vec![],
  278|  11.3k|            ty,
  279|  11.3k|        };
  280|  11.3k|        self.node = Some(node);
  281|  11.3k|
  282|  11.3k|        true
  283|  12.8k|    }
_RNvXs0_NtNtCseKOJhBLZIbD_8rsonpath6result5nodesINtB5_13NodesRecorderRShINtNtCshJIxznpEM8j_5alloc3vec3VecNtB7_5MatchEEINtB7_8RecorderB14_E12record_matchCs9kGaKDyuozi_20fuzz_arbitrary_bytes:
   52|  43.6k|    fn record_match(&self, idx: usize, depth: Depth, ty: MatchedNodeType) -> Result<(), EngineError> {
   53|      0|        debug!("Recording match at {idx}");
   54|  43.6k|        self.internal.borrow_mut().record_match(idx, depth, ty);
   55|  43.6k|        Ok(())
   56|  43.6k|    }
_RNvXs_NtNtCseKOJhBLZIbD_8rsonpath6result5nodesINtB4_13NodesRecorderRShINtNtCshJIxznpEM8j_5alloc3vec3VecNtB6_5MatchEEINtB6_13InputRecorderB13_E18record_block_startCs9kGaKDyuozi_20fuzz_arbitrary_bytes:
   41|  9.56k|    fn record_block_start(&self, new_block: B) {
   42|  9.56k|        self.internal.borrow_mut().record_block(new_block)
   43|  9.56k|    }
_RNvMNtNtCseKOJhBLZIbD_8rsonpath6result5nodesINtB2_13NodesRecorderRShINtNtCshJIxznpEM8j_5alloc3vec3VecNtB4_5MatchEE14build_recorderCs9kGaKDyuozi_20fuzz_arbitrary_bytes:
   28|  1.96k|    pub(crate) fn build_recorder(sink: &'s mut S, leading_padding_len: usize) -> Self {
   29|  1.96k|        Self {
   30|  1.96k|            internal: RefCell::new(InternalRecorder::new(sink, leading_padding_len)),
   31|  1.96k|        }
   32|  1.96k|    }
_RNvMs2_NtNtCseKOJhBLZIbD_8rsonpath6result5nodesINtB5_14SimpleRecorderRShINtNtCshJIxznpEM8j_5alloc3vec3VecNtB7_5MatchEE3newCs9kGaKDyuozi_20fuzz_arbitrary_bytes:
  214|  1.96k|    fn new(sink: &'s mut S, leading_padding_len: usize) -> Self {
  215|  1.96k|        Self {
  216|  1.96k|            idx: 0,
  217|  1.96k|            current_block: None,
  218|  1.96k|            node: None,
  219|  1.96k|            sink,
  220|  1.96k|            leading_padding_len,
  221|  1.96k|        }
  222|  1.96k|    }
_RNvMs1_NtNtCseKOJhBLZIbD_8rsonpath6result5nodesINtB5_16InternalRecorderRShINtNtCshJIxznpEM8j_5alloc3vec3VecNtB7_5MatchEE12record_blockCs9kGaKDyuozi_20fuzz_arbitrary_bytes:
  156|  9.56k|    fn record_block(&mut self, block: B) {
  157|  9.56k|        match self {
  158|  6.42k|            Self::Simple(r) => r.record_block(block),
  159|  3.13k|            Self::Stack(r) => r.record_block(block),
  160|      0|            Self::Transition => unreachable!(),
  161|       |        }
  162|  9.56k|    }
_RNvNtNtCseKOJhBLZIbD_8rsonpath6result5nodes12append_block:
  409|  88.7k|fn append_block(dest: &mut Vec<u8>, src: &[u8], src_start: usize, read_start: usize) {
  410|  88.7k|    if read_start >= src_start + src.len() {
  411|    638|        return;
  412|  88.0k|    }
  413|       |
  414|  88.0k|    let to_extend = if read_start > src_start {
  415|  23.3k|        let in_block_start = read_start - src_start;
  416|  23.3k|        &src[in_block_start..]
  417|       |    } else {
  418|  64.7k|        src
  419|       |    };
  420|       |
  421|  88.0k|    dest.extend(to_extend);
  422|  88.7k|}
_RNvNtNtCseKOJhBLZIbD_8rsonpath6result5nodes13finalize_node:
  439|  22.0k|fn finalize_node(buf: &mut Vec<u8>, ty: MatchedNodeType) {
  440|      0|    debug!("Finalizing node");
  441|       |
  442|  22.0k|    if ty == MatchedNodeType::Atomic {
  443|       |        // Atomic nodes are finished when the next structural character is matched.
  444|       |        // The buffer includes that character and all preceding whitespace.
  445|       |        // We need to remove it before saving the result.
  446|  16.8k|        if buf.len() <= 1 {
  447|       |            // This should never happen in a valid JSON, but we also don't want to panic if the file is invalid.
  448|  10.0k|            buf.truncate(0)
  449|       |        } else {
  450|  6.71k|            let mut i = buf.len() - 2;
  451|  16.4k|            while is_json_whitespace(buf[i]) {
  452|  9.76k|                i -= 1;
  453|  9.76k|            }
  454|       |
  455|  6.71k|            buf.truncate(i + 1);
  456|       |        }
  457|  5.23k|    }
  458|  22.0k|}
_RNvNtNtCseKOJhBLZIbD_8rsonpath6result5nodes18append_final_block:
  425|  22.0k|fn append_final_block(dest: &mut Vec<u8>, src: &[u8], src_start: usize, read_start: usize, read_end: usize) {
  426|      0|    debug!("src_start: {src_start}, read_start: {read_start}, read_end: {read_end}");
  427|  22.0k|    debug_assert!(read_end >= src_start);
  428|  22.0k|    let in_block_start = if read_start > src_start {
  429|  17.7k|        read_start - src_start
  430|       |    } else {
  431|  4.26k|        0
  432|       |    };
  433|  22.0k|    let in_block_end = read_end - src_start;
  434|  22.0k|
  435|  22.0k|    dest.extend(&src[in_block_start..in_block_end]);
  436|  22.0k|}
_RNvMs3_NtNtCseKOJhBLZIbD_8rsonpath6result5nodesINtB5_13StackRecorderRShINtNtCshJIxznpEM8j_5alloc3vec3VecNtB7_5MatchEE23record_value_terminatorCs9kGaKDyuozi_20fuzz_arbitrary_bytes:
  367|  9.84k|    fn record_value_terminator(&mut self, idx: usize, depth: Depth) -> Result<(), EngineError> {
  368|      0|        debug!("Value terminator at {idx}, depth {depth}");
  369|  22.2k|        while let Some(node) = self.stack.last() {
  370|  21.2k|            if node.start_depth >= depth {
  371|      0|                debug!("Mark node {node:?} as ended at {}", idx + 1);
  372|  12.4k|                let mut node = self.stack.pop().expect("last was Some, pop must succeed");
  373|  12.4k|                append_final_block(
  374|  12.4k|                    &mut node.buf,
  375|  12.4k|                    self.current_block
  376|  12.4k|                        .as_ref()
  377|  12.4k|                        .ok_or(EngineError::MissingOpeningCharacter())?,
  378|  12.4k|                    self.idx,
  379|  12.4k|                    node.start_idx,
  380|  12.4k|                    idx + 1,
  381|  12.4k|                );
  382|  12.4k|                finalize_node(&mut node.buf, node.ty);
  383|       |
  384|      0|                debug!("Committing node: {node:?}");
  385|  12.4k|                self.output_queue.insert(
  386|  12.4k|                    node.id,
  387|  12.4k|                    Match {
  388|  12.4k|                        span_start: node.start_idx - self.leading_padding_len,
  389|  12.4k|                        bytes: node.buf,
  390|  12.4k|                    },
  391|  12.4k|                );
  392|       |            } else {
  393|  8.79k|                break;
  394|       |            }
  395|       |        }
  396|       |
  397|  9.84k|        if self.stack.is_empty() {
  398|      0|            debug!("Outputting batch of nodes.");
  399|  1.04k|            self.output_queue
  400|  1.04k|                .output_to(self.sink)
  401|  1.04k|                .map_err(|err| EngineError::SinkError(Box::new(err)))?;
  402|  8.79k|        }
  403|       |
  404|  9.84k|        Ok(())
  405|  9.84k|    }
_RNvMs2_NtNtCseKOJhBLZIbD_8rsonpath6result5nodesINtB5_14SimpleRecorderRShINtNtCshJIxznpEM8j_5alloc3vec3VecNtB7_5MatchEE23record_value_terminatorCs9kGaKDyuozi_20fuzz_arbitrary_bytes:
  238|  10.1k|    fn record_value_terminator(&mut self, idx: usize, depth: Depth) -> Result<(), EngineError> {
  239|      0|        debug!("Value terminator at {idx}, depth {depth}");
  240|  10.1k|        if let Some(node) = self.node.as_ref() {
  241|  9.88k|            if node.start_depth >= depth {
  242|  9.60k|                let mut node = self.node.take().expect("node is Some");
  243|      0|                debug!("Mark node as ended at {}", idx + 1);
  244|       |                append_final_block(
  245|  9.60k|                    &mut node.buf,
  246|  9.60k|                    self.current_block
  247|  9.60k|                        .as_ref()
  248|  9.60k|                        .ok_or(EngineError::MissingOpeningCharacter())?,
  249|  9.60k|                    self.idx,
  250|  9.60k|                    node.start_idx,
  251|  9.60k|                    idx + 1,
  252|  9.60k|                );
  253|  9.60k|                finalize_node(&mut node.buf, node.ty);
  254|       |
  255|      0|                debug!("Committing and outputting node");
  256|  9.60k|                self.sink
  257|  9.60k|                    .add_match(Match {
  258|  9.60k|                        span_start: node.start_idx - self.leading_padding_len,
  259|  9.60k|                        bytes: node.buf,
  260|  9.60k|                    })
  261|  9.60k|                    .map_err(|err| EngineError::SinkError(Box::new(err)))?;
  262|    286|            }
  263|    310|        }
  264|       |
  265|  10.1k|        Ok(())
  266|  10.1k|    }
_RNvMs1_NtNtCseKOJhBLZIbD_8rsonpath6result5nodesINtB5_16InternalRecorderRShINtNtCshJIxznpEM8j_5alloc3vec3VecNtB7_5MatchEE23record_value_terminatorCs9kGaKDyuozi_20fuzz_arbitrary_bytes:
  185|  20.0k|    fn record_value_terminator(&mut self, idx: usize, depth: Depth) -> Result<(), EngineError> {
  186|  20.0k|        match self {
  187|  10.1k|            Self::Simple(r) => r.record_value_terminator(idx, depth),
  188|  9.84k|            Self::Stack(r) => r.record_value_terminator(idx, depth),
  189|      0|            Self::Transition => unreachable!(),
  190|       |        }
  191|  20.0k|    }
_RNvMs3_NtNtCseKOJhBLZIbD_8rsonpath6result5nodesINtB5_13StackRecorderRShINtNtCshJIxznpEM8j_5alloc3vec3VecNtB7_5MatchEE12record_matchCs9kGaKDyuozi_20fuzz_arbitrary_bytes:
  352|  32.2k|    fn record_match(&mut self, idx: usize, depth: Depth, ty: MatchedNodeType) {
  353|  32.2k|        let node = PartialNode {
  354|  32.2k|            id: self.match_count,
  355|  32.2k|            start_idx: idx,
  356|  32.2k|            start_depth: depth,
  357|  32.2k|            buf: vec![],
  358|  32.2k|            ty,
  359|  32.2k|        };
  360|       |
  361|      0|        debug!("New node {node:?}");
  362|  32.2k|        self.match_count += 1;
  363|  32.2k|        self.stack.push(node);
  364|  32.2k|    }
_RNvMs3_NtNtCseKOJhBLZIbD_8rsonpath6result5nodesINtB5_13StackRecorderRShINtNtCshJIxznpEM8j_5alloc3vec3VecNtB7_5MatchEE12record_blockCs9kGaKDyuozi_20fuzz_arbitrary_bytes:
  338|  3.13k|    fn record_block(&mut self, block: B) {
  339|  3.13k|        if let Some(finished) = self.current_block.as_ref() {
  340|  90.1k|            for node in &mut self.stack {
  341|      0|                debug!("Continuing node: {node:?}, idx is {}", self.idx);
  342|  86.9k|                append_block(&mut node.buf, finished, self.idx, node.start_idx)
  343|       |            }
  344|       |
  345|  3.13k|            self.idx += finished.len();
  346|      0|        }
  347|       |
  348|  3.13k|        self.current_block = Some(block);
  349|      0|        debug!("New block, idx = {}", self.idx);
  350|  3.13k|    }
_RNvMs1_NtNtCseKOJhBLZIbD_8rsonpath6result5nodesINtB5_16InternalRecorderRShINtNtCshJIxznpEM8j_5alloc3vec3VecNtB7_5MatchEE12record_matchCs9kGaKDyuozi_20fuzz_arbitrary_bytes:
  165|  43.6k|    fn record_match(&mut self, idx: usize, depth: Depth, ty: MatchedNodeType) {
  166|  43.6k|        match self {
  167|  12.8k|            Self::Simple(simple) => {
  168|  12.8k|                if !simple.try_record_match(idx, depth, ty) {
  169|  1.49k|                    let simple = match std::mem::replace(self, Self::Transition) {
  170|  1.49k|                        Self::Simple(s) => s,
  171|      0|                        Self::Stack(_) | Self::Transition => unreachable!(),
  172|       |                    };
  173|  1.49k|                    let mut stack = simple.transform_to_stack();
  174|  1.49k|                    stack.record_match(idx, depth, ty);
  175|  1.49k|                    *self = Self::Stack(stack);
  176|  11.3k|                }
  177|       |            }
  178|  30.8k|            Self::Stack(stack) => stack.record_match(idx, depth, ty),
  179|      0|            Self::Transition => unreachable!(),
  180|       |        }
  181|  43.6k|    }
_RNvMs2_NtNtCseKOJhBLZIbD_8rsonpath6result5nodesINtB5_14SimpleRecorderRShINtNtCshJIxznpEM8j_5alloc3vec3VecNtB7_5MatchEE18transform_to_stackCs9kGaKDyuozi_20fuzz_arbitrary_bytes:
  285|  1.49k|    fn transform_to_stack(self) -> StackRecorder<'s, B, S> {
  286|  1.49k|        match self.node {
  287|  1.49k|            Some(node) => StackRecorder {
  288|  1.49k|                idx: self.idx,
  289|  1.49k|                match_count: 1,
  290|  1.49k|                current_block: self.current_block,
  291|  1.49k|                stack: vec![PartialNode {
  292|  1.49k|                    id: 0,
  293|  1.49k|                    start_idx: node.start_idx,
  294|  1.49k|                    start_depth: node.start_depth,
  295|  1.49k|                    buf: node.buf,
  296|  1.49k|                    ty: node.ty,
  297|  1.49k|                }],
  298|  1.49k|                output_queue: OutputQueue::new(),
  299|  1.49k|                sink: self.sink,
  300|  1.49k|                leading_padding_len: self.leading_padding_len,
  301|  1.49k|            },
  302|      0|            None => StackRecorder {
  303|      0|                idx: self.idx,
  304|      0|                match_count: 0,
  305|      0|                current_block: self.current_block,
  306|      0|                stack: vec![],
  307|      0|                output_queue: OutputQueue::new(),
  308|      0|                sink: self.sink,
  309|      0|                leading_padding_len: self.leading_padding_len,
  310|      0|            },
  311|       |        }
  312|  1.49k|    }
_RNvMs1_NtNtCseKOJhBLZIbD_8rsonpath6result5nodesINtB5_16InternalRecorderRShINtNtCshJIxznpEM8j_5alloc3vec3VecNtB7_5MatchEE3newCs9kGaKDyuozi_20fuzz_arbitrary_bytes:
  151|  1.96k|    fn new(sink: &'s mut S, leading_padding_len: usize) -> Self {
  152|  1.96k|        Self::Simple(SimpleRecorder::new(sink, leading_padding_len))
  153|  1.96k|    }
_RNvXs0_NtNtCseKOJhBLZIbD_8rsonpath6result5nodesINtB5_13NodesRecorderRShINtNtCshJIxznpEM8j_5alloc3vec3VecNtB7_5MatchEEINtB7_8RecorderB14_E23record_value_terminatorCs9kGaKDyuozi_20fuzz_arbitrary_bytes:
   59|  20.0k|    fn record_value_terminator(&self, idx: usize, depth: Depth) -> Result<(), EngineError> {
   60|  20.0k|        self.internal
   61|  20.0k|            .borrow_mut()
   62|  20.0k|            .record_value_terminator(idx, depth)
   63|  20.0k|            .map_err(|err| EngineError::SinkError(Box::new(err)))
   64|  20.0k|    }

_RNvMNtNtCseKOJhBLZIbD_8rsonpath6result12output_queueINtB2_11OutputQueueNtB4_5MatchE6insertCs9kGaKDyuozi_20fuzz_arbitrary_bytes:
   29|  12.4k|    pub(super) fn insert(&mut self, id: usize, node: D) {
   30|  12.4k|        let actual_idx = id - self.offset;
   31|       |
   32|  39.3k|        while self.nodes.len() <= actual_idx {
   33|  26.9k|            self.nodes.push(None);
   34|  26.9k|        }
   35|       |
   36|  12.4k|        self.nodes[actual_idx] = Some(node);
   37|  12.4k|    }
_RINvMNtNtCseKOJhBLZIbD_8rsonpath6result12output_queueINtB3_11OutputQueueNtB5_5MatchE9output_toINtNtCshJIxznpEM8j_5alloc3vec3VecB18_EECs9kGaKDyuozi_20fuzz_arbitrary_bytes:
   52|  1.04k|    pub(super) fn output_to<S>(&mut self, sink: &mut S) -> Result<(), S::Error>
   53|  1.04k|    where
   54|  1.04k|        S: Sink<D>,
   55|  1.04k|    {
   56|  1.04k|        self.offset += self.nodes.len();
   57|       |
   58|  4.41k|        for node in self.nodes.drain(..) {
   59|  4.41k|            sink.add_match(node.expect("output_to called only after all matches are complete"))?;
   60|       |        }
   61|       |
   62|  1.04k|        Ok(())
   63|  1.04k|    }
_RNvMNtNtCseKOJhBLZIbD_8rsonpath6result12output_queueINtB2_11OutputQueueNtB4_5MatchE3newCs9kGaKDyuozi_20fuzz_arbitrary_bytes:
   18|  1.49k|    pub(super) fn new() -> Self {
   19|  1.49k|        Self {
   20|  1.49k|            offset: 0,
   21|  1.49k|            nodes: vec![],
   22|  1.49k|        }
   23|  1.49k|    }

_RNCNvXNvCs9kGaKDyuozi_20fuzz_arbitrary_bytess_1__NtB6_16DisplayableBytesNtCseqPaQU5Ex3q_9arbitrary9Arbitrary19arbitrary_take_rests_0B6_:
   18|  1.96k|#[derive(Arbitrary)]
_RNCNvXNvCs9kGaKDyuozi_20fuzz_arbitrary_bytess_1__NtB6_16DisplayableBytesNtCseqPaQU5Ex3q_9arbitrary9Arbitrary9size_hint0B6_:
   18|  1.96k|#[derive(Arbitrary)]
_RNvXNvCs9kGaKDyuozi_20fuzz_arbitrary_bytess_1__NtB4_16DisplayableBytesNtCseqPaQU5Ex3q_9arbitrary9Arbitrary19arbitrary_take_rest:
   18|  5.88k|#[derive(Arbitrary)]

