_RNvXNtNtNtCs31KYfVmiDrU_9arbitrary7foreign4core3strReNtB8_9Arbitrary9size_hintCse3WhcHaD37j_26query_fuzz_arbitrary_bytes:
   36|  2.42k|    fn size_hint(_depth: usize) -> (usize, Option<usize>) {
   37|  2.42k|        (0, None)
   38|  2.42k|    }
_RNvNtNtNtCs31KYfVmiDrU_9arbitrary7foreign4core3str13arbitrary_str:
    6|  2.42k|fn arbitrary_str<'a>(u: &mut Unstructured<'a>, size: usize) -> Result<&'a str> {
    7|  2.42k|    match str::from_utf8(u.peek_bytes(size).unwrap()) {
    8|  2.35k|        Ok(s) => {
    9|  2.35k|            u.bytes(size).unwrap();
   10|  2.35k|            Ok(s)
   11|       |        }
   12|     70|        Err(e) => {
   13|     70|            let i = e.valid_up_to();
   14|     70|            let valid = u.bytes(i).unwrap();
   15|     70|            let s = unsafe {
   16|     70|                debug_assert!(str::from_utf8(valid).is_ok());
   17|     70|                str::from_utf8_unchecked(valid)
   18|       |            };
   19|     70|            Ok(s)
   20|       |        }
   21|       |    }
   22|  2.42k|}
_RNvXNtNtNtCs31KYfVmiDrU_9arbitrary7foreign4core3strReNtB8_9Arbitrary19arbitrary_take_rest:
   30|  2.42k|    fn arbitrary_take_rest(mut u: Unstructured<'a>) -> Result<Self> {
   31|  2.42k|        let size = u.len();
   32|  2.42k|        arbitrary_str(&mut u, size)
   33|  2.42k|    }

_RNvMNtCs31KYfVmiDrU_9arbitrary12unstructuredNtB2_12Unstructured10peek_bytes:
  635|  2.42k|    pub fn peek_bytes(&self, size: usize) -> Option<&'a [u8]> {
  636|  2.42k|        self.data.get(..size)
  637|  2.42k|    }
_RNvMNtCs31KYfVmiDrU_9arbitrary12unstructuredNtB2_12Unstructured3lenB4_:
  109|  2.42k|    pub fn len(&self) -> usize {
  110|  2.42k|        self.data.len()
  111|  2.42k|    }
_RNvMNtCs31KYfVmiDrU_9arbitrary12unstructuredNtB2_12Unstructured3new:
   86|  2.42k|    pub fn new(data: &'a [u8]) -> Self {
   87|  2.42k|        Unstructured { data }
   88|  2.42k|    }
_RNvMNtCs31KYfVmiDrU_9arbitrary12unstructuredNtB2_12Unstructured5bytes:
  604|  2.42k|    pub fn bytes(&mut self, size: usize) -> Result<&'a [u8]> {
  605|  2.42k|        if self.data.len() < size {
  606|      0|            return Err(Error::NotEnoughData);
  607|  2.42k|        }
  608|       |
  609|  2.42k|        let (for_buf, rest) = self.data.split_at(size);
  610|  2.42k|        self.data = rest;
  611|  2.42k|        Ok(for_buf)
  612|  2.42k|    }

LLVMFuzzerInitialize:
  316|      2|            pub extern "C" fn LLVMFuzzerInitialize(_argc: *const isize, _argv: *const *const *const u8) -> isize {
  317|      2|                $crate::initialize(_argc, _argv);
  318|       |
  319|       |                // Supplied init code
  320|       |                $init;
  321|      2|                0
  322|      2|            }
_RNvNvCse3WhcHaD37j_26query_fuzz_arbitrary_bytes1__19___libfuzzer_sys_run:
  368|  2.42k|            fn __libfuzzer_sys_run($data: $dty) -> $rty {
  369|       |                $body
  370|  2.42k|            }
rust_fuzzer_test_input:
  325|  2.42k|            pub extern "C" fn rust_fuzzer_test_input(bytes: &[u8]) -> i32 {
  326|       |                use $crate::arbitrary::{Arbitrary, Unstructured};
  327|       |
  328|       |                // Early exit if we don't have enough bytes for the `Arbitrary`
  329|       |                // implementation. This helps the fuzzer avoid exploring all the
  330|       |                // different not-enough-input-bytes paths inside the `Arbitrary`
  331|       |                // implementation. Additionally, it exits faster, letting the fuzzer
  332|       |                // get to longer inputs that actually lead to interesting executions
  333|       |                // quicker.
  334|  2.42k|                if bytes.len() < <$dty as Arbitrary>::size_hint(0).0 {
  335|      0|                    return -1;
  336|  2.42k|                }
  337|       |
  338|  2.42k|                let mut u = Unstructured::new(bytes);
  339|  2.42k|                let data = <$dty as Arbitrary>::arbitrary_take_rest(u);
  340|       |
  341|       |                // When `RUST_LIBFUZZER_DEBUG_PATH` is set, write the debug
  342|       |                // formatting of the input to that file. This is only intended for
  343|       |                // `cargo fuzz`'s use!
  344|       |
  345|       |                // `RUST_LIBFUZZER_DEBUG_PATH` is set in initialization.
  346|  2.42k|                if let Some(path) = $crate::rust_libfuzzer_debug_path() {
  347|       |                    use std::io::Write;
  348|      0|                    let mut file = std::fs::File::create(path)
  349|      0|                        .expect("failed to create `RUST_LIBFUZZER_DEBUG_PATH` file");
  350|      0|                    (match data {
  351|      0|                        Ok(data) => writeln!(&mut file, "{:#?}", data),
  352|      0|                        Err(err) => writeln!(&mut file, "Arbitrary Error: {}", err),
  353|       |                    })
  354|      0|                    .expect("failed to write to `RUST_LIBFUZZER_DEBUG_PATH` file");
  355|      0|                    return -1;
  356|  2.42k|                }
  357|       |
  358|  2.42k|                let data = match data {
  359|  2.42k|                    Ok(d) => d,
  360|      0|                    Err(_) => return -1,
  361|       |                };
  362|       |
  363|  2.42k|                let result = ::libfuzzer_sys::Corpus::from(__libfuzzer_sys_run(data));
  364|  2.42k|                result.to_libfuzzer_code()
  365|  2.42k|            }
LLVMFuzzerTestOneInput:
   59|  2.42k|pub unsafe fn test_input_wrap(data: *const u8, size: usize) -> i32 {
   60|  2.42k|    let test_input = ::std::panic::catch_unwind(|| {
   61|       |        let data_slice = ::std::slice::from_raw_parts(data, size);
   62|       |        rust_fuzzer_test_input(data_slice)
   63|       |    });
   64|       |
   65|  2.42k|    match test_input {
   66|  2.42k|        Ok(i) => i,
   67|       |        Err(_) => {
   68|       |            // hopefully the custom panic hook will be called before and abort the
   69|       |            // process before the stack frames are unwinded.
   70|      0|            ::std::process::abort();
   71|       |        }
   72|       |    }
   73|  2.42k|}
_RNCNvCsjFaFolWwyrz_13libfuzzer_sys15test_input_wrap0B3_:
   60|  2.42k|    let test_input = ::std::panic::catch_unwind(|| {
   61|  2.42k|        let data_slice = ::std::slice::from_raw_parts(data, size);
   62|  2.42k|        rust_fuzzer_test_input(data_slice)
   63|  2.42k|    });
_RNCNvCsjFaFolWwyrz_13libfuzzer_sys25rust_libfuzzer_debug_path0B3_:
   78|      1|    RUST_LIBFUZZER_DEBUG_PATH.get_or_init(|| std::env::var("RUST_LIBFUZZER_DEBUG_PATH").ok())
_RNvCsjFaFolWwyrz_13libfuzzer_sys10initialize:
   82|      2|pub fn initialize(_argc: *const isize, _argv: *const *const *const u8) -> isize {
   83|       |    // Registers a panic hook that aborts the process before unwinding.
   84|       |    // It is useful to abort before unwinding so that the fuzzer will then be
   85|       |    // able to analyse the process stack frames to tell different bugs appart.
   86|       |    //
   87|       |    // HACK / FIXME: it would be better to use `-C panic=abort` but it's currently
   88|       |    // impossible to build code using compiler plugins with this flag.
   89|       |    // We will be able to remove this code when
   90|       |    // https://github.com/rust-lang/cargo/issues/5423 is fixed.
   91|      2|    let default_hook = std::panic::take_hook();
   92|      2|    std::panic::set_hook(Box::new(move |panic_info| {
   93|       |        default_hook(panic_info);
   94|       |        std::process::abort();
   95|       |    }));
   96|      2|    0
   97|      2|}
_RNvCsjFaFolWwyrz_13libfuzzer_sys25rust_libfuzzer_debug_path:
   76|  2.42k|pub fn rust_libfuzzer_debug_path() -> &'static Option<String> {
   77|       |    static RUST_LIBFUZZER_DEBUG_PATH: OnceLock<Option<String>> = OnceLock::new();
   78|  2.42k|    RUST_LIBFUZZER_DEBUG_PATH.get_or_init(|| std::env::var("RUST_LIBFUZZER_DEBUG_PATH").ok())
   79|  2.42k|}
_RNvMs_CsjFaFolWwyrz_13libfuzzer_sysNtB4_6Corpus17to_libfuzzer_code:
   40|  2.42k|    pub fn to_libfuzzer_code(self) -> i32 {
   41|  2.42k|        match self {
   42|  2.42k|            Corpus::Keep => 0,
   43|      0|            Corpus::Reject => -1,
   44|       |        }
   45|  2.42k|    }
_RNvXCsjFaFolWwyrz_13libfuzzer_sysNtB2_6CorpusINtNtCs6SNw0SRvItZ_4core7convert4FromuE4from:
   30|  2.42k|    fn from(_: ()) -> Self {
   31|  2.42k|        Self::Keep
   32|  2.42k|    }

_RINvXs1_NtCshuHlpjMNnjS_3nom6branchINtB6_6ChoiceTINtNtB8_8sequence8PrecededNCINvNtNtB8_9character8complete4charReNtNtCsd77JCpXvqG6_15rsonpath_syntax5error18InternalParseErrorE0INvB1g_6digit1B1L_B1N_EEB2O_EEINtNtB8_8internal6ParserB1L_E7processINtB3l_7OutputMNtB3l_5CheckNtB3l_4EmitNtB3l_9StreamingEEB1R_:
  127|  95.4k|      fn process<OM: crate::OutputMode>(
  128|  95.4k|        &mut self,
  129|  95.4k|        input: Input,
  130|  95.4k|      ) -> crate::PResult<OM, Input, Self::Output, Self::Error> {
  131|  95.4k|        match self.parser.0.process::<OM>(input.clone()) {
  132|  3.28k|          Ok(res) => Ok(res),
  133|      0|          Err(Err::Failure(e))=> Err(Err::Failure(e)),
  134|      0|          Err(Err::Incomplete(i))=> Err(Err::Incomplete(i)),
  135|  92.1k|          Err(Err::Error(e)) => alt_trait_inner!(1, self, input, e, $($id)+),
  136|       |        }
  137|  95.4k|      }
_RINvXs1_NtCshuHlpjMNnjS_3nom6branchINtB6_6ChoiceTINtNtB8_8sequence8PrecededNCINvNtNtB8_9character8complete4charReNtNtCsd77JCpXvqG6_15rsonpath_syntax5error18InternalParseErrorE0NvNvNtB1R_6parser5float10base_floatEB2O_EEINtNtB8_8internal6ParserB1L_E7processINtB3x_7OutputMNtB3x_5CheckNtB3x_4EmitNtB3x_9StreamingEEB1R_:
  127|  39.3k|      fn process<OM: crate::OutputMode>(
  128|  39.3k|        &mut self,
  129|  39.3k|        input: Input,
  130|  39.3k|      ) -> crate::PResult<OM, Input, Self::Output, Self::Error> {
  131|  39.3k|        match self.parser.0.process::<OM>(input.clone()) {
  132|  1.22k|          Ok(res) => Ok(res),
  133|      0|          Err(Err::Failure(e))=> Err(Err::Failure(e)),
  134|      0|          Err(Err::Incomplete(i))=> Err(Err::Incomplete(i)),
  135|  38.0k|          Err(Err::Error(e)) => alt_trait_inner!(1, self, input, e, $($id)+),
  136|       |        }
  137|  39.3k|      }
_RINvXs1_NtCshuHlpjMNnjS_3nom6branchINtB6_6ChoiceTNCINvNtNtB8_9character8complete4charReNtNtCsd77JCpXvqG6_15rsonpath_syntax5error18InternalParseErrorE0BL_EEINtNtB8_8internal6ParserB1l_E7processINtB2w_7OutputMNtB2w_5CheckB3j_NtB2w_9StreamingEEB1r_:
  127|  1.59k|      fn process<OM: crate::OutputMode>(
  128|  1.59k|        &mut self,
  129|  1.59k|        input: Input,
  130|  1.59k|      ) -> crate::PResult<OM, Input, Self::Output, Self::Error> {
  131|  1.59k|        match self.parser.0.process::<OM>(input.clone()) {
  132|    242|          Ok(res) => Ok(res),
  133|      0|          Err(Err::Failure(e))=> Err(Err::Failure(e)),
  134|      0|          Err(Err::Incomplete(i))=> Err(Err::Incomplete(i)),
  135|  1.35k|          Err(Err::Error(e)) => alt_trait_inner!(1, self, input, e, $($id)+),
  136|       |        }
  137|  1.59k|      }
_RINvXs1_NtCshuHlpjMNnjS_3nom6branchINtB6_6ChoiceTNCNvNtCsd77JCpXvqG6_15rsonpath_syntax6parser13child_segment0INtNtB8_8sequence8PrecededNCINvNtNtB8_9character8complete4charReNtNtBR_5error18InternalParseErrorE0INtNtB8_10combinator3CutIBy_TINtNtB8_8internal3MapNvBP_17wildcard_selectorNvMsq_BR_NtBR_9Selectors3oneENvBP_21member_name_shorthandNCINvBP_14failed_segmentB4F_E0EEEEEEINtB3Q_6ParserB2J_E7processINtB3Q_7OutputMNtB3Q_4EmitB6H_NtB3Q_9StreamingEEBR_:
  127|  39.3k|      fn process<OM: crate::OutputMode>(
  128|  39.3k|        &mut self,
  129|  39.3k|        input: Input,
  130|  39.3k|      ) -> crate::PResult<OM, Input, Self::Output, Self::Error> {
  131|  39.3k|        match self.parser.0.process::<OM>(input.clone()) {
  132|  4.77k|          Ok(res) => Ok(res),
  133|  19.0k|          Err(Err::Failure(e))=> Err(Err::Failure(e)),
  134|      0|          Err(Err::Incomplete(i))=> Err(Err::Incomplete(i)),
  135|  15.5k|          Err(Err::Error(e)) => alt_trait_inner!(1, self, input, e, $($id)+),
  136|       |        }
  137|  39.3k|      }
_RINvXs2_NtCshuHlpjMNnjS_3nom6branchINtB6_6ChoiceTINtNtB8_8internal3MapNvNtCsd77JCpXvqG6_15rsonpath_syntax6parser17wildcard_selectorNvMsq_B1a_NtB1a_9Selectors3oneENvB18_21member_name_shorthandNCINvB18_14failed_segmentB2f_E0EEINtBO_6ParserReE7processINtBO_7OutputMNtBO_4EmitB4c_NtBO_9StreamingEEB1a_:
  127|  11.9k|      fn process<OM: crate::OutputMode>(
  128|  11.9k|        &mut self,
  129|  11.9k|        input: Input,
  130|  11.9k|      ) -> crate::PResult<OM, Input, Self::Output, Self::Error> {
  131|  11.9k|        match self.parser.0.process::<OM>(input.clone()) {
  132|  2.36k|          Ok(res) => Ok(res),
  133|      0|          Err(Err::Failure(e))=> Err(Err::Failure(e)),
  134|      0|          Err(Err::Incomplete(i))=> Err(Err::Incomplete(i)),
  135|  9.54k|          Err(Err::Error(e)) => alt_trait_inner!(1, self, input, e, $($id)+),
  136|       |        }
  137|  11.9k|      }
_RINvXs3_NtCshuHlpjMNnjS_3nom6branchINtB6_6ChoiceTNCNvNtCsd77JCpXvqG6_15rsonpath_syntax6parser18descendant_segment0INtNtB8_8internal3MapNvBP_17wildcard_selectorNvMsq_BR_NtBR_9Selectors3oneENvBP_21member_name_shorthandNCINvBP_14failed_segmentB2G_E0EEINtB1R_6ParserReE7processINtB1R_7OutputMNtB1R_4EmitB4C_NtB1R_9StreamingEEBR_:
  127|  5.62k|      fn process<OM: crate::OutputMode>(
  128|  5.62k|        &mut self,
  129|  5.62k|        input: Input,
  130|  5.62k|      ) -> crate::PResult<OM, Input, Self::Output, Self::Error> {
  131|  5.62k|        match self.parser.0.process::<OM>(input.clone()) {
  132|    346|          Ok(res) => Ok(res),
  133|    818|          Err(Err::Failure(e))=> Err(Err::Failure(e)),
  134|      0|          Err(Err::Incomplete(i))=> Err(Err::Incomplete(i)),
  135|  4.46k|          Err(Err::Error(e)) => alt_trait_inner!(1, self, input, e, $($id)+),
  136|       |        }
  137|  5.62k|      }
_RINvNtCshuHlpjMNnjS_3nom6branch3altTINtNtB4_8internal3MapNCINvNtNtB4_5bytes8complete3tagReB1o_NtNtCsd77JCpXvqG6_15rsonpath_syntax5error18InternalParseErrorE0NCINvNtB4_10combinator5valueB1o_NtB1y_12ComparisonOpB1u_BT_E0EBy_By_By_IBz_NCINvNtNtB4_9character8complete4charB1o_B1u_E0NCIB2y_B1o_B31_B1u_B3I_E0EB3E_EEB1y_:
   41|  20.3k|pub fn alt<List>(l: List) -> Choice<List> {
   42|  20.3k|  Choice { parser: l }
   43|  20.3k|}
_RINvNtCshuHlpjMNnjS_3nom6branch3altTINtNtB4_8internal3MapNCINvNtNtB4_5bytes8complete3tagReB1o_NtNtCsd77JCpXvqG6_15rsonpath_syntax5error18InternalParseErrorE0NCINvNtB4_10combinator5valueB1o_NtNvNtB1y_6parser12logical_expr9BooleanOpB1u_BT_E0EBy_EEB1y_:
   41|  16.1k|pub fn alt<List>(l: List) -> Choice<List> {
   42|  16.1k|  Choice { parser: l }
   43|  16.1k|}
_RINvNtCshuHlpjMNnjS_3nom6branch3altTINtNtB4_8internal3MapNCINvNtNtB4_9character8complete4charReNtNtCsd77JCpXvqG6_15rsonpath_syntax5error18InternalParseErrorE0NCINvNtB4_10combinator5valueB1t_NtNtB1z_6parser16RootSelectorTypeB1v_BT_E0EBy_EEB1z_:
   41|  28.2k|pub fn alt<List>(l: List) -> Choice<List> {
   42|  28.2k|  Choice { parser: l }
   43|  28.2k|}
_RINvNtCshuHlpjMNnjS_3nom6branch3altTINtNtB4_8internal3MapNvNtCsd77JCpXvqG6_15rsonpath_syntax6parser17wildcard_selectorNvMsq_BX_NtBX_9Selectors3oneENvBV_21member_name_shorthandNCINvBV_14failed_segmentB21_E0EEBX_:
   41|  39.3k|pub fn alt<List>(l: List) -> Choice<List> {
   42|  39.3k|  Choice { parser: l }
   43|  39.3k|}
_RINvNtCshuHlpjMNnjS_3nom6branch3altTINtNtB4_8internal4IntoNvNtCsd77JCpXvqG6_15rsonpath_syntax6parser6numberNtBY_7LiteralNtNtBY_5error18InternalParseErrorEIBz_NvBW_14string_literalB1H_B1U_EINtBB_3MapNCINvNtNtB4_5bytes8complete3tagReB3F_B1U_E0NCINvNtB4_10combinator5valueB3F_B1H_B1U_B3a_E0EB30_B30_EEBY_:
   41|  39.3k|pub fn alt<List>(l: List) -> Choice<List> {
   42|  39.3k|  Choice { parser: l }
   43|  39.3k|}
_RINvNtCshuHlpjMNnjS_3nom6branch3altTINtNtB4_8internal4IntoNvNtCsd77JCpXvqG6_15rsonpath_syntax6parser7literalNtBY_10ComparableNtNtBY_5error18InternalParseErrorENCNvBW_10comparable0NCINvBW_24failed_filter_expressionB1I_E0EEBY_:
   41|  8.96k|pub fn alt<List>(l: List) -> Choice<List> {
   42|  8.96k|  Choice { parser: l }
   43|  8.96k|}
_RINvNtCshuHlpjMNnjS_3nom6branch3altTINtNtB4_8sequence8PrecededNCINvNtNtB4_9character8complete4charReNtNtCsd77JCpXvqG6_15rsonpath_syntax5error18InternalParseErrorE0INvB13_6digit1B1y_B1A_EEB2B_EEB1E_:
   41|  95.4k|pub fn alt<List>(l: List) -> Choice<List> {
   42|  95.4k|  Choice { parser: l }
   43|  95.4k|}
_RINvNtCshuHlpjMNnjS_3nom6branch3altTINtNtB4_8sequence8PrecededNCINvNtNtB4_9character8complete4charReNtNtCsd77JCpXvqG6_15rsonpath_syntax5error18InternalParseErrorE0NCNvNtB1E_6parser6string0EBy_EEB1E_:
   41|  80.6k|pub fn alt<List>(l: List) -> Choice<List> {
   42|  80.6k|  Choice { parser: l }
   43|  80.6k|}
_RINvNtCshuHlpjMNnjS_3nom6branch3altTINtNtB4_8sequence8PrecededNCINvNtNtB4_9character8complete4charReNtNtCsd77JCpXvqG6_15rsonpath_syntax5error18InternalParseErrorE0NvNvNtB1E_6parser5float10base_floatEB2B_EEB1E_:
   41|  39.3k|pub fn alt<List>(l: List) -> Choice<List> {
   42|  39.3k|  Choice { parser: l }
   43|  39.3k|}
_RINvNtCshuHlpjMNnjS_3nom6branch3altTNCINvNtCsd77JCpXvqG6_15rsonpath_syntax6parser17ignore_whitespaceNtBF_8SelectorNvBD_13name_selectorNtNtBF_5error18InternalParseErrorE0NCIBB_B1A_NvBD_17wildcard_selectorB28_E0NCIBB_B1A_NvBD_14slice_selectorB28_E0NCIBB_B1A_NvBD_14index_selectorB28_E0NCIBB_B1A_NCNvBD_8selector0B28_E0NvBD_15failed_selectorEEBF_:
   41|  51.1k|pub fn alt<List>(l: List) -> Choice<List> {
   42|  51.1k|  Choice { parser: l }
   43|  51.1k|}
_RINvNtCshuHlpjMNnjS_3nom6branch3altTNCINvNtNtB4_9character8complete4charReNtNtCsd77JCpXvqG6_15rsonpath_syntax5error18InternalParseErrorE0By_EEB1e_:
   41|  39.5k|pub fn alt<List>(l: List) -> Choice<List> {
   42|  39.5k|  Choice { parser: l }
   43|  39.5k|}
_RINvNtCshuHlpjMNnjS_3nom6branch3altTNCNvNtCsd77JCpXvqG6_15rsonpath_syntax6parser12filter_query0NCBA_s_0NCINvBC_28failed_segment_within_filterNtBE_7SegmentE0EEBE_:
   41|  19.0k|pub fn alt<List>(l: List) -> Choice<List> {
   42|  19.0k|  Choice { parser: l }
   43|  19.0k|}
_RINvNtCshuHlpjMNnjS_3nom6branch3altTNCNvNtCsd77JCpXvqG6_15rsonpath_syntax6parser13child_segment0INtNtB4_8sequence8PrecededNCINvNtNtB4_9character8complete4charReNtNtBE_5error18InternalParseErrorE0INtNtB4_10combinator3CutINtB2_6ChoiceTINtNtB4_8internal3MapNvBC_17wildcard_selectorNvMsq_BE_NtBE_9Selectors3oneENvBC_21member_name_shorthandNCINvBC_14failed_segmentB4B_E0EEEEEEBE_:
   41|  39.3k|pub fn alt<List>(l: List) -> Choice<List> {
   42|  39.3k|  Choice { parser: l }
   43|  39.3k|}
_RINvNtCshuHlpjMNnjS_3nom6branch3altTNCNvNtCsd77JCpXvqG6_15rsonpath_syntax6parser18descendant_segment0INtNtB4_8internal3MapNvBC_17wildcard_selectorNvMsq_BE_NtBE_9Selectors3oneENvBC_21member_name_shorthandNCINvBC_14failed_segmentB2t_E0EEBE_:
   41|  44.9k|pub fn alt<List>(l: List) -> Choice<List> {
   42|  44.9k|  Choice { parser: l }
   43|  44.9k|}
_RINvNtCshuHlpjMNnjS_3nom6branch3altTNCNvNtCsd77JCpXvqG6_15rsonpath_syntax6parser7segment0NCBA_s_0NCINvBC_14failed_segmentNtBE_7SegmentE0EEBE_:
   41|  25.8k|pub fn alt<List>(l: List) -> Choice<List> {
   42|  25.8k|  Choice { parser: l }
   43|  25.8k|}
_RINvNtCshuHlpjMNnjS_3nom6branch3altTNvNvNtCsd77JCpXvqG6_15rsonpath_syntax6parser21member_name_shorthand10name_firstNCINvNtNtB4_9character8complete7satisfyNCNvBA_9name_char0ReNtNtBE_5error18InternalParseErrorE0EEBE_:
   41|  15.0k|pub fn alt<List>(l: List) -> Choice<List> {
   42|  15.0k|  Choice { parser: l }
   43|  15.0k|}
_RINvXs1_NtCshuHlpjMNnjS_3nom6branchINtB6_6ChoiceTINtNtB8_8internal3MapNCINvNtNtB8_5bytes8complete3tagReB1B_NtNtCsd77JCpXvqG6_15rsonpath_syntax5error18InternalParseErrorE0NCINvNtB8_10combinator5valueB1B_NtNvNtB1L_6parser12logical_expr9BooleanOpB1H_B16_E0EBL_EEINtBO_6ParserB1B_E7processINtBO_7OutputMNtBO_4EmitB4N_NtBO_9StreamingEEB1L_:
  127|  16.1k|      fn process<OM: crate::OutputMode>(
  128|  16.1k|        &mut self,
  129|  16.1k|        input: Input,
  130|  16.1k|      ) -> crate::PResult<OM, Input, Self::Output, Self::Error> {
  131|  16.1k|        match self.parser.0.process::<OM>(input.clone()) {
  132|    499|          Ok(res) => Ok(res),
  133|      0|          Err(Err::Failure(e))=> Err(Err::Failure(e)),
  134|      0|          Err(Err::Incomplete(i))=> Err(Err::Incomplete(i)),
  135|  15.6k|          Err(Err::Error(e)) => alt_trait_inner!(1, self, input, e, $($id)+),
  136|       |        }
  137|  16.1k|      }
_RINvXs1_NtCshuHlpjMNnjS_3nom6branchINtB6_6ChoiceTINtNtB8_8internal3MapNCINvNtNtB8_9character8complete4charReNtNtCsd77JCpXvqG6_15rsonpath_syntax5error18InternalParseErrorE0NCINvNtB8_10combinator5valueB1G_NtNtB1M_6parser16RootSelectorTypeB1I_B16_E0EBL_EEINtBO_6ParserB1G_E7processINtBO_7OutputMNtBO_4EmitB4G_NtBO_9StreamingEEB1M_:
  127|  28.2k|      fn process<OM: crate::OutputMode>(
  128|  28.2k|        &mut self,
  129|  28.2k|        input: Input,
  130|  28.2k|      ) -> crate::PResult<OM, Input, Self::Output, Self::Error> {
  131|  28.2k|        match self.parser.0.process::<OM>(input.clone()) {
  132|  20.7k|          Ok(res) => Ok(res),
  133|      0|          Err(Err::Failure(e))=> Err(Err::Failure(e)),
  134|      0|          Err(Err::Incomplete(i))=> Err(Err::Incomplete(i)),
  135|  7.55k|          Err(Err::Error(e)) => alt_trait_inner!(1, self, input, e, $($id)+),
  136|       |        }
  137|  28.2k|      }
_RINvXs1_NtCshuHlpjMNnjS_3nom6branchINtB6_6ChoiceTINtNtB8_8sequence8PrecededNCINvNtNtB8_9character8complete4charReNtNtCsd77JCpXvqG6_15rsonpath_syntax5error18InternalParseErrorE0NCNvNtB1R_6parser6string0EBL_EEINtNtB8_8internal6ParserB1L_E7processINtB3m_7OutputMNtB3m_4EmitB49_NtB3m_9StreamingEEB1R_:
  127|  80.6k|      fn process<OM: crate::OutputMode>(
  128|  80.6k|        &mut self,
  129|  80.6k|        input: Input,
  130|  80.6k|      ) -> crate::PResult<OM, Input, Self::Output, Self::Error> {
  131|  80.6k|        match self.parser.0.process::<OM>(input.clone()) {
  132|    880|          Ok(res) => Ok(res),
  133|    416|          Err(Err::Failure(e))=> Err(Err::Failure(e)),
  134|      0|          Err(Err::Incomplete(i))=> Err(Err::Incomplete(i)),
  135|  79.4k|          Err(Err::Error(e)) => alt_trait_inner!(1, self, input, e, $($id)+),
  136|       |        }
  137|  80.6k|      }
_RINvXs1_NtCshuHlpjMNnjS_3nom6branchINtB6_6ChoiceTNvNvNtCsd77JCpXvqG6_15rsonpath_syntax6parser21member_name_shorthand10name_firstNCINvNtNtB8_9character8complete7satisfyNCNvBN_9name_char0ReNtNtBR_5error18InternalParseErrorE0EEINtNtB8_8internal6ParserB2X_E7processINtB3D_7OutputMNtB3D_4EmitB4q_NtB3D_9StreamingEEBR_:
  127|  15.0k|      fn process<OM: crate::OutputMode>(
  128|  15.0k|        &mut self,
  129|  15.0k|        input: Input,
  130|  15.0k|      ) -> crate::PResult<OM, Input, Self::Output, Self::Error> {
  131|  15.0k|        match self.parser.0.process::<OM>(input.clone()) {
  132|  8.40k|          Ok(res) => Ok(res),
  133|      0|          Err(Err::Failure(e))=> Err(Err::Failure(e)),
  134|      0|          Err(Err::Incomplete(i))=> Err(Err::Incomplete(i)),
  135|  6.68k|          Err(Err::Error(e)) => alt_trait_inner!(1, self, input, e, $($id)+),
  136|       |        }
  137|  15.0k|      }
_RINvXs2_NtCshuHlpjMNnjS_3nom6branchINtB6_6ChoiceTINtNtB8_8internal4IntoNvNtCsd77JCpXvqG6_15rsonpath_syntax6parser7literalNtB1b_10ComparableNtNtB1b_5error18InternalParseErrorENCNvB19_10comparable0NCINvB19_24failed_filter_expressionB1V_E0EEINtBO_6ParserReE7processINtBO_7OutputMNtBO_4EmitB4q_NtBO_9StreamingEEB1b_:
  127|  8.96k|      fn process<OM: crate::OutputMode>(
  128|  8.96k|        &mut self,
  129|  8.96k|        input: Input,
  130|  8.96k|      ) -> crate::PResult<OM, Input, Self::Output, Self::Error> {
  131|  8.96k|        match self.parser.0.process::<OM>(input.clone()) {
  132|  3.05k|          Ok(res) => Ok(res),
  133|    271|          Err(Err::Failure(e))=> Err(Err::Failure(e)),
  134|      0|          Err(Err::Incomplete(i))=> Err(Err::Incomplete(i)),
  135|  5.64k|          Err(Err::Error(e)) => alt_trait_inner!(1, self, input, e, $($id)+),
  136|       |        }
  137|  8.96k|      }
_RINvXs2_NtCshuHlpjMNnjS_3nom6branchINtB6_6ChoiceTNCNvNtCsd77JCpXvqG6_15rsonpath_syntax6parser12filter_query0NCBN_s_0NCINvBP_28failed_segment_within_filterNtBR_7SegmentE0EEINtNtB8_8internal6ParserReE7processINtB2M_7OutputMNtB2M_4EmitB3x_NtB2M_9StreamingEEBR_:
  127|  19.0k|      fn process<OM: crate::OutputMode>(
  128|  19.0k|        &mut self,
  129|  19.0k|        input: Input,
  130|  19.0k|      ) -> crate::PResult<OM, Input, Self::Output, Self::Error> {
  131|  19.0k|        match self.parser.0.process::<OM>(input.clone()) {
  132|    616|          Ok(res) => Ok(res),
  133|  1.53k|          Err(Err::Failure(e))=> Err(Err::Failure(e)),
  134|      0|          Err(Err::Incomplete(i))=> Err(Err::Incomplete(i)),
  135|  16.9k|          Err(Err::Error(e)) => alt_trait_inner!(1, self, input, e, $($id)+),
  136|       |        }
  137|  19.0k|      }
_RINvXs2_NtCshuHlpjMNnjS_3nom6branchINtB6_6ChoiceTNCNvNtCsd77JCpXvqG6_15rsonpath_syntax6parser7segment0NCBN_s_0NCINvBP_14failed_segmentNtBR_7SegmentE0EEINtNtB8_8internal6ParserReE7processINtB2s_7OutputMNtB2s_4EmitB3d_NtB2s_9StreamingEEBR_:
  127|  25.8k|      fn process<OM: crate::OutputMode>(
  128|  25.8k|        &mut self,
  129|  25.8k|        input: Input,
  130|  25.8k|      ) -> crate::PResult<OM, Input, Self::Output, Self::Error> {
  131|  25.8k|        match self.parser.0.process::<OM>(input.clone()) {
  132|  1.23k|          Ok(res) => Ok(res),
  133|  2.24k|          Err(Err::Failure(e))=> Err(Err::Failure(e)),
  134|      0|          Err(Err::Incomplete(i))=> Err(Err::Incomplete(i)),
  135|  22.4k|          Err(Err::Error(e)) => alt_trait_inner!(1, self, input, e, $($id)+),
  136|       |        }
  137|  25.8k|      }
_RINvXs4_NtCshuHlpjMNnjS_3nom6branchINtB6_6ChoiceTINtNtB8_8internal4IntoNvNtCsd77JCpXvqG6_15rsonpath_syntax6parser6numberNtB1b_7LiteralNtNtB1b_5error18InternalParseErrorEIBM_NvB19_14string_literalB1U_B28_EINtBO_3MapNCINvNtNtB8_5bytes8complete3tagReB3V_B28_E0NCINvNtB8_10combinator5valueB3V_B1U_B28_B3q_E0EB3g_B3g_EEINtBO_6ParserB3V_E7processINtBO_7OutputMNtBO_4EmitB5G_NtBO_9StreamingEEB1b_:
  127|  39.3k|      fn process<OM: crate::OutputMode>(
  128|  39.3k|        &mut self,
  129|  39.3k|        input: Input,
  130|  39.3k|      ) -> crate::PResult<OM, Input, Self::Output, Self::Error> {
  131|  39.3k|        match self.parser.0.process::<OM>(input.clone()) {
  132|  8.44k|          Ok(res) => Ok(res),
  133|  1.35k|          Err(Err::Failure(e))=> Err(Err::Failure(e)),
  134|      0|          Err(Err::Incomplete(i))=> Err(Err::Incomplete(i)),
  135|  29.5k|          Err(Err::Error(e)) => alt_trait_inner!(1, self, input, e, $($id)+),
  136|       |        }
  137|  39.3k|      }
_RINvXs5_NtCshuHlpjMNnjS_3nom6branchINtB6_6ChoiceTINtNtB8_8internal3MapNCINvNtNtB8_5bytes8complete3tagReB1B_NtNtCsd77JCpXvqG6_15rsonpath_syntax5error18InternalParseErrorE0NCINvNtB8_10combinator5valueB1B_NtB1L_12ComparisonOpB1H_B16_E0EBL_BL_BL_IBM_NCINvNtNtB8_9character8complete4charB1B_B1H_E0NCIB2L_B1B_B3e_B1H_B3W_E0EB3S_EEINtBO_6ParserB1B_E7processINtBO_7OutputMNtBO_4EmitB5Q_NtBO_9StreamingEEB1L_:
  127|  20.3k|      fn process<OM: crate::OutputMode>(
  128|  20.3k|        &mut self,
  129|  20.3k|        input: Input,
  130|  20.3k|      ) -> crate::PResult<OM, Input, Self::Output, Self::Error> {
  131|  20.3k|        match self.parser.0.process::<OM>(input.clone()) {
  132|    330|          Ok(res) => Ok(res),
  133|      0|          Err(Err::Failure(e))=> Err(Err::Failure(e)),
  134|      0|          Err(Err::Incomplete(i))=> Err(Err::Incomplete(i)),
  135|  20.0k|          Err(Err::Error(e)) => alt_trait_inner!(1, self, input, e, $($id)+),
  136|       |        }
  137|  20.3k|      }
_RINvXs5_NtCshuHlpjMNnjS_3nom6branchINtB6_6ChoiceTNCINvNtCsd77JCpXvqG6_15rsonpath_syntax6parser17ignore_whitespaceNtBS_8SelectorNvBQ_13name_selectorNtNtBS_5error18InternalParseErrorE0NCIBO_B1N_NvBQ_17wildcard_selectorB2l_E0NCIBO_B1N_NvBQ_14slice_selectorB2l_E0NCIBO_B1N_NvBQ_14index_selectorB2l_E0NCIBO_B1N_NCNvBQ_8selector0B2l_E0NvBQ_15failed_selectorEEINtNtB8_8internal6ParserReE7processINtB5I_7OutputMNtB5I_4EmitB6t_NtB5I_9StreamingEEBS_:
  127|  51.1k|      fn process<OM: crate::OutputMode>(
  128|  51.1k|        &mut self,
  129|  51.1k|        input: Input,
  130|  51.1k|      ) -> crate::PResult<OM, Input, Self::Output, Self::Error> {
  131|  51.1k|        match self.parser.0.process::<OM>(input.clone()) {
  132|  1.12k|          Ok(res) => Ok(res),
  133|  1.13k|          Err(Err::Failure(e))=> Err(Err::Failure(e)),
  134|      0|          Err(Err::Incomplete(i))=> Err(Err::Incomplete(i)),
  135|  48.9k|          Err(Err::Error(e)) => alt_trait_inner!(1, self, input, e, $($id)+),
  136|       |        }
  137|  51.1k|      }
_RNCINvXs1_NtCshuHlpjMNnjS_3nom6branchINtB8_6ChoiceTINtNtBa_8internal3MapNCINvNtNtBa_5bytes8complete3tagReB1D_NtNtCsd77JCpXvqG6_15rsonpath_syntax5error18InternalParseErrorE0NCINvNtBa_10combinator5valueB1D_NtNvNtB1N_6parser12logical_expr9BooleanOpB1J_B18_E0EBN_EEINtBQ_6ParserB1D_E7processINtBQ_7OutputMNtBQ_4EmitB4P_NtBQ_9StreamingEE0B1N_:
  149|  12.3k|        succ!($it, alt_trait_inner!($self, $input, <OM::Error as crate::Mode>::combine($err, e, |e1, e2| e1.or(e2)), $($id)+))
_RNCINvXs1_NtCshuHlpjMNnjS_3nom6branchINtB8_6ChoiceTINtNtBa_8internal3MapNCINvNtNtBa_5bytes8complete3tagReB1D_NtNtCsd77JCpXvqG6_15rsonpath_syntax5error18InternalParseErrorE0NCINvNtBa_10combinator5valueB1D_NtNvNtB1N_6parser12logical_expr9BooleanOpB1J_B18_E0EBN_EEINtBQ_6ParserB1D_E7processINtBQ_7OutputMNtBQ_4EmitB4P_NtBQ_9StreamingEEs_0B1N_:
  154|  12.3k|    Err(Err::Error(<OM::Error as crate::Mode>::map($err, |err| Error::append($input, ErrorKind::Alt, err))))
_RNCINvXs1_NtCshuHlpjMNnjS_3nom6branchINtB8_6ChoiceTINtNtBa_8internal3MapNCINvNtNtBa_9character8complete4charReNtNtCsd77JCpXvqG6_15rsonpath_syntax5error18InternalParseErrorE0NCINvNtBa_10combinator5valueB1I_NtNtB1O_6parser16RootSelectorTypeB1K_B18_E0EBN_EEINtBQ_6ParserB1I_E7processINtBQ_7OutputMNtBQ_4EmitB4I_NtBQ_9StreamingEE0B1O_:
  149|  3.18k|        succ!($it, alt_trait_inner!($self, $input, <OM::Error as crate::Mode>::combine($err, e, |e1, e2| e1.or(e2)), $($id)+))
_RNCINvXs1_NtCshuHlpjMNnjS_3nom6branchINtB8_6ChoiceTINtNtBa_8internal3MapNCINvNtNtBa_9character8complete4charReNtNtCsd77JCpXvqG6_15rsonpath_syntax5error18InternalParseErrorE0NCINvNtBa_10combinator5valueB1I_NtNtB1O_6parser16RootSelectorTypeB1K_B18_E0EBN_EEINtBQ_6ParserB1I_E7processINtBQ_7OutputMNtBQ_4EmitB4I_NtBQ_9StreamingEEs_0B1O_:
  154|  3.18k|    Err(Err::Error(<OM::Error as crate::Mode>::map($err, |err| Error::append($input, ErrorKind::Alt, err))))
_RNCINvXs1_NtCshuHlpjMNnjS_3nom6branchINtB8_6ChoiceTINtNtBa_8sequence8PrecededNCINvNtNtBa_9character8complete4charReNtNtCsd77JCpXvqG6_15rsonpath_syntax5error18InternalParseErrorE0INvB1i_6digit1B1N_B1P_EEB2Q_EEINtNtBa_8internal6ParserB1N_E7processINtB3n_7OutputMNtB3n_5CheckNtB3n_4EmitNtB3n_9StreamingEE0B1T_:
  149|  77.2k|        succ!($it, alt_trait_inner!($self, $input, <OM::Error as crate::Mode>::combine($err, e, |e1, e2| e1.or(e2)), $($id)+))
_RNCINvXs1_NtCshuHlpjMNnjS_3nom6branchINtB8_6ChoiceTINtNtBa_8sequence8PrecededNCINvNtNtBa_9character8complete4charReNtNtCsd77JCpXvqG6_15rsonpath_syntax5error18InternalParseErrorE0INvB1i_6digit1B1N_B1P_EEB2Q_EEINtNtBa_8internal6ParserB1N_E7processINtB3n_7OutputMNtB3n_5CheckNtB3n_4EmitNtB3n_9StreamingEEs_0B1T_:
  154|  77.2k|    Err(Err::Error(<OM::Error as crate::Mode>::map($err, |err| Error::append($input, ErrorKind::Alt, err))))
_RNCINvXs1_NtCshuHlpjMNnjS_3nom6branchINtB8_6ChoiceTINtNtBa_8sequence8PrecededNCINvNtNtBa_9character8complete4charReNtNtCsd77JCpXvqG6_15rsonpath_syntax5error18InternalParseErrorE0NCNvNtB1T_6parser6string0EBN_EEINtNtBa_8internal6ParserB1N_E7processINtB3o_7OutputMNtB3o_4EmitB4b_NtB3o_9StreamingEE0B1T_:
  149|  77.4k|        succ!($it, alt_trait_inner!($self, $input, <OM::Error as crate::Mode>::combine($err, e, |e1, e2| e1.or(e2)), $($id)+))
_RNCINvXs1_NtCshuHlpjMNnjS_3nom6branchINtB8_6ChoiceTINtNtBa_8sequence8PrecededNCINvNtNtBa_9character8complete4charReNtNtCsd77JCpXvqG6_15rsonpath_syntax5error18InternalParseErrorE0NCNvNtB1T_6parser6string0EBN_EEINtNtBa_8internal6ParserB1N_E7processINtB3o_7OutputMNtB3o_4EmitB4b_NtB3o_9StreamingEEs_0B1T_:
  154|  77.4k|    Err(Err::Error(<OM::Error as crate::Mode>::map($err, |err| Error::append($input, ErrorKind::Alt, err))))
_RNCINvXs1_NtCshuHlpjMNnjS_3nom6branchINtB8_6ChoiceTINtNtBa_8sequence8PrecededNCINvNtNtBa_9character8complete4charReNtNtCsd77JCpXvqG6_15rsonpath_syntax5error18InternalParseErrorE0NvNvNtB1T_6parser5float10base_floatEB2Q_EEINtNtBa_8internal6ParserB1N_E7processINtB3z_7OutputMNtB3z_5CheckNtB3z_4EmitNtB3z_9StreamingEE0B1T_:
  149|  29.5k|        succ!($it, alt_trait_inner!($self, $input, <OM::Error as crate::Mode>::combine($err, e, |e1, e2| e1.or(e2)), $($id)+))
_RNCINvXs1_NtCshuHlpjMNnjS_3nom6branchINtB8_6ChoiceTINtNtBa_8sequence8PrecededNCINvNtNtBa_9character8complete4charReNtNtCsd77JCpXvqG6_15rsonpath_syntax5error18InternalParseErrorE0NvNvNtB1T_6parser5float10base_floatEB2Q_EEINtNtBa_8internal6ParserB1N_E7processINtB3z_7OutputMNtB3z_5CheckNtB3z_4EmitNtB3z_9StreamingEEs_0B1T_:
  154|  29.5k|    Err(Err::Error(<OM::Error as crate::Mode>::map($err, |err| Error::append($input, ErrorKind::Alt, err))))
_RNCINvXs1_NtCshuHlpjMNnjS_3nom6branchINtB8_6ChoiceTNCNvNtCsd77JCpXvqG6_15rsonpath_syntax6parser13child_segment0INtNtBa_8sequence8PrecededNCINvNtNtBa_9character8complete4charReNtNtBT_5error18InternalParseErrorE0INtNtBa_10combinator3CutIBA_TINtNtBa_8internal3MapNvBR_17wildcard_selectorNvMsq_BT_NtBT_9Selectors3oneENvBR_21member_name_shorthandNCINvBR_14failed_segmentB4H_E0EEEEEEINtB3S_6ParserB2L_E7processINtB3S_7OutputMNtB3S_4EmitB6J_NtB3S_9StreamingEE0BT_:
  149|  3.62k|        succ!($it, alt_trait_inner!($self, $input, <OM::Error as crate::Mode>::combine($err, e, |e1, e2| e1.or(e2)), $($id)+))
_RNCINvXs1_NtCshuHlpjMNnjS_3nom6branchINtB8_6ChoiceTNCNvNtCsd77JCpXvqG6_15rsonpath_syntax6parser13child_segment0INtNtBa_8sequence8PrecededNCINvNtNtBa_9character8complete4charReNtNtBT_5error18InternalParseErrorE0INtNtBa_10combinator3CutIBA_TINtNtBa_8internal3MapNvBR_17wildcard_selectorNvMsq_BT_NtBT_9Selectors3oneENvBR_21member_name_shorthandNCINvBR_14failed_segmentB4H_E0EEEEEEINtB3S_6ParserB2L_E7processINtB3S_7OutputMNtB3S_4EmitB6J_NtB3S_9StreamingEEs_0BT_:
  154|  3.62k|    Err(Err::Error(<OM::Error as crate::Mode>::map($err, |err| Error::append($input, ErrorKind::Alt, err))))
_RNCINvXs1_NtCshuHlpjMNnjS_3nom6branchINtB8_6ChoiceTNvNvNtCsd77JCpXvqG6_15rsonpath_syntax6parser21member_name_shorthand10name_firstNCINvNtNtBa_9character8complete7satisfyNCNvBP_9name_char0ReNtNtBT_5error18InternalParseErrorE0EEINtNtBa_8internal6ParserB2Z_E7processINtB3F_7OutputMNtB3F_4EmitB4s_NtB3F_9StreamingEE0BT_:
  149|  6.16k|        succ!($it, alt_trait_inner!($self, $input, <OM::Error as crate::Mode>::combine($err, e, |e1, e2| e1.or(e2)), $($id)+))
_RNCINvXs1_NtCshuHlpjMNnjS_3nom6branchINtB8_6ChoiceTNvNvNtCsd77JCpXvqG6_15rsonpath_syntax6parser21member_name_shorthand10name_firstNCINvNtNtBa_9character8complete7satisfyNCNvBP_9name_char0ReNtNtBT_5error18InternalParseErrorE0EEINtNtBa_8internal6ParserB2Z_E7processINtB3F_7OutputMNtB3F_4EmitB4s_NtB3F_9StreamingEEs_0BT_:
  154|  6.16k|    Err(Err::Error(<OM::Error as crate::Mode>::map($err, |err| Error::append($input, ErrorKind::Alt, err))))
_RNCINvXs4_NtCshuHlpjMNnjS_3nom6branchINtB8_6ChoiceTINtNtBa_8internal4IntoNvNtCsd77JCpXvqG6_15rsonpath_syntax6parser6numberNtB1d_7LiteralNtNtB1d_5error18InternalParseErrorEIBO_NvB1b_14string_literalB1W_B2a_EINtBQ_3MapNCINvNtNtBa_5bytes8complete3tagReB3X_B2a_E0NCINvNtBa_10combinator5valueB3X_B1W_B2a_B3s_E0EB3i_B3i_EEINtBQ_6ParserB3X_E7processINtBQ_7OutputMNtBQ_4EmitB5I_NtBQ_9StreamingEE0B1d_:
  149|  28.2k|        succ!($it, alt_trait_inner!($self, $input, <OM::Error as crate::Mode>::combine($err, e, |e1, e2| e1.or(e2)), $($id)+))
_RNCINvXs4_NtCshuHlpjMNnjS_3nom6branchINtB8_6ChoiceTINtNtBa_8internal4IntoNvNtCsd77JCpXvqG6_15rsonpath_syntax6parser6numberNtB1d_7LiteralNtNtB1d_5error18InternalParseErrorEIBO_NvB1b_14string_literalB1W_B2a_EINtBQ_3MapNCINvNtNtBa_5bytes8complete3tagReB3X_B2a_E0NCINvNtBa_10combinator5valueB3X_B1W_B2a_B3s_E0EB3i_B3i_EEINtBQ_6ParserB3X_E7processINtBQ_7OutputMNtBQ_4EmitB5I_NtBQ_9StreamingEEs0_0B1d_:
  149|  28.2k|        succ!($it, alt_trait_inner!($self, $input, <OM::Error as crate::Mode>::combine($err, e, |e1, e2| e1.or(e2)), $($id)+))
_RNCINvXs4_NtCshuHlpjMNnjS_3nom6branchINtB8_6ChoiceTINtNtBa_8internal4IntoNvNtCsd77JCpXvqG6_15rsonpath_syntax6parser6numberNtB1d_7LiteralNtNtB1d_5error18InternalParseErrorEIBO_NvB1b_14string_literalB1W_B2a_EINtBQ_3MapNCINvNtNtBa_5bytes8complete3tagReB3X_B2a_E0NCINvNtBa_10combinator5valueB3X_B1W_B2a_B3s_E0EB3i_B3i_EEINtBQ_6ParserB3X_E7processINtBQ_7OutputMNtBQ_4EmitB5I_NtBQ_9StreamingEEs1_0B1d_:
  149|  28.2k|        succ!($it, alt_trait_inner!($self, $input, <OM::Error as crate::Mode>::combine($err, e, |e1, e2| e1.or(e2)), $($id)+))
_RNCINvXs4_NtCshuHlpjMNnjS_3nom6branchINtB8_6ChoiceTINtNtBa_8internal4IntoNvNtCsd77JCpXvqG6_15rsonpath_syntax6parser6numberNtB1d_7LiteralNtNtB1d_5error18InternalParseErrorEIBO_NvB1b_14string_literalB1W_B2a_EINtBQ_3MapNCINvNtNtBa_5bytes8complete3tagReB3X_B2a_E0NCINvNtBa_10combinator5valueB3X_B1W_B2a_B3s_E0EB3i_B3i_EEINtBQ_6ParserB3X_E7processINtBQ_7OutputMNtBQ_4EmitB5I_NtBQ_9StreamingEEs2_0B1d_:
  154|  28.2k|    Err(Err::Error(<OM::Error as crate::Mode>::map($err, |err| Error::append($input, ErrorKind::Alt, err))))
_RNCINvXs4_NtCshuHlpjMNnjS_3nom6branchINtB8_6ChoiceTINtNtBa_8internal4IntoNvNtCsd77JCpXvqG6_15rsonpath_syntax6parser6numberNtB1d_7LiteralNtNtB1d_5error18InternalParseErrorEIBO_NvB1b_14string_literalB1W_B2a_EINtBQ_3MapNCINvNtNtBa_5bytes8complete3tagReB3X_B2a_E0NCINvNtBa_10combinator5valueB3X_B1W_B2a_B3s_E0EB3i_B3i_EEINtBQ_6ParserB3X_E7processINtBQ_7OutputMNtBQ_4EmitB5I_NtBQ_9StreamingEEs_0B1d_:
  149|  28.2k|        succ!($it, alt_trait_inner!($self, $input, <OM::Error as crate::Mode>::combine($err, e, |e1, e2| e1.or(e2)), $($id)+))
_RNCINvXs5_NtCshuHlpjMNnjS_3nom6branchINtB8_6ChoiceTINtNtBa_8internal3MapNCINvNtNtBa_5bytes8complete3tagReB1D_NtNtCsd77JCpXvqG6_15rsonpath_syntax5error18InternalParseErrorE0NCINvNtBa_10combinator5valueB1D_NtB1N_12ComparisonOpB1J_B18_E0EBN_BN_BN_IBO_NCINvNtNtBa_9character8complete4charB1D_B1J_E0NCIB2N_B1D_B3g_B1J_B3Y_E0EB3U_EEINtBQ_6ParserB1D_E7processINtBQ_7OutputMNtBQ_4EmitB5S_NtBQ_9StreamingEE0B1N_:
  149|  11.4k|        succ!($it, alt_trait_inner!($self, $input, <OM::Error as crate::Mode>::combine($err, e, |e1, e2| e1.or(e2)), $($id)+))
_RNCINvXs5_NtCshuHlpjMNnjS_3nom6branchINtB8_6ChoiceTINtNtBa_8internal3MapNCINvNtNtBa_5bytes8complete3tagReB1D_NtNtCsd77JCpXvqG6_15rsonpath_syntax5error18InternalParseErrorE0NCINvNtBa_10combinator5valueB1D_NtB1N_12ComparisonOpB1J_B18_E0EBN_BN_BN_IBO_NCINvNtNtBa_9character8complete4charB1D_B1J_E0NCIB2N_B1D_B3g_B1J_B3Y_E0EB3U_EEINtBQ_6ParserB1D_E7processINtBQ_7OutputMNtBQ_4EmitB5S_NtBQ_9StreamingEEs0_0B1N_:
  149|  11.4k|        succ!($it, alt_trait_inner!($self, $input, <OM::Error as crate::Mode>::combine($err, e, |e1, e2| e1.or(e2)), $($id)+))
_RNCINvXs5_NtCshuHlpjMNnjS_3nom6branchINtB8_6ChoiceTINtNtBa_8internal3MapNCINvNtNtBa_5bytes8complete3tagReB1D_NtNtCsd77JCpXvqG6_15rsonpath_syntax5error18InternalParseErrorE0NCINvNtBa_10combinator5valueB1D_NtB1N_12ComparisonOpB1J_B18_E0EBN_BN_BN_IBO_NCINvNtNtBa_9character8complete4charB1D_B1J_E0NCIB2N_B1D_B3g_B1J_B3Y_E0EB3U_EEINtBQ_6ParserB1D_E7processINtBQ_7OutputMNtBQ_4EmitB5S_NtBQ_9StreamingEEs1_0B1N_:
  149|  11.4k|        succ!($it, alt_trait_inner!($self, $input, <OM::Error as crate::Mode>::combine($err, e, |e1, e2| e1.or(e2)), $($id)+))
_RNCINvXs5_NtCshuHlpjMNnjS_3nom6branchINtB8_6ChoiceTINtNtBa_8internal3MapNCINvNtNtBa_5bytes8complete3tagReB1D_NtNtCsd77JCpXvqG6_15rsonpath_syntax5error18InternalParseErrorE0NCINvNtBa_10combinator5valueB1D_NtB1N_12ComparisonOpB1J_B18_E0EBN_BN_BN_IBO_NCINvNtNtBa_9character8complete4charB1D_B1J_E0NCIB2N_B1D_B3g_B1J_B3Y_E0EB3U_EEINtBQ_6ParserB1D_E7processINtBQ_7OutputMNtBQ_4EmitB5S_NtBQ_9StreamingEEs2_0B1N_:
  149|  11.4k|        succ!($it, alt_trait_inner!($self, $input, <OM::Error as crate::Mode>::combine($err, e, |e1, e2| e1.or(e2)), $($id)+))
_RNCINvXs5_NtCshuHlpjMNnjS_3nom6branchINtB8_6ChoiceTINtNtBa_8internal3MapNCINvNtNtBa_5bytes8complete3tagReB1D_NtNtCsd77JCpXvqG6_15rsonpath_syntax5error18InternalParseErrorE0NCINvNtBa_10combinator5valueB1D_NtB1N_12ComparisonOpB1J_B18_E0EBN_BN_BN_IBO_NCINvNtNtBa_9character8complete4charB1D_B1J_E0NCIB2N_B1D_B3g_B1J_B3Y_E0EB3U_EEINtBQ_6ParserB1D_E7processINtBQ_7OutputMNtBQ_4EmitB5S_NtBQ_9StreamingEEs3_0B1N_:
  154|  11.4k|    Err(Err::Error(<OM::Error as crate::Mode>::map($err, |err| Error::append($input, ErrorKind::Alt, err))))
_RNCINvXs5_NtCshuHlpjMNnjS_3nom6branchINtB8_6ChoiceTINtNtBa_8internal3MapNCINvNtNtBa_5bytes8complete3tagReB1D_NtNtCsd77JCpXvqG6_15rsonpath_syntax5error18InternalParseErrorE0NCINvNtBa_10combinator5valueB1D_NtB1N_12ComparisonOpB1J_B18_E0EBN_BN_BN_IBO_NCINvNtNtBa_9character8complete4charB1D_B1J_E0NCIB2N_B1D_B3g_B1J_B3Y_E0EB3U_EEINtBQ_6ParserB1D_E7processINtBQ_7OutputMNtBQ_4EmitB5S_NtBQ_9StreamingEEs_0B1N_:
  149|  11.4k|        succ!($it, alt_trait_inner!($self, $input, <OM::Error as crate::Mode>::combine($err, e, |e1, e2| e1.or(e2)), $($id)+))

_RINvNtNtCshuHlpjMNnjS_3nom5bytes8complete11tag_no_caseReBQ_NtNtCsd77JCpXvqG6_15rsonpath_syntax5error18InternalParseErrorEBZ_:
   68|  39.5k|pub fn tag_no_case<T, I, Error: ParseError<I>>(tag: T) -> impl Fn(I) -> IResult<I, I, Error>
   69|  39.5k|where
   70|  39.5k|  I: Input + Compare<T>,
   71|  39.5k|  T: Input + Clone,
   72|       |{
   73|       |  move |i: I| {
   74|       |    let mut parser = super::TagNoCase {
   75|       |      tag: tag.clone(),
   76|       |      e: PhantomData,
   77|       |    };
   78|       |
   79|       |    parser.process::<OutputM<Emit, Emit, Complete>>(i)
   80|       |  }
   81|  39.5k|}
_RINvNtNtCshuHlpjMNnjS_3nom5bytes8complete3tagReBH_NtNtCsd77JCpXvqG6_15rsonpath_syntax5error18InternalParseErrorEBQ_:
   32|   342k|pub fn tag<T, I, Error: ParseError<I>>(tag: T) -> impl Fn(I) -> IResult<I, I, Error>
   33|   342k|where
   34|   342k|  I: Input + Compare<T>,
   35|   342k|  T: Input + Clone,
   36|       |{
   37|       |  move |i: I| {
   38|       |    let mut parser = super::Tag {
   39|       |      tag: tag.clone(),
   40|       |      e: PhantomData,
   41|       |    };
   42|       |
   43|       |    parser.process::<OutputM<Emit, Emit, Complete>>(i)
   44|       |  }
   45|   342k|}
_RNCINvNtNtCshuHlpjMNnjS_3nom5bytes8complete11tag_no_caseReBS_NtNtCsd77JCpXvqG6_15rsonpath_syntax5error18InternalParseErrorE0B11_:
   73|  9.80k|  move |i: I| {
   74|  9.80k|    let mut parser = super::TagNoCase {
   75|  9.80k|      tag: tag.clone(),
   76|  9.80k|      e: PhantomData,
   77|  9.80k|    };
   78|       |
   79|  9.80k|    parser.process::<OutputM<Emit, Emit, Complete>>(i)
   80|  9.80k|  }
_RNCINvNtNtCshuHlpjMNnjS_3nom5bytes8complete3tagReBJ_NtNtCsd77JCpXvqG6_15rsonpath_syntax5error18InternalParseErrorE0BS_:
   37|   306k|  move |i: I| {
   38|   306k|    let mut parser = super::Tag {
   39|   306k|      tag: tag.clone(),
   40|   306k|      e: PhantomData,
   41|   306k|    };
   42|       |
   43|   306k|    parser.process::<OutputM<Emit, Emit, Complete>>(i)
   44|   306k|  }

_RINvXNtCshuHlpjMNnjS_3nom5bytesINtB3_3TagReNtNtCsd77JCpXvqG6_15rsonpath_syntax5error18InternalParseErrorEINtNtB5_8internal6ParserBD_E7processINtB1I_7OutputMNtB1I_4EmitB2u_NtB1I_8CompleteEEBJ_:
   71|   306k|  fn process<OM: OutputMode>(&mut self, i: I) -> crate::PResult<OM, I, Self::Output, Self::Error> {
   72|   306k|    let tag_len = self.tag.input_len();
   73|   306k|    let t = self.tag.clone();
   74|       |
   75|   306k|    match i.compare(t) {
   76|  15.2k|      CompareResult::Ok => Ok((i.take_from(tag_len), OM::Output::bind(|| i.take(tag_len)))),
   77|       |      CompareResult::Incomplete => {
   78|  2.79k|        if OM::Incomplete::is_streaming() {
   79|      0|          Err(Err::Incomplete(Needed::new(tag_len - i.input_len())))
   80|       |        } else {
   81|  2.79k|          Err(Err::Error(OM::Error::bind(|| {
   82|       |            let e: ErrorKind = ErrorKind::Tag;
   83|       |            Error::from_error_kind(i, e)
   84|       |          })))
   85|       |        }
   86|       |      }
   87|   288k|      CompareResult::Error => Err(Err::Error(OM::Error::bind(|| {
   88|       |        let e: ErrorKind = ErrorKind::Tag;
   89|       |        Error::from_error_kind(i, e)
   90|       |      }))),
   91|       |    }
   92|   306k|  }
_RINvXs_NtCshuHlpjMNnjS_3nom5bytesINtB5_9TagNoCaseReNtNtCsd77JCpXvqG6_15rsonpath_syntax5error18InternalParseErrorEINtNtB7_8internal6ParserBL_E7processINtB1Q_7OutputMNtB1Q_4EmitB2C_NtB1Q_8CompleteEEBR_:
  140|  9.80k|  fn process<OM: OutputMode>(&mut self, i: I) -> crate::PResult<OM, I, Self::Output, Self::Error> {
  141|  9.80k|    let tag_len = self.tag.input_len();
  142|  9.80k|    let t = self.tag.clone();
  143|       |
  144|  9.80k|    match i.compare_no_case(t) {
  145|  1.59k|      CompareResult::Ok => Ok((i.take_from(tag_len), OM::Output::bind(|| i.take(tag_len)))),
  146|       |      CompareResult::Incomplete => {
  147|     85|        if OM::Incomplete::is_streaming() {
  148|      0|          Err(Err::Incomplete(Needed::new(tag_len - i.input_len())))
  149|       |        } else {
  150|     85|          Err(Err::Error(OM::Error::bind(|| {
  151|       |            let e: ErrorKind = ErrorKind::Tag;
  152|       |            Error::from_error_kind(i, e)
  153|       |          })))
  154|       |        }
  155|       |      }
  156|  8.12k|      CompareResult::Error => Err(Err::Error(OM::Error::bind(|| {
  157|       |        let e: ErrorKind = ErrorKind::Tag;
  158|       |        Error::from_error_kind(i, e)
  159|       |      }))),
  160|       |    }
  161|  9.80k|  }
_RNCINvXNtCshuHlpjMNnjS_3nom5bytesINtB5_3TagReNtNtCsd77JCpXvqG6_15rsonpath_syntax5error18InternalParseErrorEINtNtB7_8internal6ParserBF_E7processINtB1K_7OutputMNtB1K_4EmitB2w_NtB1K_8CompleteEE0BL_:
   76|  15.2k|      CompareResult::Ok => Ok((i.take_from(tag_len), OM::Output::bind(|| i.take(tag_len)))),
_RNCINvXNtCshuHlpjMNnjS_3nom5bytesINtB5_3TagReNtNtCsd77JCpXvqG6_15rsonpath_syntax5error18InternalParseErrorEINtNtB7_8internal6ParserBF_E7processINtB1K_7OutputMNtB1K_4EmitB2w_NtB1K_8CompleteEEs0_0BL_:
   87|   288k|      CompareResult::Error => Err(Err::Error(OM::Error::bind(|| {
   88|   288k|        let e: ErrorKind = ErrorKind::Tag;
   89|   288k|        Error::from_error_kind(i, e)
   90|   288k|      }))),
_RNCINvXNtCshuHlpjMNnjS_3nom5bytesINtB5_3TagReNtNtCsd77JCpXvqG6_15rsonpath_syntax5error18InternalParseErrorEINtNtB7_8internal6ParserBF_E7processINtB1K_7OutputMNtB1K_4EmitB2w_NtB1K_8CompleteEEs_0BL_:
   81|  2.79k|          Err(Err::Error(OM::Error::bind(|| {
   82|  2.79k|            let e: ErrorKind = ErrorKind::Tag;
   83|  2.79k|            Error::from_error_kind(i, e)
   84|  2.79k|          })))
_RNCINvXs_NtCshuHlpjMNnjS_3nom5bytesINtB7_9TagNoCaseReNtNtCsd77JCpXvqG6_15rsonpath_syntax5error18InternalParseErrorEINtNtB9_8internal6ParserBN_E7processINtB1S_7OutputMNtB1S_4EmitB2E_NtB1S_8CompleteEE0BT_:
  145|  1.59k|      CompareResult::Ok => Ok((i.take_from(tag_len), OM::Output::bind(|| i.take(tag_len)))),
_RNCINvXs_NtCshuHlpjMNnjS_3nom5bytesINtB7_9TagNoCaseReNtNtCsd77JCpXvqG6_15rsonpath_syntax5error18InternalParseErrorEINtNtB9_8internal6ParserBN_E7processINtB1S_7OutputMNtB1S_4EmitB2E_NtB1S_8CompleteEEs0_0BT_:
  156|  8.12k|      CompareResult::Error => Err(Err::Error(OM::Error::bind(|| {
  157|  8.12k|        let e: ErrorKind = ErrorKind::Tag;
  158|  8.12k|        Error::from_error_kind(i, e)
  159|  8.12k|      }))),
_RNCINvXs_NtCshuHlpjMNnjS_3nom5bytesINtB7_9TagNoCaseReNtNtCsd77JCpXvqG6_15rsonpath_syntax5error18InternalParseErrorEINtNtB9_8internal6ParserBN_E7processINtB1S_7OutputMNtB1S_4EmitB2E_NtB1S_8CompleteEEs_0BT_:
  150|     85|          Err(Err::Error(OM::Error::bind(|| {
  151|     85|            let e: ErrorKind = ErrorKind::Tag;
  152|     85|            Error::from_error_kind(i, e)
  153|     85|          })))

_RINvNtNtCshuHlpjMNnjS_3nom9character8complete4charReINtNtB6_5error5ErrorBM_EECsd77JCpXvqG6_15rsonpath_syntax:
   33|  97.4k|pub fn char<I, Error: ParseError<I>>(c: char) -> impl FnMut(I) -> IResult<I, char, Error>
   34|  97.4k|where
   35|  97.4k|  I: Input,
   36|  97.4k|  <I as Input>::Item: AsChar,
   37|       |{
   38|  97.4k|  let mut parser = super::char(c);
   39|       |  move |i: I| parser.process::<OutputM<Emit, Emit, Complete>>(i)
   40|  97.4k|}
_RINvNtNtCshuHlpjMNnjS_3nom9character8complete4charReNtNtCsd77JCpXvqG6_15rsonpath_syntax5error18InternalParseErrorEBS_:
   33|   726k|pub fn char<I, Error: ParseError<I>>(c: char) -> impl FnMut(I) -> IResult<I, char, Error>
   34|   726k|where
   35|   726k|  I: Input,
   36|   726k|  <I as Input>::Item: AsChar,
   37|       |{
   38|   726k|  let mut parser = super::char(c);
   39|       |  move |i: I| parser.process::<OutputM<Emit, Emit, Complete>>(i)
   40|   726k|}
_RINvNtNtCshuHlpjMNnjS_3nom9character8complete4charReuECsd77JCpXvqG6_15rsonpath_syntax:
   33|  48.7k|pub fn char<I, Error: ParseError<I>>(c: char) -> impl FnMut(I) -> IResult<I, char, Error>
   34|  48.7k|where
   35|  48.7k|  I: Input,
   36|  48.7k|  <I as Input>::Item: AsChar,
   37|       |{
   38|  48.7k|  let mut parser = super::char(c);
   39|       |  move |i: I| parser.process::<OutputM<Emit, Emit, Complete>>(i)
   40|  48.7k|}
_RINvNtNtCshuHlpjMNnjS_3nom9character8complete6digit1ReNtNtCsd77JCpXvqG6_15rsonpath_syntax5error18InternalParseErrorEBU_:
  410|   139k|pub fn digit1<T, E: ParseError<T>>(input: T) -> IResult<T, T, E>
  411|   139k|where
  412|   139k|  T: Input,
  413|   139k|  <T as Input>::Item: AsChar,
  414|       |{
  415|   139k|  input.split_at_position1_complete(|item| !item.is_dec_digit(), ErrorKind::Digit)
  416|   139k|}
_RINvNtNtCshuHlpjMNnjS_3nom9character8complete6one_ofReBO_uECsd77JCpXvqG6_15rsonpath_syntax:
   79|  43.4k|pub fn one_of<I, T, Error: ParseError<I>>(list: T) -> impl FnMut(I) -> IResult<I, char, Error>
   80|  43.4k|where
   81|  43.4k|  I: Input,
   82|  43.4k|  <I as Input>::Item: AsChar,
   83|  43.4k|  T: FindToken<char>,
   84|       |{
   85|  43.4k|  let mut parser = super::one_of(list);
   86|       |  move |i: I| parser.process::<OutputM<Emit, Emit, Complete>>(i)
   87|  43.4k|}
_RINvNtNtCshuHlpjMNnjS_3nom9character8complete7satisfyNCNvNvNtCsd77JCpXvqG6_15rsonpath_syntax6parser21member_name_shorthand10name_first0ReNtNtBX_5error18InternalParseErrorEBX_:
   57|  28.5k|pub fn satisfy<F, I, Error: ParseError<I>>(predicate: F) -> impl FnMut(I) -> IResult<I, char, Error>
   58|  28.5k|where
   59|  28.5k|  I: Input,
   60|  28.5k|  <I as Input>::Item: AsChar,
   61|  28.5k|  F: Fn(char) -> bool,
   62|       |{
   63|  28.5k|  let mut parser = super::satisfy(predicate);
   64|       |  move |i: I| parser.process::<OutputM<Emit, Emit, Complete>>(i)
   65|  28.5k|}
_RINvNtNtCshuHlpjMNnjS_3nom9character8complete7satisfyNCNvNvNtCsd77JCpXvqG6_15rsonpath_syntax6parser21member_name_shorthand9name_char0ReNtNtBX_5error18InternalParseErrorEBX_:
   57|  15.0k|pub fn satisfy<F, I, Error: ParseError<I>>(predicate: F) -> impl FnMut(I) -> IResult<I, char, Error>
   58|  15.0k|where
   59|  15.0k|  I: Input,
   60|  15.0k|  <I as Input>::Item: AsChar,
   61|  15.0k|  F: Fn(char) -> bool,
   62|       |{
   63|  15.0k|  let mut parser = super::satisfy(predicate);
   64|       |  move |i: I| parser.process::<OutputM<Emit, Emit, Complete>>(i)
   65|  15.0k|}
_RNCINvNtNtCshuHlpjMNnjS_3nom9character8complete4charReINtNtB8_5error5ErrorBO_EE0Csd77JCpXvqG6_15rsonpath_syntax:
   39|  97.4k|  move |i: I| parser.process::<OutputM<Emit, Emit, Complete>>(i)
_RNCINvNtNtCshuHlpjMNnjS_3nom9character8complete4charReNtNtCsd77JCpXvqG6_15rsonpath_syntax5error18InternalParseErrorE0BU_:
   39|   564k|  move |i: I| parser.process::<OutputM<Emit, Emit, Complete>>(i)
_RNCINvNtNtCshuHlpjMNnjS_3nom9character8complete4charReuE0Csd77JCpXvqG6_15rsonpath_syntax:
   39|  48.7k|  move |i: I| parser.process::<OutputM<Emit, Emit, Complete>>(i)
_RNCINvNtNtCshuHlpjMNnjS_3nom9character8complete6digit1ReNtNtCsd77JCpXvqG6_15rsonpath_syntax5error18InternalParseErrorE0BW_:
  415|   244k|  input.split_at_position1_complete(|item| !item.is_dec_digit(), ErrorKind::Digit)
_RNCINvNtNtCshuHlpjMNnjS_3nom9character8complete6one_ofReBQ_uE0Csd77JCpXvqG6_15rsonpath_syntax:
   86|  43.4k|  move |i: I| parser.process::<OutputM<Emit, Emit, Complete>>(i)
_RNCINvNtNtCshuHlpjMNnjS_3nom9character8complete7satisfyNCNvNvNtCsd77JCpXvqG6_15rsonpath_syntax6parser21member_name_shorthand10name_first0ReNtNtBZ_5error18InternalParseErrorE0BZ_:
   64|  28.5k|  move |i: I| parser.process::<OutputM<Emit, Emit, Complete>>(i)
_RNCINvNtNtCshuHlpjMNnjS_3nom9character8complete7satisfyNCNvNvNtCsd77JCpXvqG6_15rsonpath_syntax6parser21member_name_shorthand9name_char0ReNtNtBZ_5error18InternalParseErrorE0BZ_:
   64|  6.68k|  move |i: I| parser.process::<OutputM<Emit, Emit, Complete>>(i)

_RINvXNtCshuHlpjMNnjS_3nom9characterINtB3_4CharINtNtB5_5error5ErrorReEEINtNtB5_8internal6ParserB12_E7processINtB19_7OutputMNtB19_4EmitB1W_NtB19_8CompleteEECsd77JCpXvqG6_15rsonpath_syntax:
  120|  97.4k|  fn process<OM: crate::OutputMode>(
  121|  97.4k|    &mut self,
  122|  97.4k|    i: I,
  123|  97.4k|  ) -> crate::PResult<OM, I, Self::Output, Self::Error> {
  124|  97.4k|    match (i).iter_elements().next().map(|t| {
  125|       |      let b = t.as_char() == self.c;
  126|       |      (&self.c, b)
  127|       |    }) {
  128|       |      None => {
  129|  16.9k|        if OM::Incomplete::is_streaming() {
  130|      0|          Err(Err::Incomplete(Needed::new(self.c.len() - i.input_len())))
  131|       |        } else {
  132|  16.9k|          Err(Err::Error(OM::Error::bind(|| Error::from_char(i, self.c))))
  133|       |        }
  134|       |      }
  135|  58.9k|      Some((_, false)) => Err(Err::Error(OM::Error::bind(|| Error::from_char(i, self.c)))),
  136|  21.6k|      Some((c, true)) => Ok((i.take_from(c.len()), OM::Output::bind(|| c.as_char()))),
  137|       |    }
  138|  97.4k|  }
_RINvXNtCshuHlpjMNnjS_3nom9characterINtB3_4CharNtNtCsd77JCpXvqG6_15rsonpath_syntax5error18InternalParseErrorEINtNtB5_8internal6ParserReE7processINtB1L_7OutputMNtB1L_4EmitB2w_NtB1L_8CompleteEEBM_:
  120|   564k|  fn process<OM: crate::OutputMode>(
  121|   564k|    &mut self,
  122|   564k|    i: I,
  123|   564k|  ) -> crate::PResult<OM, I, Self::Output, Self::Error> {
  124|   564k|    match (i).iter_elements().next().map(|t| {
  125|       |      let b = t.as_char() == self.c;
  126|       |      (&self.c, b)
  127|       |    }) {
  128|       |      None => {
  129|  2.08k|        if OM::Incomplete::is_streaming() {
  130|      0|          Err(Err::Incomplete(Needed::new(self.c.len() - i.input_len())))
  131|       |        } else {
  132|  2.08k|          Err(Err::Error(OM::Error::bind(|| Error::from_char(i, self.c))))
  133|       |        }
  134|       |      }
  135|   444k|      Some((_, false)) => Err(Err::Error(OM::Error::bind(|| Error::from_char(i, self.c)))),
  136|   117k|      Some((c, true)) => Ok((i.take_from(c.len()), OM::Output::bind(|| c.as_char()))),
  137|       |    }
  138|   564k|  }
_RINvXNtCshuHlpjMNnjS_3nom9characterINtB3_4CharuEINtNtB5_8internal6ParserReE7processINtBN_7OutputMNtBN_4EmitB1x_NtBN_8CompleteEECsd77JCpXvqG6_15rsonpath_syntax:
  120|  48.7k|  fn process<OM: crate::OutputMode>(
  121|  48.7k|    &mut self,
  122|  48.7k|    i: I,
  123|  48.7k|  ) -> crate::PResult<OM, I, Self::Output, Self::Error> {
  124|  48.7k|    match (i).iter_elements().next().map(|t| {
  125|       |      let b = t.as_char() == self.c;
  126|       |      (&self.c, b)
  127|       |    }) {
  128|       |      None => {
  129|    148|        if OM::Incomplete::is_streaming() {
  130|      0|          Err(Err::Incomplete(Needed::new(self.c.len() - i.input_len())))
  131|       |        } else {
  132|    148|          Err(Err::Error(OM::Error::bind(|| Error::from_char(i, self.c))))
  133|       |        }
  134|       |      }
  135|  32.9k|      Some((_, false)) => Err(Err::Error(OM::Error::bind(|| Error::from_char(i, self.c)))),
  136|  15.7k|      Some((c, true)) => Ok((i.take_from(c.len()), OM::Output::bind(|| c.as_char()))),
  137|       |    }
  138|  48.7k|  }
_RINvXs_NtCshuHlpjMNnjS_3nom9characterINtB5_7SatisfyNCINvB5_6one_ofReB12_uE0NCBP_s_0EINtNtB7_8internal6ParserB12_E7processINtB1n_7OutputMNtB1n_4EmitB2a_NtB1n_8CompleteEECsd77JCpXvqG6_15rsonpath_syntax:
  186|  43.4k|  fn process<OM: crate::OutputMode>(
  187|  43.4k|    &mut self,
  188|  43.4k|    i: I,
  189|  43.4k|  ) -> crate::PResult<OM, I, Self::Output, Self::Error> {
  190|  43.4k|    match (i).iter_elements().next().map(|t| {
  191|       |      let c = t.as_char();
  192|       |      let b = (self.predicate)(c);
  193|       |      (c, b)
  194|       |    }) {
  195|       |      None => {
  196|  7.01k|        if OM::Incomplete::is_streaming() {
  197|      0|          Err(Err::Incomplete(Needed::Unknown))
  198|       |        } else {
  199|  7.01k|          Err(Err::Error(OM::Error::bind(|| (self.make_error)(i))))
  200|       |        }
  201|       |      }
  202|  17.3k|      Some((_, false)) => Err(Err::Error(OM::Error::bind(|| (self.make_error)(i)))),
  203|  19.0k|      Some((c, true)) => Ok((i.take_from(c.len()), OM::Output::bind(|| c.as_char()))),
  204|       |    }
  205|  43.4k|  }
_RINvXs_NtCshuHlpjMNnjS_3nom9characterINtB5_7SatisfyNCNvNvNtCsd77JCpXvqG6_15rsonpath_syntax6parser21member_name_shorthand10name_first0NCINvB5_7satisfyBN_ReNtNtBV_5error18InternalParseErrorE0EINtNtB7_8internal6ParserB2q_E7processINtB35_7OutputMNtB35_4EmitB3S_NtB35_8CompleteEEBV_:
  186|  28.5k|  fn process<OM: crate::OutputMode>(
  187|  28.5k|    &mut self,
  188|  28.5k|    i: I,
  189|  28.5k|  ) -> crate::PResult<OM, I, Self::Output, Self::Error> {
  190|  28.5k|    match (i).iter_elements().next().map(|t| {
  191|       |      let c = t.as_char();
  192|       |      let b = (self.predicate)(c);
  193|       |      (c, b)
  194|       |    }) {
  195|       |      None => {
  196|    256|        if OM::Incomplete::is_streaming() {
  197|      0|          Err(Err::Incomplete(Needed::Unknown))
  198|       |        } else {
  199|    256|          Err(Err::Error(OM::Error::bind(|| (self.make_error)(i))))
  200|       |        }
  201|       |      }
  202|  13.7k|      Some((_, false)) => Err(Err::Error(OM::Error::bind(|| (self.make_error)(i)))),
  203|  14.5k|      Some((c, true)) => Ok((i.take_from(c.len()), OM::Output::bind(|| c.as_char()))),
  204|       |    }
  205|  28.5k|  }
_RINvXs_NtCshuHlpjMNnjS_3nom9characterINtB5_7SatisfyNCNvNvNtCsd77JCpXvqG6_15rsonpath_syntax6parser21member_name_shorthand9name_char0NCINvB5_7satisfyBN_ReNtNtBV_5error18InternalParseErrorE0EINtNtB7_8internal6ParserB2o_E7processINtB33_7OutputMNtB33_4EmitB3Q_NtB33_8CompleteEEBV_:
  186|  6.68k|  fn process<OM: crate::OutputMode>(
  187|  6.68k|    &mut self,
  188|  6.68k|    i: I,
  189|  6.68k|  ) -> crate::PResult<OM, I, Self::Output, Self::Error> {
  190|  6.68k|    match (i).iter_elements().next().map(|t| {
  191|       |      let c = t.as_char();
  192|       |      let b = (self.predicate)(c);
  193|       |      (c, b)
  194|       |    }) {
  195|       |      None => {
  196|    172|        if OM::Incomplete::is_streaming() {
  197|      0|          Err(Err::Incomplete(Needed::Unknown))
  198|       |        } else {
  199|    172|          Err(Err::Error(OM::Error::bind(|| (self.make_error)(i))))
  200|       |        }
  201|       |      }
  202|  5.99k|      Some((_, false)) => Err(Err::Error(OM::Error::bind(|| (self.make_error)(i)))),
  203|    525|      Some((c, true)) => Ok((i.take_from(c.len()), OM::Output::bind(|| c.as_char()))),
  204|       |    }
  205|  6.68k|  }
_RINvNtCshuHlpjMNnjS_3nom9character4charReINtNtB4_5error5ErrorBB_EECsd77JCpXvqG6_15rsonpath_syntax:
   98|  97.4k|pub fn char<I, Error: ParseError<I>>(c: char) -> impl Parser<I, Output = char, Error = Error>
   99|  97.4k|where
  100|  97.4k|  I: Input,
  101|  97.4k|  <I as Input>::Item: AsChar,
  102|       |{
  103|  97.4k|  Char { c, e: PhantomData }
  104|  97.4k|}
_RINvNtCshuHlpjMNnjS_3nom9character4charReNtNtCsd77JCpXvqG6_15rsonpath_syntax5error18InternalParseErrorEBH_:
   98|   726k|pub fn char<I, Error: ParseError<I>>(c: char) -> impl Parser<I, Output = char, Error = Error>
   99|   726k|where
  100|   726k|  I: Input,
  101|   726k|  <I as Input>::Item: AsChar,
  102|       |{
  103|   726k|  Char { c, e: PhantomData }
  104|   726k|}
_RINvNtCshuHlpjMNnjS_3nom9character4charReuECsd77JCpXvqG6_15rsonpath_syntax:
   98|  48.7k|pub fn char<I, Error: ParseError<I>>(c: char) -> impl Parser<I, Output = char, Error = Error>
   99|  48.7k|where
  100|  48.7k|  I: Input,
  101|  48.7k|  <I as Input>::Item: AsChar,
  102|       |{
  103|  48.7k|  Char { c, e: PhantomData }
  104|  48.7k|}
_RINvNtCshuHlpjMNnjS_3nom9character6one_ofReBD_uECsd77JCpXvqG6_15rsonpath_syntax:
  219|  43.4k|pub fn one_of<I, T, Error: ParseError<I>>(list: T) -> impl Parser<I, Output = char, Error = Error>
  220|  43.4k|where
  221|  43.4k|  I: Input,
  222|  43.4k|  <I as Input>::Item: AsChar,
  223|  43.4k|  T: FindToken<char>,
  224|       |{
  225|       |  Satisfy {
  226|       |    predicate: move |c: char| list.find_token(c),
  227|       |    make_error: move |i| Error::from_error_kind(i, ErrorKind::OneOf),
  228|       |  }
  229|  43.4k|}
_RINvNtCshuHlpjMNnjS_3nom9character7satisfyNCNvNvNtCsd77JCpXvqG6_15rsonpath_syntax6parser21member_name_shorthand10name_first0ReNtNtBM_5error18InternalParseErrorEBM_:
  155|  28.5k|pub fn satisfy<F, I, Error: ParseError<I>>(
  156|  28.5k|  predicate: F,
  157|  28.5k|) -> impl Parser<I, Output = char, Error = Error>
  158|  28.5k|where
  159|  28.5k|  I: Input,
  160|  28.5k|  <I as Input>::Item: AsChar,
  161|  28.5k|  F: Fn(char) -> bool,
  162|       |{
  163|       |  Satisfy {
  164|  28.5k|    predicate,
  165|       |    make_error: |i: I| Error::from_error_kind(i, ErrorKind::Satisfy),
  166|       |  }
  167|  28.5k|}
_RINvNtCshuHlpjMNnjS_3nom9character7satisfyNCNvNvNtCsd77JCpXvqG6_15rsonpath_syntax6parser21member_name_shorthand9name_char0ReNtNtBM_5error18InternalParseErrorEBM_:
  155|  15.0k|pub fn satisfy<F, I, Error: ParseError<I>>(
  156|  15.0k|  predicate: F,
  157|  15.0k|) -> impl Parser<I, Output = char, Error = Error>
  158|  15.0k|where
  159|  15.0k|  I: Input,
  160|  15.0k|  <I as Input>::Item: AsChar,
  161|  15.0k|  F: Fn(char) -> bool,
  162|       |{
  163|       |  Satisfy {
  164|  15.0k|    predicate,
  165|       |    make_error: |i: I| Error::from_error_kind(i, ErrorKind::Satisfy),
  166|       |  }
  167|  15.0k|}
_RNCINvNtCshuHlpjMNnjS_3nom9character6one_ofReBF_uE0Csd77JCpXvqG6_15rsonpath_syntax:
  226|  36.4k|    predicate: move |c: char| list.find_token(c),
_RNCINvNtCshuHlpjMNnjS_3nom9character6one_ofReBF_uEs_0Csd77JCpXvqG6_15rsonpath_syntax:
  227|  24.3k|    make_error: move |i| Error::from_error_kind(i, ErrorKind::OneOf),
_RNCINvNtCshuHlpjMNnjS_3nom9character7satisfyNCNvNvNtCsd77JCpXvqG6_15rsonpath_syntax6parser21member_name_shorthand10name_first0ReNtNtBO_5error18InternalParseErrorE0BO_:
  165|  13.9k|    make_error: |i: I| Error::from_error_kind(i, ErrorKind::Satisfy),
_RNCINvNtCshuHlpjMNnjS_3nom9character7satisfyNCNvNvNtCsd77JCpXvqG6_15rsonpath_syntax6parser21member_name_shorthand9name_char0ReNtNtBO_5error18InternalParseErrorE0BO_:
  165|  6.16k|    make_error: |i: I| Error::from_error_kind(i, ErrorKind::Satisfy),
_RNCINvXNtCshuHlpjMNnjS_3nom9characterINtB5_4CharINtNtB7_5error5ErrorReEEINtNtB7_8internal6ParserB14_E7processINtB1b_7OutputMNtB1b_4EmitB1Y_NtB1b_8CompleteEE0Csd77JCpXvqG6_15rsonpath_syntax:
  124|  80.5k|    match (i).iter_elements().next().map(|t| {
  125|  80.5k|      let b = t.as_char() == self.c;
  126|  80.5k|      (&self.c, b)
  127|  80.5k|    }) {
_RNCINvXNtCshuHlpjMNnjS_3nom9characterINtB5_4CharINtNtB7_5error5ErrorReEEINtNtB7_8internal6ParserB14_E7processINtB1b_7OutputMNtB1b_4EmitB1Y_NtB1b_8CompleteEEs0_0Csd77JCpXvqG6_15rsonpath_syntax:
  135|  58.9k|      Some((_, false)) => Err(Err::Error(OM::Error::bind(|| Error::from_char(i, self.c)))),
_RNCINvXNtCshuHlpjMNnjS_3nom9characterINtB5_4CharINtNtB7_5error5ErrorReEEINtNtB7_8internal6ParserB14_E7processINtB1b_7OutputMNtB1b_4EmitB1Y_NtB1b_8CompleteEEs1_0Csd77JCpXvqG6_15rsonpath_syntax:
  136|  21.6k|      Some((c, true)) => Ok((i.take_from(c.len()), OM::Output::bind(|| c.as_char()))),
_RNCINvXNtCshuHlpjMNnjS_3nom9characterINtB5_4CharINtNtB7_5error5ErrorReEEINtNtB7_8internal6ParserB14_E7processINtB1b_7OutputMNtB1b_4EmitB1Y_NtB1b_8CompleteEEs_0Csd77JCpXvqG6_15rsonpath_syntax:
  132|  16.9k|          Err(Err::Error(OM::Error::bind(|| Error::from_char(i, self.c))))
_RNCINvXNtCshuHlpjMNnjS_3nom9characterINtB5_4CharNtNtCsd77JCpXvqG6_15rsonpath_syntax5error18InternalParseErrorEINtNtB7_8internal6ParserReE7processINtB1N_7OutputMNtB1N_4EmitB2y_NtB1N_8CompleteEE0BO_:
  124|   562k|    match (i).iter_elements().next().map(|t| {
  125|   562k|      let b = t.as_char() == self.c;
  126|   562k|      (&self.c, b)
  127|   562k|    }) {
_RNCINvXNtCshuHlpjMNnjS_3nom9characterINtB5_4CharNtNtCsd77JCpXvqG6_15rsonpath_syntax5error18InternalParseErrorEINtNtB7_8internal6ParserReE7processINtB1N_7OutputMNtB1N_4EmitB2y_NtB1N_8CompleteEEs0_0BO_:
  135|   444k|      Some((_, false)) => Err(Err::Error(OM::Error::bind(|| Error::from_char(i, self.c)))),
_RNCINvXNtCshuHlpjMNnjS_3nom9characterINtB5_4CharNtNtCsd77JCpXvqG6_15rsonpath_syntax5error18InternalParseErrorEINtNtB7_8internal6ParserReE7processINtB1N_7OutputMNtB1N_4EmitB2y_NtB1N_8CompleteEEs1_0BO_:
  136|   117k|      Some((c, true)) => Ok((i.take_from(c.len()), OM::Output::bind(|| c.as_char()))),
_RNCINvXNtCshuHlpjMNnjS_3nom9characterINtB5_4CharNtNtCsd77JCpXvqG6_15rsonpath_syntax5error18InternalParseErrorEINtNtB7_8internal6ParserReE7processINtB1N_7OutputMNtB1N_4EmitB2y_NtB1N_8CompleteEEs_0BO_:
  132|  2.08k|          Err(Err::Error(OM::Error::bind(|| Error::from_char(i, self.c))))
_RNCINvXNtCshuHlpjMNnjS_3nom9characterINtB5_4CharuEINtNtB7_8internal6ParserReE7processINtBP_7OutputMNtBP_4EmitB1z_NtBP_8CompleteEE0Csd77JCpXvqG6_15rsonpath_syntax:
  124|  48.6k|    match (i).iter_elements().next().map(|t| {
  125|  48.6k|      let b = t.as_char() == self.c;
  126|  48.6k|      (&self.c, b)
  127|  48.6k|    }) {
_RNCINvXNtCshuHlpjMNnjS_3nom9characterINtB5_4CharuEINtNtB7_8internal6ParserReE7processINtBP_7OutputMNtBP_4EmitB1z_NtBP_8CompleteEEs0_0Csd77JCpXvqG6_15rsonpath_syntax:
  135|  32.9k|      Some((_, false)) => Err(Err::Error(OM::Error::bind(|| Error::from_char(i, self.c)))),
_RNCINvXNtCshuHlpjMNnjS_3nom9characterINtB5_4CharuEINtNtB7_8internal6ParserReE7processINtBP_7OutputMNtBP_4EmitB1z_NtBP_8CompleteEEs1_0Csd77JCpXvqG6_15rsonpath_syntax:
  136|  15.7k|      Some((c, true)) => Ok((i.take_from(c.len()), OM::Output::bind(|| c.as_char()))),
_RNCINvXNtCshuHlpjMNnjS_3nom9characterINtB5_4CharuEINtNtB7_8internal6ParserReE7processINtBP_7OutputMNtBP_4EmitB1z_NtBP_8CompleteEEs_0Csd77JCpXvqG6_15rsonpath_syntax:
  132|    148|          Err(Err::Error(OM::Error::bind(|| Error::from_char(i, self.c))))
_RNCINvXs_NtCshuHlpjMNnjS_3nom9characterINtB7_7SatisfyNCINvB7_6one_ofReB14_uE0NCBR_s_0EINtNtB9_8internal6ParserB14_E7processINtB1p_7OutputMNtB1p_4EmitB2c_NtB1p_8CompleteEE0Csd77JCpXvqG6_15rsonpath_syntax:
  190|  36.4k|    match (i).iter_elements().next().map(|t| {
  191|  36.4k|      let c = t.as_char();
  192|  36.4k|      let b = (self.predicate)(c);
  193|  36.4k|      (c, b)
  194|  36.4k|    }) {
_RNCINvXs_NtCshuHlpjMNnjS_3nom9characterINtB7_7SatisfyNCINvB7_6one_ofReB14_uE0NCBR_s_0EINtNtB9_8internal6ParserB14_E7processINtB1p_7OutputMNtB1p_4EmitB2c_NtB1p_8CompleteEEs0_0Csd77JCpXvqG6_15rsonpath_syntax:
  202|  17.3k|      Some((_, false)) => Err(Err::Error(OM::Error::bind(|| (self.make_error)(i)))),
_RNCINvXs_NtCshuHlpjMNnjS_3nom9characterINtB7_7SatisfyNCINvB7_6one_ofReB14_uE0NCBR_s_0EINtNtB9_8internal6ParserB14_E7processINtB1p_7OutputMNtB1p_4EmitB2c_NtB1p_8CompleteEEs1_0Csd77JCpXvqG6_15rsonpath_syntax:
  203|  19.0k|      Some((c, true)) => Ok((i.take_from(c.len()), OM::Output::bind(|| c.as_char()))),
_RNCINvXs_NtCshuHlpjMNnjS_3nom9characterINtB7_7SatisfyNCINvB7_6one_ofReB14_uE0NCBR_s_0EINtNtB9_8internal6ParserB14_E7processINtB1p_7OutputMNtB1p_4EmitB2c_NtB1p_8CompleteEEs_0Csd77JCpXvqG6_15rsonpath_syntax:
  199|  7.01k|          Err(Err::Error(OM::Error::bind(|| (self.make_error)(i))))
_RNCINvXs_NtCshuHlpjMNnjS_3nom9characterINtB7_7SatisfyNCNvNvNtCsd77JCpXvqG6_15rsonpath_syntax6parser21member_name_shorthand10name_first0NCINvB7_7satisfyBP_ReNtNtBX_5error18InternalParseErrorE0EINtNtB9_8internal6ParserB2s_E7processINtB37_7OutputMNtB37_4EmitB3U_NtB37_8CompleteEE0BX_:
  190|  28.3k|    match (i).iter_elements().next().map(|t| {
  191|  28.3k|      let c = t.as_char();
  192|  28.3k|      let b = (self.predicate)(c);
  193|  28.3k|      (c, b)
  194|  28.3k|    }) {
_RNCINvXs_NtCshuHlpjMNnjS_3nom9characterINtB7_7SatisfyNCNvNvNtCsd77JCpXvqG6_15rsonpath_syntax6parser21member_name_shorthand10name_first0NCINvB7_7satisfyBP_ReNtNtBX_5error18InternalParseErrorE0EINtNtB9_8internal6ParserB2s_E7processINtB37_7OutputMNtB37_4EmitB3U_NtB37_8CompleteEEs0_0BX_:
  202|  13.7k|      Some((_, false)) => Err(Err::Error(OM::Error::bind(|| (self.make_error)(i)))),
_RNCINvXs_NtCshuHlpjMNnjS_3nom9characterINtB7_7SatisfyNCNvNvNtCsd77JCpXvqG6_15rsonpath_syntax6parser21member_name_shorthand10name_first0NCINvB7_7satisfyBP_ReNtNtBX_5error18InternalParseErrorE0EINtNtB9_8internal6ParserB2s_E7processINtB37_7OutputMNtB37_4EmitB3U_NtB37_8CompleteEEs1_0BX_:
  203|  14.5k|      Some((c, true)) => Ok((i.take_from(c.len()), OM::Output::bind(|| c.as_char()))),
_RNCINvXs_NtCshuHlpjMNnjS_3nom9characterINtB7_7SatisfyNCNvNvNtCsd77JCpXvqG6_15rsonpath_syntax6parser21member_name_shorthand10name_first0NCINvB7_7satisfyBP_ReNtNtBX_5error18InternalParseErrorE0EINtNtB9_8internal6ParserB2s_E7processINtB37_7OutputMNtB37_4EmitB3U_NtB37_8CompleteEEs_0BX_:
  199|    256|          Err(Err::Error(OM::Error::bind(|| (self.make_error)(i))))
_RNCINvXs_NtCshuHlpjMNnjS_3nom9characterINtB7_7SatisfyNCNvNvNtCsd77JCpXvqG6_15rsonpath_syntax6parser21member_name_shorthand9name_char0NCINvB7_7satisfyBP_ReNtNtBX_5error18InternalParseErrorE0EINtNtB9_8internal6ParserB2q_E7processINtB35_7OutputMNtB35_4EmitB3S_NtB35_8CompleteEE0BX_:
  190|  6.51k|    match (i).iter_elements().next().map(|t| {
  191|  6.51k|      let c = t.as_char();
  192|  6.51k|      let b = (self.predicate)(c);
  193|  6.51k|      (c, b)
  194|  6.51k|    }) {
_RNCINvXs_NtCshuHlpjMNnjS_3nom9characterINtB7_7SatisfyNCNvNvNtCsd77JCpXvqG6_15rsonpath_syntax6parser21member_name_shorthand9name_char0NCINvB7_7satisfyBP_ReNtNtBX_5error18InternalParseErrorE0EINtNtB9_8internal6ParserB2q_E7processINtB35_7OutputMNtB35_4EmitB3S_NtB35_8CompleteEEs0_0BX_:
  202|  5.99k|      Some((_, false)) => Err(Err::Error(OM::Error::bind(|| (self.make_error)(i)))),
_RNCINvXs_NtCshuHlpjMNnjS_3nom9characterINtB7_7SatisfyNCNvNvNtCsd77JCpXvqG6_15rsonpath_syntax6parser21member_name_shorthand9name_char0NCINvB7_7satisfyBP_ReNtNtBX_5error18InternalParseErrorE0EINtNtB9_8internal6ParserB2q_E7processINtB35_7OutputMNtB35_4EmitB3S_NtB35_8CompleteEEs1_0BX_:
  203|    525|      Some((c, true)) => Ok((i.take_from(c.len()), OM::Output::bind(|| c.as_char()))),
_RNCINvXs_NtCshuHlpjMNnjS_3nom9characterINtB7_7SatisfyNCNvNvNtCsd77JCpXvqG6_15rsonpath_syntax6parser21member_name_shorthand9name_char0NCINvB7_7satisfyBP_ReNtNtBX_5error18InternalParseErrorE0EINtNtB9_8internal6ParserB2q_E7processINtB35_7OutputMNtB35_4EmitB3S_NtB35_8CompleteEEs_0BX_:
  199|    172|          Err(Err::Error(OM::Error::bind(|| (self.make_error)(i))))

_RINvNtCshuHlpjMNnjS_3nom10combinator3cutReNtNtCsd77JCpXvqG6_15rsonpath_syntax5error18InternalParseErrorINtNtB4_6branch6ChoiceTINtNtB4_8internal3MapNvNtBI_6parser17wildcard_selectorNvMsq_BI_NtBI_9Selectors3oneENvB2n_21member_name_shorthandNCINvB2n_14failed_segmentB31_E0EEEBI_:
  801|  39.3k|pub fn cut<I, E: ParseError<I>, F>(
  802|  39.3k|  parser: F,
  803|  39.3k|) -> impl Parser<I, Output = <F as Parser<I>>::Output, Error = E>
  804|  39.3k|where
  805|  39.3k|  F: Parser<I, Error = E>,
  806|       |{
  807|  39.3k|  Cut { parser }
  808|  39.3k|}
_RINvNtCshuHlpjMNnjS_3nom10combinator3cutReNtNtCsd77JCpXvqG6_15rsonpath_syntax5error18InternalParseErrorINtNtB4_6branch6ChoiceTNCNvNtBI_6parser18descendant_segment0INtNtB4_8internal3MapNvB24_17wildcard_selectorNvMsq_BI_NtBI_9Selectors3oneENvB24_21member_name_shorthandNCINvB24_14failed_segmentB3u_E0EEEBI_:
  801|  44.9k|pub fn cut<I, E: ParseError<I>, F>(
  802|  44.9k|  parser: F,
  803|  44.9k|) -> impl Parser<I, Output = <F as Parser<I>>::Output, Error = E>
  804|  44.9k|where
  805|  44.9k|  F: Parser<I, Error = E>,
  806|       |{
  807|  44.9k|  Cut { parser }
  808|  44.9k|}
_RINvNtCshuHlpjMNnjS_3nom10combinator3cutReNtNtCsd77JCpXvqG6_15rsonpath_syntax5error18InternalParseErrorNCNvNvNtBI_6parser12logical_expr12parse_single0EBI_:
  801|  14.0k|pub fn cut<I, E: ParseError<I>, F>(
  802|  14.0k|  parser: F,
  803|  14.0k|) -> impl Parser<I, Output = <F as Parser<I>>::Output, Error = E>
  804|  14.0k|where
  805|  14.0k|  F: Parser<I, Error = E>,
  806|       |{
  807|  14.0k|  Cut { parser }
  808|  14.0k|}
_RINvNtCshuHlpjMNnjS_3nom10combinator3mapReNtCsd77JCpXvqG6_15rsonpath_syntax7SegmentNtNtBG_5error18InternalParseErrorINtNtB4_6branch6ChoiceTNCNvNtBG_6parser13child_segment0INtNtB4_8sequence8PrecededNCINvNtNtB4_9character8complete4charBC_B1j_E0INtB2_3CutIB1R_TINtNtB4_8internal3MapNvB2h_17wildcard_selectorNvMsq_BG_NtBG_9Selectors3oneENvB2h_21member_name_shorthandNCINvB2h_14failed_segmentB51_E0EEEEEENcNtBE_5Child0EBG_:
   74|  39.3k|pub fn map<I, O, E: ParseError<I>, F, G>(parser: F, f: G) -> impl Parser<I, Output = O, Error = E>
   75|  39.3k|where
   76|  39.3k|  F: Parser<I, Error = E>,
   77|  39.3k|  G: FnMut(<F as Parser<I>>::Output) -> O,
   78|       |{
   79|  39.3k|  parser.map(f)
   80|  39.3k|}
_RINvNtCshuHlpjMNnjS_3nom10combinator3mapReNtCsd77JCpXvqG6_15rsonpath_syntax7SegmentNtNtBG_5error18InternalParseErrorINtNtB4_8sequence8PrecededNCINvNtNtB4_5bytes8complete3tagBC_BC_B1j_E0INtB2_3CutINtNtB4_6branch6ChoiceTNCNvNtBG_6parser18descendant_segment0INtNtB4_8internal3MapNvB3y_17wildcard_selectorNvMsq_BG_NtBG_9Selectors3oneENvB3y_21member_name_shorthandNCINvB3y_14failed_segmentB4Y_E0EEEENcNtBE_10Descendant0EBG_:
   74|  44.9k|pub fn map<I, O, E: ParseError<I>, F, G>(parser: F, f: G) -> impl Parser<I, Output = O, Error = E>
   75|  44.9k|where
   76|  44.9k|  F: Parser<I, Error = E>,
   77|  44.9k|  G: FnMut(<F as Parser<I>>::Output) -> O,
   78|       |{
   79|  44.9k|  parser.map(f)
   80|  44.9k|}
_RINvNtCshuHlpjMNnjS_3nom10combinator3mapReNtCsd77JCpXvqG6_15rsonpath_syntax8SelectorNtNtBG_5error18InternalParseErrorNCINvNtNtB4_5bytes8complete3tagBC_BC_B1k_E0NCNvNtBG_6parser17wildcard_selector0EBG_:
   74|  65.2k|pub fn map<I, O, E: ParseError<I>, F, G>(parser: F, f: G) -> impl Parser<I, Output = O, Error = E>
   75|  65.2k|where
   76|  65.2k|  F: Parser<I, Error = E>,
   77|  65.2k|  G: FnMut(<F as Parser<I>>::Output) -> O,
   78|       |{
   79|  65.2k|  parser.map(f)
   80|  65.2k|}
_RINvNtCshuHlpjMNnjS_3nom10combinator3mapReNtCsd77JCpXvqG6_15rsonpath_syntax8SelectorNtNtBG_5error18InternalParseErrorNvNtBG_6parser14string_literalNcNtBE_4Name0EBG_:
   74|  51.1k|pub fn map<I, O, E: ParseError<I>, F, G>(parser: F, f: G) -> impl Parser<I, Output = O, Error = E>
   75|  51.1k|where
   76|  51.1k|  F: Parser<I, Error = E>,
   77|  51.1k|  G: FnMut(<F as Parser<I>>::Output) -> O,
   78|       |{
   79|  51.1k|  parser.map(f)
   80|  51.1k|}
_RINvNtCshuHlpjMNnjS_3nom10combinator3mapReNtCsd77JCpXvqG6_15rsonpath_syntax9SelectorsNtNtBG_5error18InternalParseErrorINtNtB4_8sequence8PrecededINtB2_4PeekNvNvNtBG_6parser21member_name_shorthand10name_firstEINtNtB4_5multi9FoldMany0NvB2v_9name_charNCB2v_0NvMs_NtBG_3strNtB49_17JsonStringBuilder3newB4i_EENCB2v_s_0EBG_:
   74|  13.4k|pub fn map<I, O, E: ParseError<I>, F, G>(parser: F, f: G) -> impl Parser<I, Output = O, Error = E>
   75|  13.4k|where
   76|  13.4k|  F: Parser<I, Error = E>,
   77|  13.4k|  G: FnMut(<F as Parser<I>>::Output) -> O,
   78|       |{
   79|  13.4k|  parser.map(f)
   80|  13.4k|}
_RINvNtCshuHlpjMNnjS_3nom10combinator3mapReNtCsd77JCpXvqG6_15rsonpath_syntax9SelectorsNtNtBG_5error18InternalParseErrorNvNtBG_6parser17wildcard_selectorNvMsq_BG_BE_3oneEBG_:
   74|  84.3k|pub fn map<I, O, E: ParseError<I>, F, G>(parser: F, f: G) -> impl Parser<I, Output = O, Error = E>
   75|  84.3k|where
   76|  84.3k|  F: Parser<I, Error = E>,
   77|  84.3k|  G: FnMut(<F as Parser<I>>::Output) -> O,
   78|       |{
   79|  84.3k|  parser.map(f)
   80|  84.3k|}
_RINvNtCshuHlpjMNnjS_3nom10combinator3mapReNtNtCsd77JCpXvqG6_15rsonpath_syntax3num10JsonNumberNtNtBI_5error18InternalParseErrorNvNtBI_6parser5floatNCNvB22_6number0EBI_:
   74|  39.3k|pub fn map<I, O, E: ParseError<I>, F, G>(parser: F, f: G) -> impl Parser<I, Output = O, Error = E>
   75|  39.3k|where
   76|  39.3k|  F: Parser<I, Error = E>,
   77|  39.3k|  G: FnMut(<F as Parser<I>>::Output) -> O,
   78|       |{
   79|  39.3k|  parser.map(f)
   80|  39.3k|}
_RINvNtCshuHlpjMNnjS_3nom10combinator3optReNtNtCsd77JCpXvqG6_15rsonpath_syntax5error18InternalParseErrorINtNtB4_6branch6ChoiceTNCINvNtNtB4_9character8complete4charBC_BE_E0B20_EEEBI_:
  216|  39.5k|pub fn opt<I: Clone, E: ParseError<I>, F>(
  217|  39.5k|  f: F,
  218|  39.5k|) -> impl Parser<I, Output = Option<<F as Parser<I>>::Output>, Error = E>
  219|  39.5k|where
  220|  39.5k|  F: Parser<I, Error = E>,
  221|       |{
  222|  39.5k|  Opt { parser: f }
  223|  39.5k|}
_RINvNtCshuHlpjMNnjS_3nom10combinator3optReNtNtCsd77JCpXvqG6_15rsonpath_syntax5error18InternalParseErrorINtNtB4_8sequence8PrecededNCINvNtNtB4_5bytes8complete11tag_no_caseBC_BC_BE_E0IB1E_INtB2_3OptINtNtB4_6branch6ChoiceTNCINvNtNtB4_9character8complete4charBC_BE_E0B3u_EEEINvB3z_6digit1BC_BE_EEEEBI_:
  216|  39.5k|pub fn opt<I: Clone, E: ParseError<I>, F>(
  217|  39.5k|  f: F,
  218|  39.5k|) -> impl Parser<I, Output = Option<<F as Parser<I>>::Output>, Error = E>
  219|  39.5k|where
  220|  39.5k|  F: Parser<I, Error = E>,
  221|       |{
  222|  39.5k|  Opt { parser: f }
  223|  39.5k|}
_RINvNtCshuHlpjMNnjS_3nom10combinator3optReNtNtCsd77JCpXvqG6_15rsonpath_syntax5error18InternalParseErrorINtNtB4_8sequence8PrecededNCINvNtNtB4_9character8complete4charBC_BE_E0INvB28_6digit1BC_BE_EEEBI_:
  216|  39.5k|pub fn opt<I: Clone, E: ParseError<I>, F>(
  217|  39.5k|  f: F,
  218|  39.5k|) -> impl Parser<I, Output = Option<<F as Parser<I>>::Output>, Error = E>
  219|  39.5k|where
  220|  39.5k|  F: Parser<I, Error = E>,
  221|       |{
  222|  39.5k|  Opt { parser: f }
  223|  39.5k|}
_RINvNtCshuHlpjMNnjS_3nom10combinator3optReNtNtCsd77JCpXvqG6_15rsonpath_syntax5error18InternalParseErrorNCINvNtBI_6parser17ignore_whitespaceBC_NvB1I_3intBE_E0EBI_:
  216|  10.8k|pub fn opt<I: Clone, E: ParseError<I>, F>(
  217|  10.8k|  f: F,
  218|  10.8k|) -> impl Parser<I, Output = Option<<F as Parser<I>>::Output>, Error = E>
  219|  10.8k|where
  220|  10.8k|  F: Parser<I, Error = E>,
  221|       |{
  222|  10.8k|  Opt { parser: f }
  223|  10.8k|}
_RINvNtCshuHlpjMNnjS_3nom10combinator3optReNtNtCsd77JCpXvqG6_15rsonpath_syntax5error18InternalParseErrorNCINvNtBI_6parser17ignore_whitespaceINtNtCs6SNw0SRvItZ_4core6option6OptionBC_EINtNtB4_8sequence8PrecededNCINvNtNtB4_9character8complete4charBC_BE_E0INtB2_3OptNCIB1G_BC_NvB1I_3intBE_E0EEBE_E0EBI_:
  216|  4.97k|pub fn opt<I: Clone, E: ParseError<I>, F>(
  217|  4.97k|  f: F,
  218|  4.97k|) -> impl Parser<I, Output = Option<<F as Parser<I>>::Output>, Error = E>
  219|  4.97k|where
  220|  4.97k|  F: Parser<I, Error = E>,
  221|       |{
  222|  4.97k|  Opt { parser: f }
  223|  4.97k|}
_RINvNtCshuHlpjMNnjS_3nom10combinator3optReNtNtCsd77JCpXvqG6_15rsonpath_syntax5error18InternalParseErrorNCINvNtBI_6parser17ignore_whitespaceNtNvB1I_12logical_expr9BooleanOpINtNtB4_6branch6ChoiceTINtNtB4_8internal3MapNCINvNtNtB4_5bytes8complete3tagBC_BC_BE_E0NCINvB2_5valueBC_B2d_BE_B3r_E0EB36_EEBE_E0EBI_:
  216|  16.1k|pub fn opt<I: Clone, E: ParseError<I>, F>(
  217|  16.1k|  f: F,
  218|  16.1k|) -> impl Parser<I, Output = Option<<F as Parser<I>>::Output>, Error = E>
  219|  16.1k|where
  220|  16.1k|  F: Parser<I, Error = E>,
  221|       |{
  222|  16.1k|  Opt { parser: f }
  223|  16.1k|}
_RINvNtCshuHlpjMNnjS_3nom10combinator3optReNtNtCsd77JCpXvqG6_15rsonpath_syntax5error18InternalParseErrorNCINvNtNtB4_9character8complete4charBC_BE_E0EBI_:
  216|  44.3k|pub fn opt<I: Clone, E: ParseError<I>, F>(
  217|  44.3k|  f: F,
  218|  44.3k|) -> impl Parser<I, Output = Option<<F as Parser<I>>::Output>, Error = E>
  219|  44.3k|where
  220|  44.3k|  F: Parser<I, Error = E>,
  221|       |{
  222|  44.3k|  Opt { parser: f }
  223|  44.3k|}
_RINvNtCshuHlpjMNnjS_3nom10combinator3optReNtNtCsd77JCpXvqG6_15rsonpath_syntax5error18InternalParseErrorNvNtBI_6parser3intEBI_:
  216|  47.5k|pub fn opt<I: Clone, E: ParseError<I>, F>(
  217|  47.5k|  f: F,
  218|  47.5k|) -> impl Parser<I, Output = Option<<F as Parser<I>>::Output>, Error = E>
  219|  47.5k|where
  220|  47.5k|  F: Parser<I, Error = E>,
  221|       |{
  222|  47.5k|  Opt { parser: f }
  223|  47.5k|}
_RINvNtCshuHlpjMNnjS_3nom10combinator4intoReNtCsd77JCpXvqG6_15rsonpath_syntax11LogicalExprNtBH_8SelectorNtNtBH_5error18InternalParseErrorB1D_INtNtB4_8sequence8PrecededNCINvNtNtB4_9character8complete4charBD_B1D_E0NCINvNtBH_6parser17ignore_whitespaceBF_NCNvB3s_15filter_selector0B1D_E0EEBH_:
  859|  33.5k|pub fn into<I, O1, O2, E1, E2, F>(parser: F) -> impl Parser<I, Output = O2, Error = E2>
  860|  33.5k|where
  861|  33.5k|  O2: From<O1>,
  862|  33.5k|  E2: From<E1>,
  863|  33.5k|  E1: ParseError<I>,
  864|  33.5k|  E2: ParseError<I>,
  865|  33.5k|  F: Parser<I, Output = O1, Error = E1>,
  866|       |{
  867|  33.5k|  parser.into::<O2, E2>()
  868|  33.5k|}
_RINvNtCshuHlpjMNnjS_3nom10combinator4intoReNtCsd77JCpXvqG6_15rsonpath_syntax7LiteralNtBH_10ComparableNtNtBH_5error18InternalParseErrorB1B_NvNtBH_6parser7literalEBH_:
  859|  8.96k|pub fn into<I, O1, O2, E1, E2, F>(parser: F) -> impl Parser<I, Output = O2, Error = E2>
  860|  8.96k|where
  861|  8.96k|  O2: From<O1>,
  862|  8.96k|  E2: From<E1>,
  863|  8.96k|  E1: ParseError<I>,
  864|  8.96k|  E2: ParseError<I>,
  865|  8.96k|  F: Parser<I, Output = O1, Error = E1>,
  866|       |{
  867|  8.96k|  parser.into::<O2, E2>()
  868|  8.96k|}
_RINvNtCshuHlpjMNnjS_3nom10combinator4intoReNtNtCsd77JCpXvqG6_15rsonpath_syntax3num10JsonNumberNtBJ_7LiteralNtNtBJ_5error18InternalParseErrorB1H_NvNtBJ_6parser6numberEBJ_:
  859|  39.3k|pub fn into<I, O1, O2, E1, E2, F>(parser: F) -> impl Parser<I, Output = O2, Error = E2>
  860|  39.3k|where
  861|  39.3k|  O2: From<O1>,
  862|  39.3k|  E2: From<E1>,
  863|  39.3k|  E1: ParseError<I>,
  864|  39.3k|  E2: ParseError<I>,
  865|  39.3k|  F: Parser<I, Output = O1, Error = E1>,
  866|       |{
  867|  39.3k|  parser.into::<O2, E2>()
  868|  39.3k|}
_RINvNtCshuHlpjMNnjS_3nom10combinator4intoReNtNtCsd77JCpXvqG6_15rsonpath_syntax3str10JsonStringNtBJ_7LiteralNtNtBJ_5error18InternalParseErrorB1H_NvNtBJ_6parser14string_literalEBJ_:
  859|  39.3k|pub fn into<I, O1, O2, E1, E2, F>(parser: F) -> impl Parser<I, Output = O2, Error = E2>
  860|  39.3k|where
  861|  39.3k|  O2: From<O1>,
  862|  39.3k|  E2: From<E1>,
  863|  39.3k|  E1: ParseError<I>,
  864|  39.3k|  E2: ParseError<I>,
  865|  39.3k|  F: Parser<I, Output = O1, Error = E1>,
  866|       |{
  867|  39.3k|  parser.into::<O2, E2>()
  868|  39.3k|}
_RINvNtCshuHlpjMNnjS_3nom10combinator4peekReNCINvNtNtB4_9character8complete4charBD_uE0ECsd77JCpXvqG6_15rsonpath_syntax:
  319|  3.23k|pub fn peek<I: Clone, F>(
  320|  3.23k|  parser: F,
  321|  3.23k|) -> impl Parser<I, Output = <F as Parser<I>>::Output, Error = <F as Parser<I>>::Error>
  322|  3.23k|where
  323|  3.23k|  F: Parser<I>,
  324|       |{
  325|  3.23k|  Peek { parser }
  326|  3.23k|}
_RINvNtCshuHlpjMNnjS_3nom10combinator4peekReNCINvNtNtB4_9character8complete6one_ofBD_BD_uE0ECsd77JCpXvqG6_15rsonpath_syntax:
  319|  43.4k|pub fn peek<I: Clone, F>(
  320|  43.4k|  parser: F,
  321|  43.4k|) -> impl Parser<I, Output = <F as Parser<I>>::Output, Error = <F as Parser<I>>::Error>
  322|  43.4k|where
  323|  43.4k|  F: Parser<I>,
  324|       |{
  325|  43.4k|  Peek { parser }
  326|  43.4k|}
_RINvNtCshuHlpjMNnjS_3nom10combinator4peekReNvNvNtCsd77JCpXvqG6_15rsonpath_syntax6parser21member_name_shorthand10name_firstEBL_:
  319|  13.4k|pub fn peek<I: Clone, F>(
  320|  13.4k|  parser: F,
  321|  13.4k|) -> impl Parser<I, Output = <F as Parser<I>>::Output, Error = <F as Parser<I>>::Error>
  322|  13.4k|where
  323|  13.4k|  F: Parser<I>,
  324|       |{
  325|  13.4k|  Peek { parser }
  326|  13.4k|}
_RINvNtCshuHlpjMNnjS_3nom10combinator5valueReNtCsd77JCpXvqG6_15rsonpath_syntax12ComparisonOpNtNtBI_5error18InternalParseErrorNCINvNtNtB4_5bytes8complete3tagBE_BE_B1r_E0EBI_:
  560|  81.5k|pub fn value<I, O1: Clone, E: ParseError<I>, F>(
  561|  81.5k|  val: O1,
  562|  81.5k|  parser: F,
  563|  81.5k|) -> impl Parser<I, Output = O1, Error = E>
  564|  81.5k|where
  565|  81.5k|  F: Parser<I, Error = E>,
  566|       |{
  567|  81.5k|  parser.map(move |_| val.clone())
  568|  81.5k|}
_RINvNtCshuHlpjMNnjS_3nom10combinator5valueReNtCsd77JCpXvqG6_15rsonpath_syntax12ComparisonOpNtNtBI_5error18InternalParseErrorNCINvNtNtB4_9character8complete4charBE_B1r_E0EBI_:
  560|  40.7k|pub fn value<I, O1: Clone, E: ParseError<I>, F>(
  561|  40.7k|  val: O1,
  562|  40.7k|  parser: F,
  563|  40.7k|) -> impl Parser<I, Output = O1, Error = E>
  564|  40.7k|where
  565|  40.7k|  F: Parser<I, Error = E>,
  566|       |{
  567|  40.7k|  parser.map(move |_| val.clone())
  568|  40.7k|}
_RINvNtCshuHlpjMNnjS_3nom10combinator5valueReNtCsd77JCpXvqG6_15rsonpath_syntax7LiteralNtNtBI_5error18InternalParseErrorNCINvNtNtB4_5bytes8complete3tagBE_BE_B1l_E0EBI_:
  560|   117k|pub fn value<I, O1: Clone, E: ParseError<I>, F>(
  561|   117k|  val: O1,
  562|   117k|  parser: F,
  563|   117k|) -> impl Parser<I, Output = O1, Error = E>
  564|   117k|where
  565|   117k|  F: Parser<I, Error = E>,
  566|       |{
  567|   117k|  parser.map(move |_| val.clone())
  568|   117k|}
_RINvNtCshuHlpjMNnjS_3nom10combinator5valueReNtNtCsd77JCpXvqG6_15rsonpath_syntax6parser16RootSelectorTypeNtNtBK_5error18InternalParseErrorNCINvNtNtB4_9character8complete4charBE_B1E_E0EBK_:
  560|  56.5k|pub fn value<I, O1: Clone, E: ParseError<I>, F>(
  561|  56.5k|  val: O1,
  562|  56.5k|  parser: F,
  563|  56.5k|) -> impl Parser<I, Output = O1, Error = E>
  564|  56.5k|where
  565|  56.5k|  F: Parser<I, Error = E>,
  566|       |{
  567|  56.5k|  parser.map(move |_| val.clone())
  568|  56.5k|}
_RINvNtCshuHlpjMNnjS_3nom10combinator5valueReNtNvNtCsd77JCpXvqG6_15rsonpath_syntax6parser12logical_expr9BooleanOpNtNtBM_5error18InternalParseErrorNCINvNtNtB4_5bytes8complete3tagBE_BE_B1M_E0EBM_:
  560|  32.3k|pub fn value<I, O1: Clone, E: ParseError<I>, F>(
  561|  32.3k|  val: O1,
  562|  32.3k|  parser: F,
  563|  32.3k|) -> impl Parser<I, Output = O1, Error = E>
  564|  32.3k|where
  565|  32.3k|  F: Parser<I, Error = E>,
  566|       |{
  567|  32.3k|  parser.map(move |_| val.clone())
  568|  32.3k|}
_RINvNtCshuHlpjMNnjS_3nom10combinator9recognizeReNtNtCsd77JCpXvqG6_15rsonpath_syntax5error18InternalParseErrorINtNtB4_6branch6ChoiceTINtNtB4_8sequence8PrecededNCINvNtNtB4_9character8complete4charBI_BK_E0INvB2B_6digit1BI_BK_EEB3e_EEEBO_:
  631|  95.4k|pub fn recognize<I: Clone + Offset + Input, E: ParseError<I>, F>(
  632|  95.4k|  parser: F,
  633|  95.4k|) -> impl Parser<I, Output = I, Error = E>
  634|  95.4k|where
  635|  95.4k|  F: Parser<I, Error = E>,
  636|       |{
  637|  95.4k|  Recognize { parser }
  638|  95.4k|}
_RINvNtCshuHlpjMNnjS_3nom10combinator9recognizeReNtNtCsd77JCpXvqG6_15rsonpath_syntax5error18InternalParseErrorINtNtB4_6branch6ChoiceTINtNtB4_8sequence8PrecededNCINvNtNtB4_9character8complete4charBI_BK_E0NvNvNtBO_6parser5float10base_floatEB3e_EEEBO_:
  631|  39.3k|pub fn recognize<I: Clone + Offset + Input, E: ParseError<I>, F>(
  632|  39.3k|  parser: F,
  633|  39.3k|) -> impl Parser<I, Output = I, Error = E>
  634|  39.3k|where
  635|  39.3k|  F: Parser<I, Error = E>,
  636|       |{
  637|  39.3k|  Recognize { parser }
  638|  39.3k|}
_RINvNtCshuHlpjMNnjS_3nom10combinator9recognizeReNtNtCsd77JCpXvqG6_15rsonpath_syntax5error18InternalParseErrorTINvNtNtB4_9character8complete6digit1BI_BK_EINtB2_3OptINtNtB4_8sequence8PrecededNCINvB1N_4charBI_BK_E0B1K_EEIB2s_IB2C_NCINvNtNtB4_5bytes8complete11tag_no_caseBI_BI_BK_E0IB2C_IB2s_INtNtB4_6branch6ChoiceTB31_B31_EEEB1K_EEEEEBO_:
  631|  39.5k|pub fn recognize<I: Clone + Offset + Input, E: ParseError<I>, F>(
  632|  39.5k|  parser: F,
  633|  39.5k|) -> impl Parser<I, Output = I, Error = E>
  634|  39.5k|where
  635|  39.5k|  F: Parser<I, Error = E>,
  636|       |{
  637|  39.5k|  Recognize { parser }
  638|  39.5k|}
_RINvXNtCshuHlpjMNnjS_3nom10combinatorINtB3_3OptINtNtB5_6branch6ChoiceTNCINvNtNtB5_9character8complete4charReNtNtCsd77JCpXvqG6_15rsonpath_syntax5error18InternalParseErrorE0B16_EEEINtNtB5_8internal6ParserB1G_E7processINtB2T_7OutputMNtB2T_5CheckB3G_NtB2T_9StreamingEEB1M_:
  239|  1.59k|  fn process<OM: OutputMode>(&mut self, input: I) -> PResult<OM, I, Self::Output, Self::Error> {
  240|  1.59k|    let i = input.clone();
  241|  1.59k|    match self
  242|  1.59k|      .parser
  243|  1.59k|      .process::<OutputM<OM::Output, Check, OM::Incomplete>>(input)
  244|       |    {
  245|    576|      Ok((i, o)) => Ok((i, OM::Output::map(o, Some))),
  246|  1.02k|      Err(Err::Error(_)) => Ok((i, OM::Output::bind(|| None))),
  247|      0|      Err(Err::Failure(e)) => Err(Err::Failure(e)),
  248|      0|      Err(Err::Incomplete(i)) => Err(Err::Incomplete(i)),
  249|       |    }
  250|  1.59k|  }
_RINvXNtCshuHlpjMNnjS_3nom10combinatorINtB3_3OptINtNtB5_8sequence8PrecededNCINvNtNtB5_5bytes8complete11tag_no_caseReB1N_NtNtCsd77JCpXvqG6_15rsonpath_syntax5error18InternalParseErrorE0IBK_IBA_INtNtB5_6branch6ChoiceTNCINvNtNtB5_9character8complete4charB1N_B1T_E0B3p_EEEINvB3u_6digit1B1N_B1T_EEEEINtNtB5_8internal6ParserB1N_E7processINtB4J_7OutputMNtB4J_4EmitB5w_NtB4J_9StreamingEEB1X_:
  239|  9.80k|  fn process<OM: OutputMode>(&mut self, input: I) -> PResult<OM, I, Self::Output, Self::Error> {
  240|  9.80k|    let i = input.clone();
  241|  9.80k|    match self
  242|  9.80k|      .parser
  243|  9.80k|      .process::<OutputM<OM::Output, Check, OM::Incomplete>>(input)
  244|       |    {
  245|  1.05k|      Ok((i, o)) => Ok((i, OM::Output::map(o, Some))),
  246|  8.75k|      Err(Err::Error(_)) => Ok((i, OM::Output::bind(|| None))),
  247|      0|      Err(Err::Failure(e)) => Err(Err::Failure(e)),
  248|      0|      Err(Err::Incomplete(i)) => Err(Err::Incomplete(i)),
  249|       |    }
  250|  9.80k|  }
_RINvXNtCshuHlpjMNnjS_3nom10combinatorINtB3_3OptINtNtB5_8sequence8PrecededNCINvNtNtB5_9character8complete4charReNtNtCsd77JCpXvqG6_15rsonpath_syntax5error18InternalParseErrorE0INvB1e_6digit1B1J_B1L_EEEINtNtB5_8internal6ParserB1J_E7processINtB3e_7OutputMNtB3e_4EmitB41_NtB3e_9StreamingEEB1P_:
  239|  9.80k|  fn process<OM: OutputMode>(&mut self, input: I) -> PResult<OM, I, Self::Output, Self::Error> {
  240|  9.80k|    let i = input.clone();
  241|  9.80k|    match self
  242|  9.80k|      .parser
  243|  9.80k|      .process::<OutputM<OM::Output, Check, OM::Incomplete>>(input)
  244|       |    {
  245|  1.35k|      Ok((i, o)) => Ok((i, OM::Output::map(o, Some))),
  246|  8.45k|      Err(Err::Error(_)) => Ok((i, OM::Output::bind(|| None))),
  247|      0|      Err(Err::Failure(e)) => Err(Err::Failure(e)),
  248|      0|      Err(Err::Incomplete(i)) => Err(Err::Incomplete(i)),
  249|       |    }
  250|  9.80k|  }
_RINvXNtCshuHlpjMNnjS_3nom10combinatorINtB3_3OptNCINvNtCsd77JCpXvqG6_15rsonpath_syntax6parser17ignore_whitespaceINtNtCs6SNw0SRvItZ_4core6option6OptionReEINtNtB5_8sequence8PrecededNCINvNtNtB5_9character8complete4charB2n_NtNtBQ_5error18InternalParseErrorE0IBA_NCIBM_B2n_NvBO_3intB3u_E0EEB3u_E0EINtNtB5_8internal6ParserB2n_E7processINtB4I_7OutputMNtB4I_4EmitB5v_NtB4I_9StreamingEEBQ_:
  239|  4.97k|  fn process<OM: OutputMode>(&mut self, input: I) -> PResult<OM, I, Self::Output, Self::Error> {
  240|  4.97k|    let i = input.clone();
  241|  4.97k|    match self
  242|  4.97k|      .parser
  243|  4.97k|      .process::<OutputM<OM::Output, Check, OM::Incomplete>>(input)
  244|       |    {
  245|  2.12k|      Ok((i, o)) => Ok((i, OM::Output::map(o, Some))),
  246|  2.64k|      Err(Err::Error(_)) => Ok((i, OM::Output::bind(|| None))),
  247|    209|      Err(Err::Failure(e)) => Err(Err::Failure(e)),
  248|      0|      Err(Err::Incomplete(i)) => Err(Err::Incomplete(i)),
  249|       |    }
  250|  4.97k|  }
_RINvXNtCshuHlpjMNnjS_3nom10combinatorINtB3_3OptNCINvNtCsd77JCpXvqG6_15rsonpath_syntax6parser17ignore_whitespaceNtNvBO_12logical_expr9BooleanOpINtNtB5_6branch6ChoiceTINtNtB5_8internal3MapNCINvNtNtB5_5bytes8complete3tagReB3t_NtNtBQ_5error18InternalParseErrorE0NCINvB3_5valueB3t_B1L_B3z_B2Y_E0EB2D_EEB3z_E0EINtB2G_6ParserB3t_E7processINtB2G_7OutputMNtB2G_4EmitB5y_NtB2G_9StreamingEEBQ_:
  239|  16.1k|  fn process<OM: OutputMode>(&mut self, input: I) -> PResult<OM, I, Self::Output, Self::Error> {
  240|  16.1k|    let i = input.clone();
  241|  16.1k|    match self
  242|  16.1k|      .parser
  243|  16.1k|      .process::<OutputM<OM::Output, Check, OM::Incomplete>>(input)
  244|       |    {
  245|  3.82k|      Ok((i, o)) => Ok((i, OM::Output::map(o, Some))),
  246|  12.3k|      Err(Err::Error(_)) => Ok((i, OM::Output::bind(|| None))),
  247|      0|      Err(Err::Failure(e)) => Err(Err::Failure(e)),
  248|      0|      Err(Err::Incomplete(i)) => Err(Err::Incomplete(i)),
  249|       |    }
  250|  16.1k|  }
_RINvXNtCshuHlpjMNnjS_3nom10combinatorINtB3_3OptNCINvNtCsd77JCpXvqG6_15rsonpath_syntax6parser17ignore_whitespaceReNvBO_3intNtNtBQ_5error18InternalParseErrorE0EINtNtB5_8internal6ParserB1L_E7processINtB2z_7OutputMNtB2z_4EmitB3m_NtB2z_9StreamingEEBQ_:
  239|  8.20k|  fn process<OM: OutputMode>(&mut self, input: I) -> PResult<OM, I, Self::Output, Self::Error> {
  240|  8.20k|    let i = input.clone();
  241|  8.20k|    match self
  242|  8.20k|      .parser
  243|  8.20k|      .process::<OutputM<OM::Output, Check, OM::Incomplete>>(input)
  244|       |    {
  245|  2.59k|      Ok((i, o)) => Ok((i, OM::Output::map(o, Some))),
  246|  5.02k|      Err(Err::Error(_)) => Ok((i, OM::Output::bind(|| None))),
  247|    594|      Err(Err::Failure(e)) => Err(Err::Failure(e)),
  248|      0|      Err(Err::Incomplete(i)) => Err(Err::Incomplete(i)),
  249|       |    }
  250|  8.20k|  }
_RINvXNtCshuHlpjMNnjS_3nom10combinatorINtB3_3OptNCINvNtNtB5_9character8complete4charReNtNtCsd77JCpXvqG6_15rsonpath_syntax5error18InternalParseErrorE0EINtNtB5_8internal6ParserB1j_E7processINtB2q_7OutputMNtB2q_4EmitB3d_NtB2q_9StreamingEEB1p_:
  239|  44.3k|  fn process<OM: OutputMode>(&mut self, input: I) -> PResult<OM, I, Self::Output, Self::Error> {
  240|  44.3k|    let i = input.clone();
  241|  44.3k|    match self
  242|  44.3k|      .parser
  243|  44.3k|      .process::<OutputM<OM::Output, Check, OM::Incomplete>>(input)
  244|       |    {
  245|  1.60k|      Ok((i, o)) => Ok((i, OM::Output::map(o, Some))),
  246|  42.7k|      Err(Err::Error(_)) => Ok((i, OM::Output::bind(|| None))),
  247|      0|      Err(Err::Failure(e)) => Err(Err::Failure(e)),
  248|      0|      Err(Err::Incomplete(i)) => Err(Err::Incomplete(i)),
  249|       |    }
  250|  44.3k|  }
_RINvXs0_NtCshuHlpjMNnjS_3nom10combinatorINtB6_4PeekNCINvNtNtB8_9character8complete4charReuE0EINtNtB8_8internal6ParserB1n_E7processINtB1w_7OutputMNtB1w_4EmitB2j_NtB1w_9StreamingEECsd77JCpXvqG6_15rsonpath_syntax:
  341|  3.23k|  fn process<OM: OutputMode>(&mut self, input: I) -> PResult<OM, I, Self::Output, Self::Error> {
  342|  3.23k|    let i = input.clone();
  343|  3.23k|    match self.parser.process::<OM>(input) {
  344|    998|      Ok((_, o)) => Ok((i, o)),
  345|  2.23k|      Err(e) => Err(e),
  346|       |    }
  347|  3.23k|  }
_RINvXs0_NtCshuHlpjMNnjS_3nom10combinatorINtB6_4PeekNCINvNtNtB8_9character8complete6one_ofReB1p_uE0EINtNtB8_8internal6ParserB1p_E7processINtB1C_7OutputMNtB1C_4EmitB2p_NtB1C_9StreamingEECsd77JCpXvqG6_15rsonpath_syntax:
  341|  43.4k|  fn process<OM: OutputMode>(&mut self, input: I) -> PResult<OM, I, Self::Output, Self::Error> {
  342|  43.4k|    let i = input.clone();
  343|  43.4k|    match self.parser.process::<OM>(input) {
  344|  19.0k|      Ok((_, o)) => Ok((i, o)),
  345|  24.3k|      Err(e) => Err(e),
  346|       |    }
  347|  43.4k|  }
_RINvXs0_NtCshuHlpjMNnjS_3nom10combinatorINtB6_4PeekNvNvNtCsd77JCpXvqG6_15rsonpath_syntax6parser21member_name_shorthand10name_firstEINtNtB8_8internal6ParserReE7processINtB28_7OutputMNtB28_5CheckNtB28_4EmitNtB28_9StreamingEEBT_:
  341|  13.4k|  fn process<OM: OutputMode>(&mut self, input: I) -> PResult<OM, I, Self::Output, Self::Error> {
  342|  13.4k|    let i = input.clone();
  343|  13.4k|    match self.parser.process::<OM>(input) {
  344|  6.16k|      Ok((_, o)) => Ok((i, o)),
  345|  7.31k|      Err(e) => Err(e),
  346|       |    }
  347|  13.4k|  }
_RINvXs5_NtCshuHlpjMNnjS_3nom10combinatorINtB6_9RecognizeINtNtB8_6branch6ChoiceTINtNtB8_8sequence8PrecededNCINvNtNtB8_9character8complete4charReNtNtCsd77JCpXvqG6_15rsonpath_syntax5error18InternalParseErrorE0INvB1K_6digit1B2f_B2h_EEB3i_EEEINtNtB8_8internal6ParserB2f_E7processINtB3Q_7OutputMNtB3Q_4EmitB4D_NtB3Q_9StreamingEEB2l_:
  654|  95.4k|  fn process<OM: OutputMode>(&mut self, input: I) -> PResult<OM, I, Self::Output, Self::Error> {
  655|  95.4k|    let i = input.clone();
  656|  95.4k|    match self
  657|  95.4k|      .parser
  658|  95.4k|      .process::<OutputM<Check, OM::Error, OM::Incomplete>>(i)
  659|       |    {
  660|  18.1k|      Ok((i, _)) => {
  661|  18.1k|        let index = input.offset(&i);
  662|  18.1k|        Ok((i, OM::Output::bind(|| input.take(index))))
  663|       |      }
  664|  77.2k|      Err(e) => Err(e),
  665|       |    }
  666|  95.4k|  }
_RINvXs5_NtCshuHlpjMNnjS_3nom10combinatorINtB6_9RecognizeINtNtB8_6branch6ChoiceTINtNtB8_8sequence8PrecededNCINvNtNtB8_9character8complete4charReNtNtCsd77JCpXvqG6_15rsonpath_syntax5error18InternalParseErrorE0NvNvNtB2l_6parser5float10base_floatEB3i_EEEINtNtB8_8internal6ParserB2f_E7processINtB42_7OutputMNtB42_4EmitB4P_NtB42_9StreamingEEB2l_:
  654|  39.3k|  fn process<OM: OutputMode>(&mut self, input: I) -> PResult<OM, I, Self::Output, Self::Error> {
  655|  39.3k|    let i = input.clone();
  656|  39.3k|    match self
  657|  39.3k|      .parser
  658|  39.3k|      .process::<OutputM<Check, OM::Error, OM::Incomplete>>(i)
  659|       |    {
  660|  9.80k|      Ok((i, _)) => {
  661|  9.80k|        let index = input.offset(&i);
  662|  9.80k|        Ok((i, OM::Output::bind(|| input.take(index))))
  663|       |      }
  664|  29.5k|      Err(e) => Err(e),
  665|       |    }
  666|  39.3k|  }
_RINvXs5_NtCshuHlpjMNnjS_3nom10combinatorINtB6_9RecognizeTINvNtNtB8_9character8complete6digit1ReNtNtCsd77JCpXvqG6_15rsonpath_syntax5error18InternalParseErrorEINtB6_3OptINtNtB8_8sequence8PrecededNCINvBW_4charB1t_B1v_E0BT_EEIB2w_IB2G_NCINvNtNtB8_5bytes8complete11tag_no_caseB1t_B1t_B1v_E0IB2G_IB2w_INtNtB8_6branch6ChoiceTB35_B35_EEEBT_EEEEEINtNtB8_8internal6ParserB1t_E7processINtB5s_7OutputMNtB5s_4EmitB6f_NtB5s_9StreamingEEB1z_:
  654|  39.5k|  fn process<OM: OutputMode>(&mut self, input: I) -> PResult<OM, I, Self::Output, Self::Error> {
  655|  39.5k|    let i = input.clone();
  656|  39.5k|    match self
  657|  39.5k|      .parser
  658|  39.5k|      .process::<OutputM<Check, OM::Error, OM::Incomplete>>(i)
  659|       |    {
  660|  9.80k|      Ok((i, _)) => {
  661|  9.80k|        let index = input.offset(&i);
  662|  9.80k|        Ok((i, OM::Output::bind(|| input.take(index))))
  663|       |      }
  664|  29.7k|      Err(e) => Err(e),
  665|       |    }
  666|  39.5k|  }
_RINvXs7_NtCshuHlpjMNnjS_3nom10combinatorINtB6_3CutNCNvNvNtCsd77JCpXvqG6_15rsonpath_syntax6parser12logical_expr12parse_single0EINtNtB8_8internal6ParserReE7processINtB23_7OutputMNtB23_4EmitB2O_NtB23_9StreamingEEBU_:
  824|  14.0k|  fn process<OM: OutputMode>(&mut self, input: I) -> PResult<OM, I, Self::Output, Self::Error> {
  825|  14.0k|    match self
  826|  14.0k|      .parser
  827|  14.0k|      .process::<OutputM<OM::Output, Emit, OM::Incomplete>>(input)
  828|       |    {
  829|      0|      Err(Err::Error(e)) => Err(Err::Failure(e)),
  830|  12.8k|      Err(Err::Failure(e)) => Err(Err::Failure(e)),
  831|      0|      Err(Err::Incomplete(i)) => Err(Err::Incomplete(i)),
  832|  1.16k|      Ok((i, o)) => Ok((i, o)),
  833|       |    }
  834|  14.0k|  }
_RNCINvNtCshuHlpjMNnjS_3nom10combinator5valueReNtCsd77JCpXvqG6_15rsonpath_syntax12ComparisonOpNtNtBK_5error18InternalParseErrorNCINvNtNtB6_5bytes8complete3tagBG_BG_B1t_E0E0BK_:
  567|  1.32k|  parser.map(move |_| val.clone())
_RNCINvNtCshuHlpjMNnjS_3nom10combinator5valueReNtCsd77JCpXvqG6_15rsonpath_syntax12ComparisonOpNtNtBK_5error18InternalParseErrorNCINvNtNtB6_9character8complete4charBG_B1t_E0E0BK_:
  567|  7.64k|  parser.map(move |_| val.clone())
_RNCINvNtCshuHlpjMNnjS_3nom10combinator5valueReNtCsd77JCpXvqG6_15rsonpath_syntax7LiteralNtNtBK_5error18InternalParseErrorNCINvNtNtB6_5bytes8complete3tagBG_BG_B1n_E0E0BK_:
  567|    196|  parser.map(move |_| val.clone())
_RNCINvNtCshuHlpjMNnjS_3nom10combinator5valueReNtNtCsd77JCpXvqG6_15rsonpath_syntax6parser16RootSelectorTypeNtNtBM_5error18InternalParseErrorNCINvNtNtB6_9character8complete4charBG_B1G_E0E0BM_:
  567|  25.1k|  parser.map(move |_| val.clone())
_RNCINvNtCshuHlpjMNnjS_3nom10combinator5valueReNtNvNtCsd77JCpXvqG6_15rsonpath_syntax6parser12logical_expr9BooleanOpNtNtBO_5error18InternalParseErrorNCINvNtNtB6_5bytes8complete3tagBG_BG_B1O_E0E0BO_:
  567|  3.82k|  parser.map(move |_| val.clone())
_RNCINvXs5_NtCshuHlpjMNnjS_3nom10combinatorINtB8_9RecognizeINtNtBa_6branch6ChoiceTINtNtBa_8sequence8PrecededNCINvNtNtBa_9character8complete4charReNtNtCsd77JCpXvqG6_15rsonpath_syntax5error18InternalParseErrorE0INvB1M_6digit1B2h_B2j_EEB3k_EEEINtNtBa_8internal6ParserB2h_E7processINtB3S_7OutputMNtB3S_4EmitB4F_NtB3S_9StreamingEE0B2n_:
  662|  18.1k|        Ok((i, OM::Output::bind(|| input.take(index))))
_RNCINvXs5_NtCshuHlpjMNnjS_3nom10combinatorINtB8_9RecognizeINtNtBa_6branch6ChoiceTINtNtBa_8sequence8PrecededNCINvNtNtBa_9character8complete4charReNtNtCsd77JCpXvqG6_15rsonpath_syntax5error18InternalParseErrorE0NvNvNtB2n_6parser5float10base_floatEB3k_EEEINtNtBa_8internal6ParserB2h_E7processINtB44_7OutputMNtB44_4EmitB4R_NtB44_9StreamingEE0B2n_:
  662|  9.80k|        Ok((i, OM::Output::bind(|| input.take(index))))
_RNCINvXs5_NtCshuHlpjMNnjS_3nom10combinatorINtB8_9RecognizeTINvNtNtBa_9character8complete6digit1ReNtNtCsd77JCpXvqG6_15rsonpath_syntax5error18InternalParseErrorEINtB8_3OptINtNtBa_8sequence8PrecededNCINvBY_4charB1v_B1x_E0BV_EEIB2y_IB2I_NCINvNtNtBa_5bytes8complete11tag_no_caseB1v_B1v_B1x_E0IB2I_IB2y_INtNtBa_6branch6ChoiceTB37_B37_EEEBV_EEEEEINtNtBa_8internal6ParserB1v_E7processINtB5u_7OutputMNtB5u_4EmitB6h_NtB5u_9StreamingEE0B1B_:
  662|  9.80k|        Ok((i, OM::Output::bind(|| input.take(index))))
_RINvXs7_NtCshuHlpjMNnjS_3nom10combinatorINtB6_3CutINtNtB8_6branch6ChoiceTINtNtB8_8internal3MapNvNtCsd77JCpXvqG6_15rsonpath_syntax6parser17wildcard_selectorNvMsq_B1y_NtB1y_9Selectors3oneENvB1w_21member_name_shorthandNCINvB1w_14failed_segmentB2D_E0EEEINtB1c_6ParserReE7processINtB1c_7OutputMNtB1c_4EmitB4D_NtB1c_9StreamingEEB1y_:
  824|  11.9k|  fn process<OM: OutputMode>(&mut self, input: I) -> PResult<OM, I, Self::Output, Self::Error> {
  825|  11.9k|    match self
  826|  11.9k|      .parser
  827|  11.9k|      .process::<OutputM<OM::Output, Emit, OM::Incomplete>>(input)
  828|       |    {
  829|      0|      Err(Err::Error(e)) => Err(Err::Failure(e)),
  830|  4.35k|      Err(Err::Failure(e)) => Err(Err::Failure(e)),
  831|      0|      Err(Err::Incomplete(i)) => Err(Err::Incomplete(i)),
  832|  7.56k|      Ok((i, o)) => Ok((i, o)),
  833|       |    }
  834|  11.9k|  }
_RINvXs7_NtCshuHlpjMNnjS_3nom10combinatorINtB6_3CutINtNtB8_6branch6ChoiceTNCNvNtCsd77JCpXvqG6_15rsonpath_syntax6parser18descendant_segment0INtNtB8_8internal3MapNvB1d_17wildcard_selectorNvMsq_B1f_NtB1f_9Selectors3oneENvB1d_21member_name_shorthandNCINvB1d_14failed_segmentB36_E0EEEINtB2f_6ParserReE7processINtB2f_7OutputMNtB2f_4EmitB56_NtB2f_9StreamingEEB1f_:
  824|  5.62k|  fn process<OM: OutputMode>(&mut self, input: I) -> PResult<OM, I, Self::Output, Self::Error> {
  825|  5.62k|    match self
  826|  5.62k|      .parser
  827|  5.62k|      .process::<OutputM<OM::Output, Emit, OM::Incomplete>>(input)
  828|       |    {
  829|      0|      Err(Err::Error(e)) => Err(Err::Failure(e)),
  830|  3.77k|      Err(Err::Failure(e)) => Err(Err::Failure(e)),
  831|      0|      Err(Err::Incomplete(i)) => Err(Err::Incomplete(i)),
  832|  1.84k|      Ok((i, o)) => Ok((i, o)),
  833|       |    }
  834|  5.62k|  }
_RINvXNtCshuHlpjMNnjS_3nom10combinatorINtB3_3OptNvNtCsd77JCpXvqG6_15rsonpath_syntax6parser3intEINtNtB5_8internal6ParserReE7processINtB1x_7OutputMNtB1x_4EmitB2i_NtB1x_9StreamingEEBN_:
  239|  47.5k|  fn process<OM: OutputMode>(&mut self, input: I) -> PResult<OM, I, Self::Output, Self::Error> {
  240|  47.5k|    let i = input.clone();
  241|  47.5k|    match self
  242|  47.5k|      .parser
  243|  47.5k|      .process::<OutputM<OM::Output, Check, OM::Incomplete>>(input)
  244|       |    {
  245|  7.28k|      Ok((i, o)) => Ok((i, OM::Output::map(o, Some))),
  246|  38.7k|      Err(Err::Error(_)) => Ok((i, OM::Output::bind(|| None))),
  247|  1.50k|      Err(Err::Failure(e)) => Err(Err::Failure(e)),
  248|      0|      Err(Err::Incomplete(i)) => Err(Err::Incomplete(i)),
  249|       |    }
  250|  47.5k|  }

_RNvXs_NtCshuHlpjMNnjS_3nom5errorINtB4_5ErrorReEINtB4_10ParseErrorBG_E15from_error_kindCsd77JCpXvqG6_15rsonpath_syntax:
   79|   950k|  fn from_error_kind(input: I, kind: ErrorKind) -> Self {
   80|   950k|    Error { input, code: kind }
   81|   950k|  }
_RNvXs_NtCshuHlpjMNnjS_3nom5errorINtB4_5ErrorReEINtB4_10ParseErrorBG_E6appendCsd77JCpXvqG6_15rsonpath_syntax:
   83|   249k|  fn append(_: I, _: ErrorKind, other: Self) -> Self {
   84|   249k|    other
   85|   249k|  }
_RNvXsd_NtCshuHlpjMNnjS_3nom5erroruINtB5_10ParseErrorReE15from_error_kindCsd77JCpXvqG6_15rsonpath_syntax:
  192|  57.4k|  fn from_error_kind(_: I, _: ErrorKind) -> Self {}
_RNvYINtNtCshuHlpjMNnjS_3nom5error5ErrorReEINtB5_10ParseErrorBB_E9from_charCsd77JCpXvqG6_15rsonpath_syntax:
   32|  75.8k|  fn from_char(input: I, _: char) -> Self {
   33|  75.8k|    Self::from_error_kind(input, ErrorKind::Char)
   34|  75.8k|  }
_RNvYuINtNtCshuHlpjMNnjS_3nom5error10ParseErrorReE9from_charCsd77JCpXvqG6_15rsonpath_syntax:
   32|  33.0k|  fn from_char(input: I, _: char) -> Self {
   33|  33.0k|    Self::from_error_kind(input, ErrorKind::Char)
   34|  33.0k|  }
_RNvYNtNtCsd77JCpXvqG6_15rsonpath_syntax5error18InternalParseErrorINtNtCshuHlpjMNnjS_3nom5error10ParseErrorReE2orB6_:
   38|   379k|  fn or(self, other: Self) -> Self {
   39|   379k|    other
   40|   379k|  }
_RNvYNtNtCsd77JCpXvqG6_15rsonpath_syntax5error18InternalParseErrorINtNtCshuHlpjMNnjS_3nom5error10ParseErrorReE9from_charB6_:
   32|   446k|  fn from_char(input: I, _: char) -> Self {
   33|   446k|    Self::from_error_kind(input, ErrorKind::Char)
   34|   446k|  }

_RNvXNtCshuHlpjMNnjS_3nom8internalINtNtCs6SNw0SRvItZ_4core6result6ResultTReNtCsd77JCpXvqG6_15rsonpath_syntax7SegmentEINtB2_3ErrNtNtB1c_5error18InternalParseErrorEEINtB2_6FinishB18_B1a_B20_E6finishB1c_:
   37|  44.9k|  fn finish(self) -> Result<(I, O), E> {
   38|  30.7k|    match self {
   39|  14.1k|      Ok(res) => Ok(res),
   40|  30.7k|      Err(Err::Error(e)) | Err(Err::Failure(e)) => Err(e),
   41|       |      Err(Err::Incomplete(_)) => {
   42|      0|        panic!("Cannot call `finish()` on `Err(Err::Incomplete(_))`: this result means that the parser does not have enough data to decide, you should gather more data and try to reapply the parser instead")
   43|       |      }
   44|       |    }
   45|  44.9k|  }
_RNvXNtCshuHlpjMNnjS_3nom8internalINtNtCs6SNw0SRvItZ_4core6result6ResultTReNtCsd77JCpXvqG6_15rsonpath_syntax8SelectorEINtB2_3ErrNtNtB1c_5error18InternalParseErrorEEINtB2_6FinishB18_B1a_B21_E6finishB1c_:
   37|  51.1k|  fn finish(self) -> Result<(I, O), E> {
   38|  30.7k|    match self {
   39|  20.4k|      Ok(res) => Ok(res),
   40|  30.7k|      Err(Err::Error(e)) | Err(Err::Failure(e)) => Err(e),
   41|       |      Err(Err::Incomplete(_)) => {
   42|      0|        panic!("Cannot call `finish()` on `Err(Err::Incomplete(_))`: this result means that the parser does not have enough data to decide, you should gather more data and try to reapply the parser instead")
   43|       |      }
   44|       |    }
   45|  51.1k|  }
_RNvXNtCshuHlpjMNnjS_3nom8internalINtNtCs6SNw0SRvItZ_4core6result6ResultTRecEINtB2_3ErrINtNtB4_5error5ErrorB18_EEEINtB2_6FinishB18_cB1m_E6finishCsd77JCpXvqG6_15rsonpath_syntax:
   37|  2.42k|  fn finish(self) -> Result<(I, O), E> {
   38|  2.18k|    match self {
   39|    242|      Ok(res) => Ok(res),
   40|  2.18k|      Err(Err::Error(e)) | Err(Err::Failure(e)) => Err(e),
   41|       |      Err(Err::Incomplete(_)) => {
   42|      0|        panic!("Cannot call `finish()` on `Err(Err::Incomplete(_))`: this result means that the parser does not have enough data to decide, you should gather more data and try to reapply the parser instead")
   43|       |      }
   44|       |    }
   45|  2.42k|  }
_RINvXsa_NtCshuHlpjMNnjS_3nom8internalNtB6_4EmitNtB6_4Mode4bindReNCINvXsf_B6_NCINvNtNtB8_5bytes8complete3tagBY_BY_NtNtCsd77JCpXvqG6_15rsonpath_syntax5error18InternalParseErrorE0INtB6_6ParserBY_E7processINtB6_7OutputMBz_Bz_NtB6_9StreamingEEs_0EB1R_:
  272|  9.66k|  fn bind<T, F: FnOnce() -> T>(f: F) -> Self::Output<T> {
  273|  9.66k|    f()
  274|  9.66k|  }
_RINvXsb_NtCshuHlpjMNnjS_3nom8internalNtB6_5CheckNtB6_4Mode4bindReNCINvXsf_B6_NCINvNtNtB8_5bytes8complete11tag_no_caseBZ_BZ_NtNtCsd77JCpXvqG6_15rsonpath_syntax5error18InternalParseErrorE0INtB6_6ParserBZ_E7processINtB6_7OutputMBz_Bz_NtB6_9StreamingEEs_0EB21_:
  302|  1.59k|  fn bind<T, F: FnOnce() -> T>(_: F) -> Self::Output<T> {}
_RINvXsb_NtCshuHlpjMNnjS_3nom8internalNtB6_5CheckNtB6_4Mode4bindReNCINvXsf_B6_NCINvNtNtB8_5bytes8complete3tagBZ_BZ_NtNtCsd77JCpXvqG6_15rsonpath_syntax5error18InternalParseErrorE0INtB6_6ParserBZ_E7processINtB6_7OutputMBz_NtB6_4EmitNtB6_9StreamingEEs_0EB1S_:
  302|  5.62k|  fn bind<T, F: FnOnce() -> T>(_: F) -> Self::Output<T> {}
_RINvXsf_NtCshuHlpjMNnjS_3nom8internalNCINvNtNtB8_5bytes8complete11tag_no_caseReB1d_NtNtCsd77JCpXvqG6_15rsonpath_syntax5error18InternalParseErrorE0INtB6_6ParserB1d_E7processINtB6_7OutputMNtB6_5CheckB2Y_NtB6_9StreamingEEB1n_:
  516|  9.80k|  fn process<OM: OutputMode>(&mut self, i: I) -> PResult<OM, I, Self::Output, Self::Error> {
  517|  9.80k|    let (i, o) = self(i).map_err(|e| match e {
  518|       |      Err::Incomplete(i) => Err::Incomplete(i),
  519|       |      Err::Error(e) => Err::Error(OM::Error::bind(|| e)),
  520|       |      Err::Failure(e) => Err::Failure(e),
  521|  8.20k|    })?;
  522|  1.59k|    Ok((i, OM::Output::bind(|| o)))
  523|  9.80k|  }
_RINvXsf_NtCshuHlpjMNnjS_3nom8internalNCINvNtNtB8_5bytes8complete3tagReB14_NtNtCsd77JCpXvqG6_15rsonpath_syntax5error18InternalParseErrorE0INtB6_6ParserB14_E7processINtB6_7OutputMNtB6_4EmitB2P_NtB6_9StreamingEEB1e_:
  516|   261k|  fn process<OM: OutputMode>(&mut self, i: I) -> PResult<OM, I, Self::Output, Self::Error> {
  517|   261k|    let (i, o) = self(i).map_err(|e| match e {
  518|       |      Err::Incomplete(i) => Err::Incomplete(i),
  519|       |      Err::Error(e) => Err::Error(OM::Error::bind(|| e)),
  520|       |      Err::Failure(e) => Err::Failure(e),
  521|   251k|    })?;
  522|  9.66k|    Ok((i, OM::Output::bind(|| o)))
  523|   261k|  }
_RINvXsf_NtCshuHlpjMNnjS_3nom8internalNCINvNtNtB8_5bytes8complete3tagReB14_NtNtCsd77JCpXvqG6_15rsonpath_syntax5error18InternalParseErrorE0INtB6_6ParserB14_E7processINtB6_7OutputMNtB6_5CheckNtB6_4EmitNtB6_9StreamingEEB1e_:
  516|  44.9k|  fn process<OM: OutputMode>(&mut self, i: I) -> PResult<OM, I, Self::Output, Self::Error> {
  517|  44.9k|    let (i, o) = self(i).map_err(|e| match e {
  518|       |      Err::Incomplete(i) => Err::Incomplete(i),
  519|       |      Err::Error(e) => Err::Error(OM::Error::bind(|| e)),
  520|       |      Err::Failure(e) => Err::Failure(e),
  521|  39.3k|    })?;
  522|  5.62k|    Ok((i, OM::Output::bind(|| o)))
  523|  44.9k|  }
_RINvYNCINvNtNtCshuHlpjMNnjS_3nom5bytes8complete3tagReBN_NtNtCsd77JCpXvqG6_15rsonpath_syntax5error18InternalParseErrorE0INtNtBc_8internal6ParserBN_E3mapNCINvNtBc_10combinator5valueBN_NtBW_12ComparisonOpBS_B3_E0B2U_EBW_:
  431|  81.5k|  fn map<G, O2>(self, g: G) -> Map<Self, G>
  432|  81.5k|  where
  433|  81.5k|    G: FnMut(Self::Output) -> O2,
  434|  81.5k|    Self: core::marker::Sized,
  435|       |  {
  436|  81.5k|    Map { f: self, g }
  437|  81.5k|  }
_RINvYNCINvNtNtCshuHlpjMNnjS_3nom5bytes8complete3tagReBN_NtNtCsd77JCpXvqG6_15rsonpath_syntax5error18InternalParseErrorE0INtNtBc_8internal6ParserBN_E3mapNCINvNtBc_10combinator5valueBN_NtBW_7LiteralBS_B3_E0B2U_EBW_:
  431|   117k|  fn map<G, O2>(self, g: G) -> Map<Self, G>
  432|   117k|  where
  433|   117k|    G: FnMut(Self::Output) -> O2,
  434|   117k|    Self: core::marker::Sized,
  435|       |  {
  436|   117k|    Map { f: self, g }
  437|   117k|  }
_RINvYNCINvNtNtCshuHlpjMNnjS_3nom5bytes8complete3tagReBN_NtNtCsd77JCpXvqG6_15rsonpath_syntax5error18InternalParseErrorE0INtNtBc_8internal6ParserBN_E3mapNCINvNtBc_10combinator5valueBN_NtNvNtBW_6parser12logical_expr9BooleanOpBS_B3_E0B2U_EBW_:
  431|  32.3k|  fn map<G, O2>(self, g: G) -> Map<Self, G>
  432|  32.3k|  where
  433|  32.3k|    G: FnMut(Self::Output) -> O2,
  434|  32.3k|    Self: core::marker::Sized,
  435|       |  {
  436|  32.3k|    Map { f: self, g }
  437|  32.3k|  }
_RINvYNCINvNtNtCshuHlpjMNnjS_3nom5bytes8complete3tagReBN_NtNtCsd77JCpXvqG6_15rsonpath_syntax5error18InternalParseErrorE0INtNtBc_8internal6ParserBN_E3mapNCNvNtBW_6parser17wildcard_selector0NtBW_8SelectorEBW_:
  431|  65.2k|  fn map<G, O2>(self, g: G) -> Map<Self, G>
  432|  65.2k|  where
  433|  65.2k|    G: FnMut(Self::Output) -> O2,
  434|  65.2k|    Self: core::marker::Sized,
  435|       |  {
  436|  65.2k|    Map { f: self, g }
  437|  65.2k|  }
_RINvXsB_NtCshuHlpjMNnjS_3nom8internalTINvNtNtB8_9character8complete6digit1ReNtNtCsd77JCpXvqG6_15rsonpath_syntax5error18InternalParseErrorEINtNtB8_10combinator3OptINtNtB8_8sequence8PrecededNCINvBD_4charB1a_B1c_E0BA_EEIB2d_IB2B_NCINvNtNtB8_5bytes8complete11tag_no_caseB1a_B1a_B1c_E0IB2B_IB2d_INtNtB8_6branch6ChoiceTB30_B30_EEEBA_EEEEINtB6_6ParserB1a_E7processINtB6_7OutputMNtB6_5CheckNtB6_4EmitNtB6_9StreamingEEB1g_:
  537|  39.5k|      fn process<OM: OutputMode>(&mut self, i: I) -> PResult<OM, I, Self::Output, Self::Error> {
  538|  39.5k|        let ($(ref mut $parser),+,) = *self;
  539|       |
  540|       |        // FIXME: is there a way to avoid producing the output values?
  541|  9.80k|        $(let(i, $output) = $parser.process::<OutputM<Emit, OM::Error, OM::Incomplete>>(i)?;)+
  542|       |
  543|       |        // ???
  544|  9.80k|        Ok((i, OM::Output::bind(|| ($($output),+,))))
  545|  39.5k|      }
_RINvXsa_NtCshuHlpjMNnjS_3nom8internalNtB6_4EmitNtB6_4Mode3mapINtNtCs6SNw0SRvItZ_4core6option6OptionReEIBY_BX_ENcNtB1C_4Some0ECsd77JCpXvqG6_15rsonpath_syntax:
  277|  2.12k|  fn map<T, U, F: FnOnce(T) -> U>(x: Self::Output<T>, f: F) -> Self::Output<U> {
  278|  2.12k|    f(x)
  279|  2.12k|  }
_RINvXsa_NtCshuHlpjMNnjS_3nom8internalNtB6_4EmitNtB6_4Mode3mapNtNtCsd77JCpXvqG6_15rsonpath_syntax5error18InternalParseErrorBX_NCINvXs1_NtB8_6branchINtB28_6ChoiceTINtNtB8_8sequence8PrecededNCINvNtNtB8_9character8complete4charReBX_E0INvB34_6digit1B3z_BX_EEB3G_EEINtB6_6ParserB3z_E7processINtB6_7OutputMNtB6_5CheckBz_NtB6_9StreamingEEs_0EB11_:
  277|  77.2k|  fn map<T, U, F: FnOnce(T) -> U>(x: Self::Output<T>, f: F) -> Self::Output<U> {
  278|  77.2k|    f(x)
  279|  77.2k|  }
_RINvXsa_NtCshuHlpjMNnjS_3nom8internalNtB6_4EmitNtB6_4Mode3mapNtNtCsd77JCpXvqG6_15rsonpath_syntax5error18InternalParseErrorBX_NCINvXs1_NtB8_6branchINtB28_6ChoiceTINtNtB8_8sequence8PrecededNCINvNtNtB8_9character8complete4charReBX_E0NvNvNtB11_6parser5float10base_floatEB3G_EEINtB6_6ParserB3z_E7processINtB6_7OutputMNtB6_5CheckBz_NtB6_9StreamingEEs_0EB11_:
  277|  29.5k|  fn map<T, U, F: FnOnce(T) -> U>(x: Self::Output<T>, f: F) -> Self::Output<U> {
  278|  29.5k|    f(x)
  279|  29.5k|  }
_RINvXsa_NtCshuHlpjMNnjS_3nom8internalNtB6_4EmitNtB6_4Mode3mapNtNvNtCsd77JCpXvqG6_15rsonpath_syntax6parser12logical_expr9BooleanOpINtNtCs6SNw0SRvItZ_4core6option6OptionBX_ENcNtB23_4Some0EB13_:
  277|  3.82k|  fn map<T, U, F: FnOnce(T) -> U>(x: Self::Output<T>, f: F) -> Self::Output<U> {
  278|  3.82k|    f(x)
  279|  3.82k|  }
_RINvXsa_NtCshuHlpjMNnjS_3nom8internalNtB6_4EmitNtB6_4Mode3mapReINtNtCs6SNw0SRvItZ_4core6option6OptionBX_ENcNtBZ_4Some0ECsd77JCpXvqG6_15rsonpath_syntax:
  277|  12.2k|  fn map<T, U, F: FnOnce(T) -> U>(x: Self::Output<T>, f: F) -> Self::Output<U> {
  278|  12.2k|    f(x)
  279|  12.2k|  }
_RINvXsa_NtCshuHlpjMNnjS_3nom8internalNtB6_4EmitNtB6_4Mode3mapcINtNtCs6SNw0SRvItZ_4core6option6OptioncENcNtBY_4Some0ECsd77JCpXvqG6_15rsonpath_syntax:
  277|  1.60k|  fn map<T, U, F: FnOnce(T) -> U>(x: Self::Output<T>, f: F) -> Self::Output<U> {
  278|  1.60k|    f(x)
  279|  1.60k|  }
_RINvXsa_NtCshuHlpjMNnjS_3nom8internalNtB6_4EmitNtB6_4Mode4bindINtNtCs6SNw0SRvItZ_4core6option6OptionIBZ_ReEENCINvXNtB8_10combinatorINtB1O_3OptNCINvNtCsd77JCpXvqG6_15rsonpath_syntax6parser17ignore_whitespaceB1A_INtNtB8_8sequence8PrecededNCINvNtNtB8_9character8complete4charB1E_NtNtB2n_5error18InternalParseErrorE0IB26_NCIB2j_B1E_NvB2l_3intB4q_E0EEB4q_E0EINtB6_6ParserB1E_E7processINtB6_7OutputMBz_Bz_NtB6_9StreamingEE0EB2n_:
  272|  2.64k|  fn bind<T, F: FnOnce() -> T>(f: F) -> Self::Output<T> {
  273|  2.64k|    f()
  274|  2.64k|  }
_RINvXsa_NtCshuHlpjMNnjS_3nom8internalNtB6_4EmitNtB6_4Mode4bindINtNtCs6SNw0SRvItZ_4core6option6OptionNtNvNtCsd77JCpXvqG6_15rsonpath_syntax6parser12logical_expr9BooleanOpENCINvXNtB8_10combinatorINtB2N_3OptNCINvB1E_17ignore_whitespaceB1A_INtNtB8_6branch6ChoiceTINtB6_3MapNCINvNtNtB8_5bytes8complete3tagReB4N_NtNtB1G_5error18InternalParseErrorE0NCINvB2N_5valueB4N_B1A_B4T_B4i_E0EB48_EEB4T_E0EINtB6_6ParserB4N_E7processINtB6_7OutputMBz_Bz_NtB6_9StreamingEE0EB1G_:
  272|  12.3k|  fn bind<T, F: FnOnce() -> T>(f: F) -> Self::Output<T> {
  273|  12.3k|    f()
  274|  12.3k|  }
_RINvXsa_NtCshuHlpjMNnjS_3nom8internalNtB6_4EmitNtB6_4Mode4bindINtNtCs6SNw0SRvItZ_4core6option6OptionReENCINvXNtB8_10combinatorINtB1J_3OptINtNtB8_8sequence8PrecededNCINvNtNtB8_5bytes8complete11tag_no_caseB1A_B1A_NtNtCsd77JCpXvqG6_15rsonpath_syntax5error18InternalParseErrorE0IB2c_IB21_INtNtB8_6branch6ChoiceTNCINvNtNtB8_9character8complete4charB1A_B3n_E0B4V_EEEINvB50_6digit1B1A_B3n_EEEEINtB6_6ParserB1A_E7processINtB6_7OutputMBz_Bz_NtB6_9StreamingEE0EB3r_:
  272|  8.75k|  fn bind<T, F: FnOnce() -> T>(f: F) -> Self::Output<T> {
  273|  8.75k|    f()
  274|  8.75k|  }
_RINvXsa_NtCshuHlpjMNnjS_3nom8internalNtB6_4EmitNtB6_4Mode4bindINtNtCs6SNw0SRvItZ_4core6option6OptionReENCINvXNtB8_10combinatorINtB1J_3OptINtNtB8_8sequence8PrecededNCINvNtNtB8_9character8complete4charB1A_NtNtCsd77JCpXvqG6_15rsonpath_syntax5error18InternalParseErrorE0INvB2G_6digit1B1A_B3f_EEEINtB6_6ParserB1A_E7processINtB6_7OutputMBz_Bz_NtB6_9StreamingEE0EB3j_:
  272|  8.45k|  fn bind<T, F: FnOnce() -> T>(f: F) -> Self::Output<T> {
  273|  8.45k|    f()
  274|  8.45k|  }
_RINvXsa_NtCshuHlpjMNnjS_3nom8internalNtB6_4EmitNtB6_4Mode4bindINtNtCs6SNw0SRvItZ_4core6option6OptionReENCINvXNtB8_10combinatorINtB1J_3OptNCINvNtCsd77JCpXvqG6_15rsonpath_syntax6parser17ignore_whitespaceB1A_NvB2g_3intNtNtB2i_5error18InternalParseErrorE0EINtB6_6ParserB1A_E7processINtB6_7OutputMBz_Bz_NtB6_9StreamingEE0EB2i_:
  272|  5.02k|  fn bind<T, F: FnOnce() -> T>(f: F) -> Self::Output<T> {
  273|  5.02k|    f()
  274|  5.02k|  }
_RINvXsa_NtCshuHlpjMNnjS_3nom8internalNtB6_4EmitNtB6_4Mode4bindINtNtCs6SNw0SRvItZ_4core6option6OptioncENCINvXNtB8_10combinatorINtB1I_3OptNCINvNtNtB8_9character8complete4charReNtNtCsd77JCpXvqG6_15rsonpath_syntax5error18InternalParseErrorE0EINtB6_6ParserB2K_E7processINtB6_7OutputMBz_Bz_NtB6_9StreamingEE0EB2Q_:
  272|  42.7k|  fn bind<T, F: FnOnce() -> T>(f: F) -> Self::Output<T> {
  273|  42.7k|    f()
  274|  42.7k|  }
_RINvXsa_NtCshuHlpjMNnjS_3nom8internalNtB6_4EmitNtB6_4Mode4bindReNCINvXs5_NtB8_10combinatorINtB19_9RecognizeINtNtB8_6branch6ChoiceTINtNtB8_8sequence8PrecededNCINvNtNtB8_9character8complete4charBY_NtNtCsd77JCpXvqG6_15rsonpath_syntax5error18InternalParseErrorE0INvB2z_6digit1BY_B37_EEB48_EEEINtB6_6ParserBY_E7processINtB6_7OutputMBz_Bz_NtB6_9StreamingEE0EB3b_:
  272|  18.1k|  fn bind<T, F: FnOnce() -> T>(f: F) -> Self::Output<T> {
  273|  18.1k|    f()
  274|  18.1k|  }
_RINvXsa_NtCshuHlpjMNnjS_3nom8internalNtB6_4EmitNtB6_4Mode4bindReNCINvXs5_NtB8_10combinatorINtB19_9RecognizeINtNtB8_6branch6ChoiceTINtNtB8_8sequence8PrecededNCINvNtNtB8_9character8complete4charBY_NtNtCsd77JCpXvqG6_15rsonpath_syntax5error18InternalParseErrorE0NvNvNtB3b_6parser5float10base_floatEB48_EEEINtB6_6ParserBY_E7processINtB6_7OutputMBz_Bz_NtB6_9StreamingEE0EB3b_:
  272|  9.80k|  fn bind<T, F: FnOnce() -> T>(f: F) -> Self::Output<T> {
  273|  9.80k|    f()
  274|  9.80k|  }
_RINvXsa_NtCshuHlpjMNnjS_3nom8internalNtB6_4EmitNtB6_4Mode4bindReNCINvXs5_NtB8_10combinatorINtB19_9RecognizeTINvNtNtB8_9character8complete6digit1BY_NtNtCsd77JCpXvqG6_15rsonpath_syntax5error18InternalParseErrorEINtB19_3OptINtNtB8_8sequence8PrecededNCINvB1L_4charBY_B2l_E0B1I_EEIB3m_IB3x_NCINvNtNtB8_5bytes8complete11tag_no_caseBY_BY_B2l_E0IB3x_IB3m_INtNtB8_6branch6ChoiceTB3W_B3W_EEEB1I_EEEEEINtB6_6ParserBY_E7processINtB6_7OutputMBz_Bz_NtB6_9StreamingEE0EB2p_:
  272|  9.80k|  fn bind<T, F: FnOnce() -> T>(f: F) -> Self::Output<T> {
  273|  9.80k|    f()
  274|  9.80k|  }
_RINvXsa_NtCshuHlpjMNnjS_3nom8internalNtB6_4EmitNtB6_4Mode7combineNtNtCsd77JCpXvqG6_15rsonpath_syntax5error18InternalParseErrorB11_B11_NCINvXs1_NtB8_6branchINtB2h_6ChoiceTINtNtB8_8sequence8PrecededNCINvNtNtB8_9character8complete4charReB11_E0INvB3d_6digit1B3I_B11_EEB3Q_EEINtB6_6ParserB3I_E7processINtB6_7OutputMNtB6_5CheckBz_NtB6_9StreamingEE0EB15_:
  282|  77.2k|  fn combine<T, U, V, F: FnOnce(T, U) -> V>(
  283|  77.2k|    x: Self::Output<T>,
  284|  77.2k|    y: Self::Output<U>,
  285|  77.2k|    f: F,
  286|  77.2k|  ) -> Self::Output<V> {
  287|  77.2k|    f(x, y)
  288|  77.2k|  }
_RINvXsa_NtCshuHlpjMNnjS_3nom8internalNtB6_4EmitNtB6_4Mode7combineNtNtCsd77JCpXvqG6_15rsonpath_syntax5error18InternalParseErrorB11_B11_NCINvXs1_NtB8_6branchINtB2h_6ChoiceTINtNtB8_8sequence8PrecededNCINvNtNtB8_9character8complete4charReB11_E0NvNvNtB15_6parser5float10base_floatEB3Q_EEINtB6_6ParserB3I_E7processINtB6_7OutputMNtB6_5CheckBz_NtB6_9StreamingEE0EB15_:
  282|  29.5k|  fn combine<T, U, V, F: FnOnce(T, U) -> V>(
  283|  29.5k|    x: Self::Output<T>,
  284|  29.5k|    y: Self::Output<U>,
  285|  29.5k|    f: F,
  286|  29.5k|  ) -> Self::Output<V> {
  287|  29.5k|    f(x, y)
  288|  29.5k|  }
_RINvXsb_NtCshuHlpjMNnjS_3nom8internalNtB6_5CheckNtB6_4Mode3mapNtNtCsd77JCpXvqG6_15rsonpath_syntax5error18InternalParseErrorBY_NCINvXs1_NtB8_6branchINtB29_6ChoiceTNCINvNtNtB8_9character8complete4charReBY_E0B2A_EEINtB6_6ParserB3a_E7processINtB6_7OutputMBz_Bz_NtB6_9StreamingEEs_0EB12_:
  305|  1.02k|  fn map<T, U, F: FnOnce(T) -> U>(_: Self::Output<T>, _: F) -> Self::Output<U> {}
_RINvXsb_NtCshuHlpjMNnjS_3nom8internalNtB6_5CheckNtB6_4Mode3mapcINtNtCs6SNw0SRvItZ_4core6option6OptioncENcNtBZ_4Some0ECsd77JCpXvqG6_15rsonpath_syntax:
  305|    576|  fn map<T, U, F: FnOnce(T) -> U>(_: Self::Output<T>, _: F) -> Self::Output<U> {}
_RINvXsb_NtCshuHlpjMNnjS_3nom8internalNtB6_5CheckNtB6_4Mode4bindINtNtCs6SNw0SRvItZ_4core6option6OptioncENCINvXNtB8_10combinatorINtB1J_3OptINtNtB8_6branch6ChoiceTNCINvNtNtB8_9character8complete4charReNtNtCsd77JCpXvqG6_15rsonpath_syntax5error18InternalParseErrorE0B2y_EEEINtB6_6ParserB38_E7processINtB6_7OutputMBz_Bz_NtB6_9StreamingEE0EB3e_:
  302|  1.02k|  fn bind<T, F: FnOnce() -> T>(_: F) -> Self::Output<T> {}
_RINvXsb_NtCshuHlpjMNnjS_3nom8internalNtB6_5CheckNtB6_4Mode4bindTReINtNtCs6SNw0SRvItZ_4core6option6OptionB10_EB12_ENCINvXsB_B6_TINvNtNtB8_9character8complete6digit1B10_NtNtCsd77JCpXvqG6_15rsonpath_syntax5error18InternalParseErrorEINtNtB8_10combinator3OptINtNtB8_8sequence8PrecededNCINvB24_4charB10_B2F_E0B21_EEIB3G_IB44_NCINvNtNtB8_5bytes8complete11tag_no_caseB10_B10_B2F_E0IB44_IB3G_INtNtB8_6branch6ChoiceTB4t_B4t_EEEB21_EEEEINtB6_6ParserB10_E7processINtB6_7OutputMBz_NtB6_4EmitNtB6_9StreamingEE0EB2J_:
  302|  9.80k|  fn bind<T, F: FnOnce() -> T>(_: F) -> Self::Output<T> {}
_RINvXsb_NtCshuHlpjMNnjS_3nom8internalNtB6_5CheckNtB6_4Mode7combineNtNtCsd77JCpXvqG6_15rsonpath_syntax5error18InternalParseErrorB12_B12_NCINvXs1_NtB8_6branchINtB2i_6ChoiceTNCINvNtNtB8_9character8complete4charReB12_E0B2J_EEINtB6_6ParserB3j_E7processINtB6_7OutputMBz_Bz_NtB6_9StreamingEE0EB16_:
  308|  1.02k|  fn combine<T, U, V, F: FnOnce(T, U) -> V>(
  309|  1.02k|    _: Self::Output<T>,
  310|  1.02k|    _: Self::Output<U>,
  311|  1.02k|    _: F,
  312|  1.02k|  ) -> Self::Output<V> {
  313|  1.02k|  }
_RNvYINtNtCshuHlpjMNnjS_3nom10combinator3CutNCNvNvNtCsd77JCpXvqG6_15rsonpath_syntax6parser12logical_expr12parse_single0EINtNtB7_8internal6ParserReE5parseBN_:
  412|  14.0k|  fn parse(&mut self, input: Input) -> IResult<Input, Self::Output, Self::Error> {
  413|  14.0k|    self.process::<OutputM<Emit, Emit, Streaming>>(input)
  414|  14.0k|  }
_RNvYINtNtCshuHlpjMNnjS_3nom10combinator3OptNCINvNtCsd77JCpXvqG6_15rsonpath_syntax6parser17ignore_whitespaceINtNtCs6SNw0SRvItZ_4core6option6OptionReEINtNtB7_8sequence8PrecededNCINvNtNtB7_9character8complete4charB2j_NtNtBM_5error18InternalParseErrorE0IB3_NCIBI_B2j_NvBK_3intB3q_E0EEB3q_E0EINtNtB7_8internal6ParserB2j_E5parseBM_:
  412|  4.97k|  fn parse(&mut self, input: Input) -> IResult<Input, Self::Output, Self::Error> {
  413|  4.97k|    self.process::<OutputM<Emit, Emit, Streaming>>(input)
  414|  4.97k|  }
_RNvYINtNtCshuHlpjMNnjS_3nom10combinator3OptNCINvNtCsd77JCpXvqG6_15rsonpath_syntax6parser17ignore_whitespaceNtNvBK_12logical_expr9BooleanOpINtNtB7_6branch6ChoiceTINtNtB7_8internal3MapNCINvNtNtB7_5bytes8complete3tagReB3p_NtNtBM_5error18InternalParseErrorE0NCINvB5_5valueB3p_B1H_B3v_B2U_E0EB2z_EEB3v_E0EINtB2C_6ParserB3p_E5parseBM_:
  412|  16.1k|  fn parse(&mut self, input: Input) -> IResult<Input, Self::Output, Self::Error> {
  413|  16.1k|    self.process::<OutputM<Emit, Emit, Streaming>>(input)
  414|  16.1k|  }
_RNvYINtNtCshuHlpjMNnjS_3nom10combinator3OptNCINvNtCsd77JCpXvqG6_15rsonpath_syntax6parser17ignore_whitespaceReNvBK_3intNtNtBM_5error18InternalParseErrorE0EINtNtB7_8internal6ParserB1H_E5parseBM_:
  412|  5.87k|  fn parse(&mut self, input: Input) -> IResult<Input, Self::Output, Self::Error> {
  413|  5.87k|    self.process::<OutputM<Emit, Emit, Streaming>>(input)
  414|  5.87k|  }
_RNvYINtNtCshuHlpjMNnjS_3nom10combinator3OptNCINvNtNtB7_9character8complete4charReNtNtCsd77JCpXvqG6_15rsonpath_syntax5error18InternalParseErrorE0EINtNtB7_8internal6ParserB1f_E5parseB1l_:
  412|  44.3k|  fn parse(&mut self, input: Input) -> IResult<Input, Self::Output, Self::Error> {
  413|  44.3k|    self.process::<OutputM<Emit, Emit, Streaming>>(input)
  414|  44.3k|  }
_RNvYINtNtCshuHlpjMNnjS_3nom10combinator4PeekNCINvNtNtB7_9character8complete4charReuE0EINtNtB7_8internal6ParserB1g_E5parseCsd77JCpXvqG6_15rsonpath_syntax:
  412|  3.23k|  fn parse(&mut self, input: Input) -> IResult<Input, Self::Output, Self::Error> {
  413|  3.23k|    self.process::<OutputM<Emit, Emit, Streaming>>(input)
  414|  3.23k|  }
_RNvYINtNtCshuHlpjMNnjS_3nom10combinator4PeekNCINvNtNtB7_9character8complete6one_ofReB1i_uE0EINtNtB7_8internal6ParserB1i_E5parseCsd77JCpXvqG6_15rsonpath_syntax:
  412|  43.4k|  fn parse(&mut self, input: Input) -> IResult<Input, Self::Output, Self::Error> {
  413|  43.4k|    self.process::<OutputM<Emit, Emit, Streaming>>(input)
  414|  43.4k|  }
_RNvYINtNtCshuHlpjMNnjS_3nom10combinator9RecognizeINtNtB7_6branch6ChoiceTINtNtB7_8sequence8PrecededNCINvNtNtB7_9character8complete4charReNtNtCsd77JCpXvqG6_15rsonpath_syntax5error18InternalParseErrorE0INvB1D_6digit1B28_B2a_EEB3b_EEEINtNtB7_8internal6ParserB28_E5parseB2e_:
  412|  95.4k|  fn parse(&mut self, input: Input) -> IResult<Input, Self::Output, Self::Error> {
  413|  95.4k|    self.process::<OutputM<Emit, Emit, Streaming>>(input)
  414|  95.4k|  }
_RNvYINtNtCshuHlpjMNnjS_3nom10combinator9RecognizeINtNtB7_6branch6ChoiceTINtNtB7_8sequence8PrecededNCINvNtNtB7_9character8complete4charReNtNtCsd77JCpXvqG6_15rsonpath_syntax5error18InternalParseErrorE0NvNvNtB2e_6parser5float10base_floatEB3b_EEEINtNtB7_8internal6ParserB28_E5parseB2e_:
  412|  39.3k|  fn parse(&mut self, input: Input) -> IResult<Input, Self::Output, Self::Error> {
  413|  39.3k|    self.process::<OutputM<Emit, Emit, Streaming>>(input)
  414|  39.3k|  }
_RNvYINtNtCshuHlpjMNnjS_3nom10combinator9RecognizeTINvNtNtB7_9character8complete6digit1ReNtNtCsd77JCpXvqG6_15rsonpath_syntax5error18InternalParseErrorEINtB5_3OptINtNtB7_8sequence8PrecededNCINvBP_4charB1m_B1o_E0BM_EEIB2p_IB2z_NCINvNtNtB7_5bytes8complete11tag_no_caseB1m_B1m_B1o_E0IB2z_IB2p_INtNtB7_6branch6ChoiceTB2Y_B2Y_EEEBM_EEEEEINtNtB7_8internal6ParserB1m_E5parseB1s_:
  412|  39.5k|  fn parse(&mut self, input: Input) -> IResult<Input, Self::Output, Self::Error> {
  413|  39.5k|    self.process::<OutputM<Emit, Emit, Streaming>>(input)
  414|  39.5k|  }
_RINvXsa_NtCshuHlpjMNnjS_3nom8internalNtB6_4EmitNtB6_4Mode4bindINtNtCs6SNw0SRvItZ_4core6option6OptionReENCINvXsf_B6_NCINvNtCsd77JCpXvqG6_15rsonpath_syntax6parser17ignore_whitespaceBY_INtNtB8_8sequence8PrecededNCINvNtNtB8_9character8complete4charB1A_NtNtB1W_5error18InternalParseErrorE0INtNtB8_10combinator3OptNCIB1S_B1A_NvB1U_3intB3Y_E0EEB3Y_E0INtB6_6ParserB1A_E7processINtB6_7OutputMBz_NtB6_5CheckNtB6_9StreamingEEs_0EB1W_:
  272|  2.12k|  fn bind<T, F: FnOnce() -> T>(f: F) -> Self::Output<T> {
  273|  2.12k|    f()
  274|  2.12k|  }
_RINvXsa_NtCshuHlpjMNnjS_3nom8internalNtB6_4EmitNtB6_4Mode4bindNtCsd77JCpXvqG6_15rsonpath_syntax10ComparableNCINvXsf_B6_NCNvNtB10_6parser10comparable0INtB6_6ParserReE7processINtB6_7OutputMBz_Bz_NtB6_9StreamingEEs_0EB10_:
  272|  2.98k|  fn bind<T, F: FnOnce() -> T>(f: F) -> Self::Output<T> {
  273|  2.98k|    f()
  274|  2.98k|  }
_RINvXsa_NtCshuHlpjMNnjS_3nom8internalNtB6_4EmitNtB6_4Mode4bindNtCsd77JCpXvqG6_15rsonpath_syntax11LogicalExprNCINvXsf_B6_NCINvNtB10_6parser17ignore_whitespaceBY_NCNvB1Z_15filter_selector0NtNtB10_5error18InternalParseErrorE0INtB6_6ParserReE7processINtB6_7OutputMBz_Bz_NtB6_9StreamingEEs_0EB10_:
  272|  8.40k|  fn bind<T, F: FnOnce() -> T>(f: F) -> Self::Output<T> {
  273|  8.40k|    f()
  274|  8.40k|  }
_RINvXsa_NtCshuHlpjMNnjS_3nom8internalNtB6_4EmitNtB6_4Mode4bindNtCsd77JCpXvqG6_15rsonpath_syntax11LogicalExprNCINvXsf_B6_NCNvNtB10_6parser12logical_expr0INtB6_6ParserReE7processINtB6_7OutputMBz_Bz_NtB6_9StreamingEEs_0EB10_:
  272|  13.1k|  fn bind<T, F: FnOnce() -> T>(f: F) -> Self::Output<T> {
  273|  13.1k|    f()
  274|  13.1k|  }
_RINvXsa_NtCshuHlpjMNnjS_3nom8internalNtB6_4EmitNtB6_4Mode4bindNtCsd77JCpXvqG6_15rsonpath_syntax11LogicalExprNCINvXsf_B6_NCNvNtB10_6parser12logical_exprs0_0INtB6_6ParserReE7processINtB6_7OutputMBz_Bz_NtB6_9StreamingEEs_0EB10_:
  272|  2.75k|  fn bind<T, F: FnOnce() -> T>(f: F) -> Self::Output<T> {
  273|  2.75k|    f()
  274|  2.75k|  }
_RINvXsa_NtCshuHlpjMNnjS_3nom8internalNtB6_4EmitNtB6_4Mode4bindNtCsd77JCpXvqG6_15rsonpath_syntax11LogicalExprNCINvXsf_B6_NCNvNtB10_6parser12logical_exprs_0INtB6_6ParserReE7processINtB6_7OutputMBz_Bz_NtB6_9StreamingEEs_0EB10_:
  272|    268|  fn bind<T, F: FnOnce() -> T>(f: F) -> Self::Output<T> {
  273|    268|    f()
  274|    268|  }
_RINvXsa_NtCshuHlpjMNnjS_3nom8internalNtB6_4EmitNtB6_4Mode4bindNtCsd77JCpXvqG6_15rsonpath_syntax11LogicalExprNCINvXsf_B6_NCNvNtB10_6parser15filter_selector0INtB6_6ParserReE7processINtB6_7OutputMBz_Bz_NtB6_9StreamingEEs_0EB10_:
  272|  8.40k|  fn bind<T, F: FnOnce() -> T>(f: F) -> Self::Output<T> {
  273|  8.40k|    f()
  274|  8.40k|  }
_RINvXsa_NtCshuHlpjMNnjS_3nom8internalNtB6_4EmitNtB6_4Mode4bindNtCsd77JCpXvqG6_15rsonpath_syntax11LogicalExprNCINvXsf_B6_NCNvNvNtB10_6parser12logical_expr12parse_single0INtB6_6ParserReE7processINtB6_7OutputMBz_Bz_NtB6_9StreamingEEs_0EB10_:
  272|  1.16k|  fn bind<T, F: FnOnce() -> T>(f: F) -> Self::Output<T> {
  273|  1.16k|    f()
  274|  1.16k|  }
_RINvXsa_NtCshuHlpjMNnjS_3nom8internalNtB6_4EmitNtB6_4Mode4bindNtCsd77JCpXvqG6_15rsonpath_syntax7LiteralNCINvXsf_B6_NvNtB10_6parser7literalINtB6_6ParserReE7processINtB6_7OutputMBz_Bz_NtB6_9StreamingEEs_0EB10_:
  272|  3.05k|  fn bind<T, F: FnOnce() -> T>(f: F) -> Self::Output<T> {
  273|  3.05k|    f()
  274|  3.05k|  }
_RINvXsa_NtCshuHlpjMNnjS_3nom8internalNtB6_4EmitNtB6_4Mode4bindNtCsd77JCpXvqG6_15rsonpath_syntax7SegmentNCINvXsf_B6_NCNvNtB10_6parser12filter_query0INtB6_6ParserReE7processINtB6_7OutputMBz_Bz_NtB6_9StreamingEEs_0EB10_:
  272|    616|  fn bind<T, F: FnOnce() -> T>(f: F) -> Self::Output<T> {
  273|    616|    f()
  274|    616|  }
_RINvXsa_NtCshuHlpjMNnjS_3nom8internalNtB6_4EmitNtB6_4Mode4bindNtCsd77JCpXvqG6_15rsonpath_syntax7SegmentNCINvXsf_B6_NCNvNtB10_6parser12filter_querys_0INtB6_6ParserReE7processINtB6_7OutputMBz_Bz_NtB6_9StreamingEEs_0EB10_:
  272|  6.74k|  fn bind<T, F: FnOnce() -> T>(f: F) -> Self::Output<T> {
  273|  6.74k|    f()
  274|  6.74k|  }
_RINvXsa_NtCshuHlpjMNnjS_3nom8internalNtB6_4EmitNtB6_4Mode4bindNtCsd77JCpXvqG6_15rsonpath_syntax7SegmentNCINvXsf_B6_NCNvNtB10_6parser7segment0INtB6_6ParserReE7processINtB6_7OutputMBz_Bz_NtB6_9StreamingEEs_0EB10_:
  272|  1.23k|  fn bind<T, F: FnOnce() -> T>(f: F) -> Self::Output<T> {
  273|  1.23k|    f()
  274|  1.23k|  }
_RINvXsa_NtCshuHlpjMNnjS_3nom8internalNtB6_4EmitNtB6_4Mode4bindNtCsd77JCpXvqG6_15rsonpath_syntax7SegmentNCINvXsf_B6_NCNvNtB10_6parser7segments_0INtB6_6ParserReE7processINtB6_7OutputMBz_Bz_NtB6_9StreamingEEs_0EB10_:
  272|  5.59k|  fn bind<T, F: FnOnce() -> T>(f: F) -> Self::Output<T> {
  273|  5.59k|    f()
  274|  5.59k|  }
_RINvXsa_NtCshuHlpjMNnjS_3nom8internalNtB6_4EmitNtB6_4Mode4bindNtCsd77JCpXvqG6_15rsonpath_syntax8SelectorNCINvXsf_B6_NCINvNtB10_6parser17ignore_whitespaceBY_NCNvB1V_8selector0NtNtB10_5error18InternalParseErrorE0INtB6_6ParserReE7processINtB6_7OutputMBz_Bz_NtB6_9StreamingEEs_0EB10_:
  272|  8.40k|  fn bind<T, F: FnOnce() -> T>(f: F) -> Self::Output<T> {
  273|  8.40k|    f()
  274|  8.40k|  }
_RINvXsa_NtCshuHlpjMNnjS_3nom8internalNtB6_4EmitNtB6_4Mode4bindNtCsd77JCpXvqG6_15rsonpath_syntax8SelectorNCINvXsf_B6_NCINvNtB10_6parser17ignore_whitespaceBY_NvB1V_13name_selectorNtNtB10_5error18InternalParseErrorE0INtB6_6ParserReE7processINtB6_7OutputMBz_Bz_NtB6_9StreamingEEs_0EB10_:
  272|  1.12k|  fn bind<T, F: FnOnce() -> T>(f: F) -> Self::Output<T> {
  273|  1.12k|    f()
  274|  1.12k|  }
_RINvXsa_NtCshuHlpjMNnjS_3nom8internalNtB6_4EmitNtB6_4Mode4bindNtCsd77JCpXvqG6_15rsonpath_syntax8SelectorNCINvXsf_B6_NCINvNtB10_6parser17ignore_whitespaceBY_NvB1V_14index_selectorNtNtB10_5error18InternalParseErrorE0INtB6_6ParserReE7processINtB6_7OutputMBz_Bz_NtB6_9StreamingEEs_0EB10_:
  272|  5.45k|  fn bind<T, F: FnOnce() -> T>(f: F) -> Self::Output<T> {
  273|  5.45k|    f()
  274|  5.45k|  }
_RINvXsa_NtCshuHlpjMNnjS_3nom8internalNtB6_4EmitNtB6_4Mode4bindNtCsd77JCpXvqG6_15rsonpath_syntax8SelectorNCINvXsf_B6_NCINvNtB10_6parser17ignore_whitespaceBY_NvB1V_14slice_selectorNtNtB10_5error18InternalParseErrorE0INtB6_6ParserReE7processINtB6_7OutputMBz_Bz_NtB6_9StreamingEEs_0EB10_:
  272|  4.04k|  fn bind<T, F: FnOnce() -> T>(f: F) -> Self::Output<T> {
  273|  4.04k|    f()
  274|  4.04k|  }
_RINvXsa_NtCshuHlpjMNnjS_3nom8internalNtB6_4EmitNtB6_4Mode4bindNtCsd77JCpXvqG6_15rsonpath_syntax8SelectorNCINvXsf_B6_NCINvNtB10_6parser17ignore_whitespaceBY_NvB1V_17wildcard_selectorNtNtB10_5error18InternalParseErrorE0INtB6_6ParserReE7processINtB6_7OutputMBz_Bz_NtB6_9StreamingEEs_0EB10_:
  272|  1.41k|  fn bind<T, F: FnOnce() -> T>(f: F) -> Self::Output<T> {
  273|  1.41k|    f()
  274|  1.41k|  }
_RINvXsa_NtCshuHlpjMNnjS_3nom8internalNtB6_4EmitNtB6_4Mode4bindNtCsd77JCpXvqG6_15rsonpath_syntax8SelectorNCINvXsf_B6_NCNvNtB10_6parser8selector0INtB6_6ParserReE7processINtB6_7OutputMBz_Bz_NtB6_9StreamingEEs_0EB10_:
  272|  8.40k|  fn bind<T, F: FnOnce() -> T>(f: F) -> Self::Output<T> {
  273|  8.40k|    f()
  274|  8.40k|  }
_RINvXsa_NtCshuHlpjMNnjS_3nom8internalNtB6_4EmitNtB6_4Mode4bindNtCsd77JCpXvqG6_15rsonpath_syntax8SelectorNCINvXsf_B6_NvNtB10_6parser13name_selectorINtB6_6ParserReE7processINtB6_7OutputMBz_Bz_NtB6_9StreamingEEs_0EB10_:
  272|  1.12k|  fn bind<T, F: FnOnce() -> T>(f: F) -> Self::Output<T> {
  273|  1.12k|    f()
  274|  1.12k|  }
_RINvXsa_NtCshuHlpjMNnjS_3nom8internalNtB6_4EmitNtB6_4Mode4bindNtCsd77JCpXvqG6_15rsonpath_syntax8SelectorNCINvXsf_B6_NvNtB10_6parser14index_selectorINtB6_6ParserReE7processINtB6_7OutputMBz_Bz_NtB6_9StreamingEEs_0EB10_:
  272|  5.45k|  fn bind<T, F: FnOnce() -> T>(f: F) -> Self::Output<T> {
  273|  5.45k|    f()
  274|  5.45k|  }
_RINvXsa_NtCshuHlpjMNnjS_3nom8internalNtB6_4EmitNtB6_4Mode4bindNtCsd77JCpXvqG6_15rsonpath_syntax8SelectorNCINvXsf_B6_NvNtB10_6parser14slice_selectorINtB6_6ParserReE7processINtB6_7OutputMBz_Bz_NtB6_9StreamingEEs_0EB10_:
  272|  4.04k|  fn bind<T, F: FnOnce() -> T>(f: F) -> Self::Output<T> {
  273|  4.04k|    f()
  274|  4.04k|  }
_RINvXsa_NtCshuHlpjMNnjS_3nom8internalNtB6_4EmitNtB6_4Mode4bindNtCsd77JCpXvqG6_15rsonpath_syntax8SelectorNCINvXsf_B6_NvNtB10_6parser17wildcard_selectorINtB6_6ParserReE7processINtB6_7OutputMBz_Bz_NtB6_9StreamingEEs_0EB10_:
  272|  4.31k|  fn bind<T, F: FnOnce() -> T>(f: F) -> Self::Output<T> {
  273|  4.31k|    f()
  274|  4.31k|  }
_RINvXsa_NtCshuHlpjMNnjS_3nom8internalNtB6_4EmitNtB6_4Mode4bindNtCsd77JCpXvqG6_15rsonpath_syntax9SelectorsNCINvXsf_B6_NCNvNtB10_6parser13child_segment0INtB6_6ParserReE7processINtB6_7OutputMBz_Bz_NtB6_9StreamingEEs_0EB10_:
  272|  4.77k|  fn bind<T, F: FnOnce() -> T>(f: F) -> Self::Output<T> {
  273|  4.77k|    f()
  274|  4.77k|  }
_RINvXsa_NtCshuHlpjMNnjS_3nom8internalNtB6_4EmitNtB6_4Mode4bindNtCsd77JCpXvqG6_15rsonpath_syntax9SelectorsNCINvXsf_B6_NCNvNtB10_6parser18descendant_segment0INtB6_6ParserReE7processINtB6_7OutputMBz_Bz_NtB6_9StreamingEEs_0EB10_:
  272|    346|  fn bind<T, F: FnOnce() -> T>(f: F) -> Self::Output<T> {
  273|    346|    f()
  274|    346|  }
_RINvXsa_NtCshuHlpjMNnjS_3nom8internalNtB6_4EmitNtB6_4Mode4bindNtCsd77JCpXvqG6_15rsonpath_syntax9SelectorsNCINvXsf_B6_NvNtB10_6parser21member_name_shorthandINtB6_6ParserReE7processINtB6_7OutputMBz_Bz_NtB6_9StreamingEEs_0EB10_:
  272|  6.16k|  fn bind<T, F: FnOnce() -> T>(f: F) -> Self::Output<T> {
  273|  6.16k|    f()
  274|  6.16k|  }
_RINvXsa_NtCshuHlpjMNnjS_3nom8internalNtB6_4EmitNtB6_4Mode4bindNtNtCsd77JCpXvqG6_15rsonpath_syntax3num10JsonNumberNCINvXsf_B6_NvNtB12_6parser6numberINtB6_6ParserReE7processINtB6_7OutputMBz_Bz_NtB6_9StreamingEEs_0EB12_:
  272|  8.44k|  fn bind<T, F: FnOnce() -> T>(f: F) -> Self::Output<T> {
  273|  8.44k|    f()
  274|  8.44k|  }
_RINvXsa_NtCshuHlpjMNnjS_3nom8internalNtB6_4EmitNtB6_4Mode4bindNtNtCsd77JCpXvqG6_15rsonpath_syntax3num9JsonFloatNCINvXsf_B6_NvNtB12_6parser5floatINtB6_6ParserReE7processINtB6_7OutputMBz_Bz_NtB6_9StreamingEEs_0EB12_:
  272|  8.44k|  fn bind<T, F: FnOnce() -> T>(f: F) -> Self::Output<T> {
  273|  8.44k|    f()
  274|  8.44k|  }
_RINvXsa_NtCshuHlpjMNnjS_3nom8internalNtB6_4EmitNtB6_4Mode4bindNtNtCsd77JCpXvqG6_15rsonpath_syntax3str10JsonStringNCINvXsf_B6_NCNvNtB12_6parser6string0INtB6_6ParserReE7processINtB6_7OutputMBz_Bz_NtB6_9StreamingEEs_0EB12_:
  272|  1.95k|  fn bind<T, F: FnOnce() -> T>(f: F) -> Self::Output<T> {
  273|  1.95k|    f()
  274|  1.95k|  }
_RINvXsa_NtCshuHlpjMNnjS_3nom8internalNtB6_4EmitNtB6_4Mode4bindNtNtCsd77JCpXvqG6_15rsonpath_syntax3str10JsonStringNCINvXsf_B6_NvNtB12_6parser14string_literalINtB6_6ParserReE7processINtB6_7OutputMBz_Bz_NtB6_9StreamingEEs_0EB12_:
  272|  1.95k|  fn bind<T, F: FnOnce() -> T>(f: F) -> Self::Output<T> {
  273|  1.95k|    f()
  274|  1.95k|  }
_RINvXsa_NtCshuHlpjMNnjS_3nom8internalNtB6_4EmitNtB6_4Mode4bindNtNvNtCsd77JCpXvqG6_15rsonpath_syntax6parser12logical_expr9BooleanOpNCINvXsf_B6_NCINvB12_17ignore_whitespaceBY_INtNtB8_6branch6ChoiceTINtB6_3MapNCINvNtNtB8_5bytes8complete3tagReB3N_NtNtB14_5error18InternalParseErrorE0NCINvNtB8_10combinator5valueB3N_BY_B3T_B3i_E0EB38_EEB3T_E0INtB6_6ParserB3N_E7processINtB6_7OutputMBz_NtB6_5CheckNtB6_9StreamingEEs_0EB14_:
  272|  3.82k|  fn bind<T, F: FnOnce() -> T>(f: F) -> Self::Output<T> {
  273|  3.82k|    f()
  274|  3.82k|  }
_RINvXsa_NtCshuHlpjMNnjS_3nom8internalNtB6_4EmitNtB6_4Mode4bindReNCINvXsf_B6_NCINvNtCsd77JCpXvqG6_15rsonpath_syntax6parser17ignore_whitespaceBY_NvB1h_3intNtNtB1j_5error18InternalParseErrorE0INtB6_6ParserBY_E7processINtB6_7OutputMBz_NtB6_5CheckNtB6_9StreamingEEs_0EB1j_:
  272|  2.59k|  fn bind<T, F: FnOnce() -> T>(f: F) -> Self::Output<T> {
  273|  2.59k|    f()
  274|  2.59k|  }
_RINvXsa_NtCshuHlpjMNnjS_3nom8internalNtB6_4EmitNtB6_4Mode4bindReNCINvXsf_B6_NvNtCsd77JCpXvqG6_15rsonpath_syntax6parser3intINtB6_6ParserBY_E7processINtB6_7OutputMBz_Bz_NtB6_9StreamingEEs_0EB1g_:
  272|  2.59k|  fn bind<T, F: FnOnce() -> T>(f: F) -> Self::Output<T> {
  273|  2.59k|    f()
  274|  2.59k|  }
_RINvXsa_NtCshuHlpjMNnjS_3nom8internalNtB6_4EmitNtB6_4Mode4bindReNCINvXsf_B6_NvNtCsd77JCpXvqG6_15rsonpath_syntax6parser3intINtB6_6ParserBY_E7processINtB6_7OutputMBz_NtB6_5CheckNtB6_9StreamingEEs_0EB1g_:
  272|  7.28k|  fn bind<T, F: FnOnce() -> T>(f: F) -> Self::Output<T> {
  273|  7.28k|    f()
  274|  7.28k|  }
_RINvXsa_NtCshuHlpjMNnjS_3nom8internalNtB6_4EmitNtB6_4Mode4bindcNCINvXsf_B6_NvNvNtCsd77JCpXvqG6_15rsonpath_syntax6parser21member_name_shorthand10name_firstINtB6_6ParserReE7processINtB6_7OutputMBz_Bz_NtB6_9StreamingEEs_0EB1h_:
  272|  8.40k|  fn bind<T, F: FnOnce() -> T>(f: F) -> Self::Output<T> {
  273|  8.40k|    f()
  274|  8.40k|  }
_RINvXsa_NtCshuHlpjMNnjS_3nom8internalNtB6_4EmitNtB6_4Mode4bindcNCINvXsf_B6_NvNvNtCsd77JCpXvqG6_15rsonpath_syntax6parser21member_name_shorthand9name_charINtB6_6ParserReE7processINtB6_7OutputMBz_Bz_NtB6_9StreamingEEs_0EB1h_:
  272|  8.92k|  fn bind<T, F: FnOnce() -> T>(f: F) -> Self::Output<T> {
  273|  8.92k|    f()
  274|  8.92k|  }
_RINvXsb_NtCshuHlpjMNnjS_3nom8internalNtB6_5CheckNtB6_4Mode4bindReNCINvXsf_B6_NvNvNtCsd77JCpXvqG6_15rsonpath_syntax6parser5float10base_floatINtB6_6ParserBZ_E7processINtB6_7OutputMBz_NtB6_4EmitNtB6_9StreamingEEs_0EB1j_:
  302|  9.80k|  fn bind<T, F: FnOnce() -> T>(_: F) -> Self::Output<T> {}
_RINvXsb_NtCshuHlpjMNnjS_3nom8internalNtB6_5CheckNtB6_4Mode4bindcNCINvXsf_B6_NCINvNtCsd77JCpXvqG6_15rsonpath_syntax6parser17ignore_whitespacecNCINvNtNtB8_9character8complete4charReNtNtB1j_5error18InternalParseErrorE0B2R_E0INtB6_6ParserB2P_E7processINtB6_7OutputMBz_NtB6_4EmitNtB6_9StreamingEEs_0EB1j_:
  302|  6.31k|  fn bind<T, F: FnOnce() -> T>(_: F) -> Self::Output<T> {}
_RINvXsb_NtCshuHlpjMNnjS_3nom8internalNtB6_5CheckNtB6_4Mode4bindcNCINvXsf_B6_NvNvNtCsd77JCpXvqG6_15rsonpath_syntax6parser21member_name_shorthand10name_firstINtB6_6ParserReE7processINtB6_7OutputMBz_NtB6_4EmitNtB6_9StreamingEEs_0EB1i_:
  302|  6.16k|  fn bind<T, F: FnOnce() -> T>(_: F) -> Self::Output<T> {}
_RINvXsf_NtCshuHlpjMNnjS_3nom8internalNCINvNtCsd77JCpXvqG6_15rsonpath_syntax6parser14failed_segmentNtBG_7SegmentE0INtB6_6ParserReE7processINtB6_7OutputMNtB6_4EmitB2p_NtB6_9StreamingEEBG_:
  516|  3.62k|  fn process<OM: OutputMode>(&mut self, i: I) -> PResult<OM, I, Self::Output, Self::Error> {
  517|  3.62k|    let (i, o) = self(i).map_err(|e| match e {
  518|       |      Err::Incomplete(i) => Err::Incomplete(i),
  519|       |      Err::Error(e) => Err::Error(OM::Error::bind(|| e)),
  520|       |      Err::Failure(e) => Err::Failure(e),
  521|  3.62k|    })?;
  522|      0|    Ok((i, OM::Output::bind(|| o)))
  523|  3.62k|  }
_RINvXsf_NtCshuHlpjMNnjS_3nom8internalNCINvNtCsd77JCpXvqG6_15rsonpath_syntax6parser14failed_segmentNtBG_9SelectorsE0INtB6_6ParserReE7processINtB6_7OutputMNtB6_4EmitB2r_NtB6_9StreamingEEBG_:
  516|  7.31k|  fn process<OM: OutputMode>(&mut self, i: I) -> PResult<OM, I, Self::Output, Self::Error> {
  517|  7.31k|    let (i, o) = self(i).map_err(|e| match e {
  518|       |      Err::Incomplete(i) => Err::Incomplete(i),
  519|       |      Err::Error(e) => Err::Error(OM::Error::bind(|| e)),
  520|       |      Err::Failure(e) => Err::Failure(e),
  521|  7.31k|    })?;
  522|      0|    Ok((i, OM::Output::bind(|| o)))
  523|  7.31k|  }
_RINvXsf_NtCshuHlpjMNnjS_3nom8internalNCINvNtCsd77JCpXvqG6_15rsonpath_syntax6parser17ignore_whitespaceINtNtCs6SNw0SRvItZ_4core6option6OptionReEINtNtB8_8sequence8PrecededNCINvNtNtB8_9character8complete4charB2d_NtNtBG_5error18InternalParseErrorE0INtNtB8_10combinator3OptNCIBC_B2d_NvBE_3intB3k_E0EEB3k_E0INtB6_6ParserB2d_E7processINtB6_7OutputMNtB6_4EmitNtB6_5CheckNtB6_9StreamingEEBG_:
  516|  4.97k|  fn process<OM: OutputMode>(&mut self, i: I) -> PResult<OM, I, Self::Output, Self::Error> {
  517|  4.97k|    let (i, o) = self(i).map_err(|e| match e {
  518|       |      Err::Incomplete(i) => Err::Incomplete(i),
  519|       |      Err::Error(e) => Err::Error(OM::Error::bind(|| e)),
  520|       |      Err::Failure(e) => Err::Failure(e),
  521|  2.85k|    })?;
  522|  2.12k|    Ok((i, OM::Output::bind(|| o)))
  523|  4.97k|  }
_RINvXsf_NtCshuHlpjMNnjS_3nom8internalNCINvNtCsd77JCpXvqG6_15rsonpath_syntax6parser17ignore_whitespaceNtBG_11LogicalExprNCNvBE_15filter_selector0NtNtBG_5error18InternalParseErrorE0INtB6_6ParserReE7processINtB6_7OutputMNtB6_4EmitB3t_NtB6_9StreamingEEBG_:
  516|  26.5k|  fn process<OM: OutputMode>(&mut self, i: I) -> PResult<OM, I, Self::Output, Self::Error> {
  517|  26.5k|    let (i, o) = self(i).map_err(|e| match e {
  518|       |      Err::Incomplete(i) => Err::Incomplete(i),
  519|       |      Err::Error(e) => Err::Error(OM::Error::bind(|| e)),
  520|       |      Err::Failure(e) => Err::Failure(e),
  521|  18.1k|    })?;
  522|  8.40k|    Ok((i, OM::Output::bind(|| o)))
  523|  26.5k|  }
_RINvXsf_NtCshuHlpjMNnjS_3nom8internalNCINvNtCsd77JCpXvqG6_15rsonpath_syntax6parser17ignore_whitespaceNtBG_8SelectorNCNvBE_8selector0NtNtBG_5error18InternalParseErrorE0INtB6_6ParserReE7processINtB6_7OutputMNtB6_4EmitB3h_NtB6_9StreamingEEBG_:
  516|  33.5k|  fn process<OM: OutputMode>(&mut self, i: I) -> PResult<OM, I, Self::Output, Self::Error> {
  517|  33.5k|    let (i, o) = self(i).map_err(|e| match e {
  518|       |      Err::Incomplete(i) => Err::Incomplete(i),
  519|       |      Err::Error(e) => Err::Error(OM::Error::bind(|| e)),
  520|       |      Err::Failure(e) => Err::Failure(e),
  521|  25.1k|    })?;
  522|  8.40k|    Ok((i, OM::Output::bind(|| o)))
  523|  33.5k|  }
_RINvXsf_NtCshuHlpjMNnjS_3nom8internalNCINvNtCsd77JCpXvqG6_15rsonpath_syntax6parser17ignore_whitespaceNtBG_8SelectorNvBE_13name_selectorNtNtBG_5error18InternalParseErrorE0INtB6_6ParserReE7processINtB6_7OutputMNtB6_4EmitB3k_NtB6_9StreamingEEBG_:
  516|  51.1k|  fn process<OM: OutputMode>(&mut self, i: I) -> PResult<OM, I, Self::Output, Self::Error> {
  517|  51.1k|    let (i, o) = self(i).map_err(|e| match e {
  518|       |      Err::Incomplete(i) => Err::Incomplete(i),
  519|       |      Err::Error(e) => Err::Error(OM::Error::bind(|| e)),
  520|       |      Err::Failure(e) => Err::Failure(e),
  521|  50.0k|    })?;
  522|  1.12k|    Ok((i, OM::Output::bind(|| o)))
  523|  51.1k|  }
_RINvXsf_NtCshuHlpjMNnjS_3nom8internalNCINvNtCsd77JCpXvqG6_15rsonpath_syntax6parser17ignore_whitespaceNtBG_8SelectorNvBE_14index_selectorNtNtBG_5error18InternalParseErrorE0INtB6_6ParserReE7processINtB6_7OutputMNtB6_4EmitB3l_NtB6_9StreamingEEBG_:
  516|  39.6k|  fn process<OM: OutputMode>(&mut self, i: I) -> PResult<OM, I, Self::Output, Self::Error> {
  517|  39.6k|    let (i, o) = self(i).map_err(|e| match e {
  518|       |      Err::Incomplete(i) => Err::Incomplete(i),
  519|       |      Err::Error(e) => Err::Error(OM::Error::bind(|| e)),
  520|       |      Err::Failure(e) => Err::Failure(e),
  521|  34.2k|    })?;
  522|  5.45k|    Ok((i, OM::Output::bind(|| o)))
  523|  39.6k|  }
_RINvXsf_NtCshuHlpjMNnjS_3nom8internalNCINvNtCsd77JCpXvqG6_15rsonpath_syntax6parser17ignore_whitespaceNtBG_8SelectorNvBE_14slice_selectorNtNtBG_5error18InternalParseErrorE0INtB6_6ParserReE7processINtB6_7OutputMNtB6_4EmitB3l_NtB6_9StreamingEEBG_:
  516|  47.5k|  fn process<OM: OutputMode>(&mut self, i: I) -> PResult<OM, I, Self::Output, Self::Error> {
  517|  47.5k|    let (i, o) = self(i).map_err(|e| match e {
  518|       |      Err::Incomplete(i) => Err::Incomplete(i),
  519|       |      Err::Error(e) => Err::Error(OM::Error::bind(|| e)),
  520|       |      Err::Failure(e) => Err::Failure(e),
  521|  43.4k|    })?;
  522|  4.04k|    Ok((i, OM::Output::bind(|| o)))
  523|  47.5k|  }
_RINvXsf_NtCshuHlpjMNnjS_3nom8internalNCINvNtCsd77JCpXvqG6_15rsonpath_syntax6parser17ignore_whitespaceNtBG_8SelectorNvBE_17wildcard_selectorNtNtBG_5error18InternalParseErrorE0INtB6_6ParserReE7processINtB6_7OutputMNtB6_4EmitB3o_NtB6_9StreamingEEBG_:
  516|  48.9k|  fn process<OM: OutputMode>(&mut self, i: I) -> PResult<OM, I, Self::Output, Self::Error> {
  517|  48.9k|    let (i, o) = self(i).map_err(|e| match e {
  518|       |      Err::Incomplete(i) => Err::Incomplete(i),
  519|       |      Err::Error(e) => Err::Error(OM::Error::bind(|| e)),
  520|       |      Err::Failure(e) => Err::Failure(e),
  521|  47.5k|    })?;
  522|  1.41k|    Ok((i, OM::Output::bind(|| o)))
  523|  48.9k|  }
_RINvXsf_NtCshuHlpjMNnjS_3nom8internalNCINvNtCsd77JCpXvqG6_15rsonpath_syntax6parser17ignore_whitespaceNtNvBE_12logical_expr9BooleanOpINtNtB8_6branch6ChoiceTINtB6_3MapNCINvNtNtB8_5bytes8complete3tagReB38_NtNtBG_5error18InternalParseErrorE0NCINvNtB8_10combinator5valueB38_B1B_B3e_B2D_E0EB2t_EEB3e_E0INtB6_6ParserB38_E7processINtB6_7OutputMNtB6_4EmitNtB6_5CheckNtB6_9StreamingEEBG_:
  516|  16.1k|  fn process<OM: OutputMode>(&mut self, i: I) -> PResult<OM, I, Self::Output, Self::Error> {
  517|  16.1k|    let (i, o) = self(i).map_err(|e| match e {
  518|       |      Err::Incomplete(i) => Err::Incomplete(i),
  519|       |      Err::Error(e) => Err::Error(OM::Error::bind(|| e)),
  520|       |      Err::Failure(e) => Err::Failure(e),
  521|  12.3k|    })?;
  522|  3.82k|    Ok((i, OM::Output::bind(|| o)))
  523|  16.1k|  }
_RINvXsf_NtCshuHlpjMNnjS_3nom8internalNCINvNtCsd77JCpXvqG6_15rsonpath_syntax6parser17ignore_whitespaceReNvBE_3intNtNtBG_5error18InternalParseErrorE0INtB6_6ParserB1B_E7processINtB6_7OutputMNtB6_4EmitNtB6_5CheckNtB6_9StreamingEEBG_:
  516|  8.20k|  fn process<OM: OutputMode>(&mut self, i: I) -> PResult<OM, I, Self::Output, Self::Error> {
  517|  8.20k|    let (i, o) = self(i).map_err(|e| match e {
  518|       |      Err::Incomplete(i) => Err::Incomplete(i),
  519|       |      Err::Error(e) => Err::Error(OM::Error::bind(|| e)),
  520|       |      Err::Failure(e) => Err::Failure(e),
  521|  5.61k|    })?;
  522|  2.59k|    Ok((i, OM::Output::bind(|| o)))
  523|  8.20k|  }
_RINvXsf_NtCshuHlpjMNnjS_3nom8internalNCINvNtCsd77JCpXvqG6_15rsonpath_syntax6parser17ignore_whitespacecNCINvNtNtB8_9character8complete4charReNtNtBG_5error18InternalParseErrorE0B2e_E0INtB6_6ParserB2c_E7processINtB6_7OutputMNtB6_5CheckNtB6_4EmitNtB6_9StreamingEEBG_:
  516|  46.0k|  fn process<OM: OutputMode>(&mut self, i: I) -> PResult<OM, I, Self::Output, Self::Error> {
  517|  46.0k|    let (i, o) = self(i).map_err(|e| match e {
  518|       |      Err::Incomplete(i) => Err::Incomplete(i),
  519|       |      Err::Error(e) => Err::Error(OM::Error::bind(|| e)),
  520|       |      Err::Failure(e) => Err::Failure(e),
  521|  39.6k|    })?;
  522|  6.31k|    Ok((i, OM::Output::bind(|| o)))
  523|  46.0k|  }
_RINvXsf_NtCshuHlpjMNnjS_3nom8internalNCINvNtCsd77JCpXvqG6_15rsonpath_syntax6parser24failed_filter_expressionNtBG_10ComparableE0INtB6_6ParserReE7processINtB6_7OutputMNtB6_4EmitB2D_NtB6_9StreamingEEBG_:
  516|    986|  fn process<OM: OutputMode>(&mut self, i: I) -> PResult<OM, I, Self::Output, Self::Error> {
  517|    986|    let (i, o) = self(i).map_err(|e| match e {
  518|       |      Err::Incomplete(i) => Err::Incomplete(i),
  519|       |      Err::Error(e) => Err::Error(OM::Error::bind(|| e)),
  520|       |      Err::Failure(e) => Err::Failure(e),
  521|    986|    })?;
  522|      0|    Ok((i, OM::Output::bind(|| o)))
  523|    986|  }
_RINvXsf_NtCshuHlpjMNnjS_3nom8internalNCNvNtCsd77JCpXvqG6_15rsonpath_syntax6parser10comparable0INtB6_6ParserReE7processINtB6_7OutputMNtB6_4EmitB26_NtB6_9StreamingEEBF_:
  516|  5.64k|  fn process<OM: OutputMode>(&mut self, i: I) -> PResult<OM, I, Self::Output, Self::Error> {
  517|  5.64k|    let (i, o) = self(i).map_err(|e| match e {
  518|       |      Err::Incomplete(i) => Err::Incomplete(i),
  519|       |      Err::Error(e) => Err::Error(OM::Error::bind(|| e)),
  520|       |      Err::Failure(e) => Err::Failure(e),
  521|  2.65k|    })?;
  522|  2.98k|    Ok((i, OM::Output::bind(|| o)))
  523|  5.64k|  }
_RINvXsf_NtCshuHlpjMNnjS_3nom8internalNCNvNtCsd77JCpXvqG6_15rsonpath_syntax6parser12filter_query0INtB6_6ParserReE7processINtB6_7OutputMNtB6_4EmitB28_NtB6_9StreamingEEBF_:
  516|  19.0k|  fn process<OM: OutputMode>(&mut self, i: I) -> PResult<OM, I, Self::Output, Self::Error> {
  517|  19.0k|    let (i, o) = self(i).map_err(|e| match e {
  518|       |      Err::Incomplete(i) => Err::Incomplete(i),
  519|       |      Err::Error(e) => Err::Error(OM::Error::bind(|| e)),
  520|       |      Err::Failure(e) => Err::Failure(e),
  521|  18.4k|    })?;
  522|    616|    Ok((i, OM::Output::bind(|| o)))
  523|  19.0k|  }
_RINvXsf_NtCshuHlpjMNnjS_3nom8internalNCNvNtCsd77JCpXvqG6_15rsonpath_syntax6parser12filter_querys_0INtB6_6ParserReE7processINtB6_7OutputMNtB6_4EmitB2a_NtB6_9StreamingEEBF_:
  516|  16.9k|  fn process<OM: OutputMode>(&mut self, i: I) -> PResult<OM, I, Self::Output, Self::Error> {
  517|  16.9k|    let (i, o) = self(i).map_err(|e| match e {
  518|       |      Err::Incomplete(i) => Err::Incomplete(i),
  519|       |      Err::Error(e) => Err::Error(OM::Error::bind(|| e)),
  520|       |      Err::Failure(e) => Err::Failure(e),
  521|  10.1k|    })?;
  522|  6.74k|    Ok((i, OM::Output::bind(|| o)))
  523|  16.9k|  }
_RINvXsf_NtCshuHlpjMNnjS_3nom8internalNCNvNtCsd77JCpXvqG6_15rsonpath_syntax6parser12logical_expr0INtB6_6ParserReE7processINtB6_7OutputMNtB6_4EmitB28_NtB6_9StreamingEEBF_:
  516|  43.8k|  fn process<OM: OutputMode>(&mut self, i: I) -> PResult<OM, I, Self::Output, Self::Error> {
  517|  43.8k|    let (i, o) = self(i).map_err(|e| match e {
  518|       |      Err::Incomplete(i) => Err::Incomplete(i),
  519|       |      Err::Error(e) => Err::Error(OM::Error::bind(|| e)),
  520|       |      Err::Failure(e) => Err::Failure(e),
  521|  30.7k|    })?;
  522|  13.1k|    Ok((i, OM::Output::bind(|| o)))
  523|  43.8k|  }
_RINvXsf_NtCshuHlpjMNnjS_3nom8internalNCNvNtCsd77JCpXvqG6_15rsonpath_syntax6parser12logical_exprs0_0INtB6_6ParserReE7processINtB6_7OutputMNtB6_4EmitB2b_NtB6_9StreamingEEBF_:
  516|  3.32k|  fn process<OM: OutputMode>(&mut self, i: I) -> PResult<OM, I, Self::Output, Self::Error> {
  517|  3.32k|    let (i, o) = self(i).map_err(|e| match e {
  518|       |      Err::Incomplete(i) => Err::Incomplete(i),
  519|       |      Err::Error(e) => Err::Error(OM::Error::bind(|| e)),
  520|       |      Err::Failure(e) => Err::Failure(e),
  521|    575|    })?;
  522|  2.75k|    Ok((i, OM::Output::bind(|| o)))
  523|  3.32k|  }
_RINvXsf_NtCshuHlpjMNnjS_3nom8internalNCNvNtCsd77JCpXvqG6_15rsonpath_syntax6parser12logical_exprs_0INtB6_6ParserReE7processINtB6_7OutputMNtB6_4EmitB2a_NtB6_9StreamingEEBF_:
  516|    499|  fn process<OM: OutputMode>(&mut self, i: I) -> PResult<OM, I, Self::Output, Self::Error> {
  517|    499|    let (i, o) = self(i).map_err(|e| match e {
  518|       |      Err::Incomplete(i) => Err::Incomplete(i),
  519|       |      Err::Error(e) => Err::Error(OM::Error::bind(|| e)),
  520|       |      Err::Failure(e) => Err::Failure(e),
  521|    231|    })?;
  522|    268|    Ok((i, OM::Output::bind(|| o)))
  523|    499|  }
_RINvXsf_NtCshuHlpjMNnjS_3nom8internalNCNvNtCsd77JCpXvqG6_15rsonpath_syntax6parser13child_segment0INtB6_6ParserReE7processINtB6_7OutputMNtB6_4EmitB29_NtB6_9StreamingEEBF_:
  516|  39.3k|  fn process<OM: OutputMode>(&mut self, i: I) -> PResult<OM, I, Self::Output, Self::Error> {
  517|  39.3k|    let (i, o) = self(i).map_err(|e| match e {
  518|       |      Err::Incomplete(i) => Err::Incomplete(i),
  519|       |      Err::Error(e) => Err::Error(OM::Error::bind(|| e)),
  520|       |      Err::Failure(e) => Err::Failure(e),
  521|  34.5k|    })?;
  522|  4.77k|    Ok((i, OM::Output::bind(|| o)))
  523|  39.3k|  }
_RINvXsf_NtCshuHlpjMNnjS_3nom8internalNCNvNtCsd77JCpXvqG6_15rsonpath_syntax6parser15filter_selector0INtB6_6ParserReE7processINtB6_7OutputMNtB6_4EmitB2b_NtB6_9StreamingEEBF_:
  516|  26.5k|  fn process<OM: OutputMode>(&mut self, i: I) -> PResult<OM, I, Self::Output, Self::Error> {
  517|  26.5k|    let (i, o) = self(i).map_err(|e| match e {
  518|       |      Err::Incomplete(i) => Err::Incomplete(i),
  519|       |      Err::Error(e) => Err::Error(OM::Error::bind(|| e)),
  520|       |      Err::Failure(e) => Err::Failure(e),
  521|  18.1k|    })?;
  522|  8.40k|    Ok((i, OM::Output::bind(|| o)))
  523|  26.5k|  }
_RINvXsf_NtCshuHlpjMNnjS_3nom8internalNCNvNtCsd77JCpXvqG6_15rsonpath_syntax6parser18descendant_segment0INtB6_6ParserReE7processINtB6_7OutputMNtB6_4EmitB2e_NtB6_9StreamingEEBF_:
  516|  5.62k|  fn process<OM: OutputMode>(&mut self, i: I) -> PResult<OM, I, Self::Output, Self::Error> {
  517|  5.62k|    let (i, o) = self(i).map_err(|e| match e {
  518|       |      Err::Incomplete(i) => Err::Incomplete(i),
  519|       |      Err::Error(e) => Err::Error(OM::Error::bind(|| e)),
  520|       |      Err::Failure(e) => Err::Failure(e),
  521|  5.27k|    })?;
  522|    346|    Ok((i, OM::Output::bind(|| o)))
  523|  5.62k|  }
_RINvXsf_NtCshuHlpjMNnjS_3nom8internalNCNvNtCsd77JCpXvqG6_15rsonpath_syntax6parser6string0INtB6_6ParserReE7processINtB6_7OutputMNtB6_4EmitB21_NtB6_9StreamingEEBF_:
  516|  3.28k|  fn process<OM: OutputMode>(&mut self, i: I) -> PResult<OM, I, Self::Output, Self::Error> {
  517|  3.28k|    let (i, o) = self(i).map_err(|e| match e {
  518|       |      Err::Incomplete(i) => Err::Incomplete(i),
  519|       |      Err::Error(e) => Err::Error(OM::Error::bind(|| e)),
  520|       |      Err::Failure(e) => Err::Failure(e),
  521|  1.33k|    })?;
  522|  1.95k|    Ok((i, OM::Output::bind(|| o)))
  523|  3.28k|  }
_RINvXsf_NtCshuHlpjMNnjS_3nom8internalNCNvNtCsd77JCpXvqG6_15rsonpath_syntax6parser7segment0INtB6_6ParserReE7processINtB6_7OutputMNtB6_4EmitB22_NtB6_9StreamingEEBF_:
  516|  25.8k|  fn process<OM: OutputMode>(&mut self, i: I) -> PResult<OM, I, Self::Output, Self::Error> {
  517|  25.8k|    let (i, o) = self(i).map_err(|e| match e {
  518|       |      Err::Incomplete(i) => Err::Incomplete(i),
  519|       |      Err::Error(e) => Err::Error(OM::Error::bind(|| e)),
  520|       |      Err::Failure(e) => Err::Failure(e),
  521|  24.6k|    })?;
  522|  1.23k|    Ok((i, OM::Output::bind(|| o)))
  523|  25.8k|  }
_RINvXsf_NtCshuHlpjMNnjS_3nom8internalNCNvNtCsd77JCpXvqG6_15rsonpath_syntax6parser7segments_0INtB6_6ParserReE7processINtB6_7OutputMNtB6_4EmitB24_NtB6_9StreamingEEBF_:
  516|  22.4k|  fn process<OM: OutputMode>(&mut self, i: I) -> PResult<OM, I, Self::Output, Self::Error> {
  517|  22.4k|    let (i, o) = self(i).map_err(|e| match e {
  518|       |      Err::Incomplete(i) => Err::Incomplete(i),
  519|       |      Err::Error(e) => Err::Error(OM::Error::bind(|| e)),
  520|       |      Err::Failure(e) => Err::Failure(e),
  521|  16.8k|    })?;
  522|  5.59k|    Ok((i, OM::Output::bind(|| o)))
  523|  22.4k|  }
_RINvXsf_NtCshuHlpjMNnjS_3nom8internalNCNvNtCsd77JCpXvqG6_15rsonpath_syntax6parser8selector0INtB6_6ParserReE7processINtB6_7OutputMNtB6_4EmitB23_NtB6_9StreamingEEBF_:
  516|  33.5k|  fn process<OM: OutputMode>(&mut self, i: I) -> PResult<OM, I, Self::Output, Self::Error> {
  517|  33.5k|    let (i, o) = self(i).map_err(|e| match e {
  518|       |      Err::Incomplete(i) => Err::Incomplete(i),
  519|       |      Err::Error(e) => Err::Error(OM::Error::bind(|| e)),
  520|       |      Err::Failure(e) => Err::Failure(e),
  521|  25.1k|    })?;
  522|  8.40k|    Ok((i, OM::Output::bind(|| o)))
  523|  33.5k|  }
_RINvXsf_NtCshuHlpjMNnjS_3nom8internalNCNvNvNtCsd77JCpXvqG6_15rsonpath_syntax6parser12logical_expr12parse_single0INtB6_6ParserReE7processINtB6_7OutputMNtB6_4EmitB2o_NtB6_9StreamingEEBH_:
  516|  14.0k|  fn process<OM: OutputMode>(&mut self, i: I) -> PResult<OM, I, Self::Output, Self::Error> {
  517|  14.0k|    let (i, o) = self(i).map_err(|e| match e {
  518|       |      Err::Incomplete(i) => Err::Incomplete(i),
  519|       |      Err::Error(e) => Err::Error(OM::Error::bind(|| e)),
  520|       |      Err::Failure(e) => Err::Failure(e),
  521|  12.8k|    })?;
  522|  1.16k|    Ok((i, OM::Output::bind(|| o)))
  523|  14.0k|  }
_RINvXsf_NtCshuHlpjMNnjS_3nom8internalNvNtCsd77JCpXvqG6_15rsonpath_syntax6parser13name_selectorINtB6_6ParserReE7processINtB6_7OutputMNtB6_4EmitB26_NtB6_9StreamingEEBD_:
  516|  51.1k|  fn process<OM: OutputMode>(&mut self, i: I) -> PResult<OM, I, Self::Output, Self::Error> {
  517|  51.1k|    let (i, o) = self(i).map_err(|e| match e {
  518|       |      Err::Incomplete(i) => Err::Incomplete(i),
  519|       |      Err::Error(e) => Err::Error(OM::Error::bind(|| e)),
  520|       |      Err::Failure(e) => Err::Failure(e),
  521|  50.0k|    })?;
  522|  1.12k|    Ok((i, OM::Output::bind(|| o)))
  523|  51.1k|  }
_RINvXsf_NtCshuHlpjMNnjS_3nom8internalNvNtCsd77JCpXvqG6_15rsonpath_syntax6parser14index_selectorINtB6_6ParserReE7processINtB6_7OutputMNtB6_4EmitB27_NtB6_9StreamingEEBD_:
  516|  39.6k|  fn process<OM: OutputMode>(&mut self, i: I) -> PResult<OM, I, Self::Output, Self::Error> {
  517|  39.6k|    let (i, o) = self(i).map_err(|e| match e {
  518|       |      Err::Incomplete(i) => Err::Incomplete(i),
  519|       |      Err::Error(e) => Err::Error(OM::Error::bind(|| e)),
  520|       |      Err::Failure(e) => Err::Failure(e),
  521|  34.2k|    })?;
  522|  5.45k|    Ok((i, OM::Output::bind(|| o)))
  523|  39.6k|  }
_RINvXsf_NtCshuHlpjMNnjS_3nom8internalNvNtCsd77JCpXvqG6_15rsonpath_syntax6parser14slice_selectorINtB6_6ParserReE7processINtB6_7OutputMNtB6_4EmitB27_NtB6_9StreamingEEBD_:
  516|  47.5k|  fn process<OM: OutputMode>(&mut self, i: I) -> PResult<OM, I, Self::Output, Self::Error> {
  517|  47.5k|    let (i, o) = self(i).map_err(|e| match e {
  518|       |      Err::Incomplete(i) => Err::Incomplete(i),
  519|       |      Err::Error(e) => Err::Error(OM::Error::bind(|| e)),
  520|       |      Err::Failure(e) => Err::Failure(e),
  521|  43.4k|    })?;
  522|  4.04k|    Ok((i, OM::Output::bind(|| o)))
  523|  47.5k|  }
_RINvXsf_NtCshuHlpjMNnjS_3nom8internalNvNtCsd77JCpXvqG6_15rsonpath_syntax6parser14string_literalINtB6_6ParserReE7processINtB6_7OutputMNtB6_4EmitB27_NtB6_9StreamingEEBD_:
  516|  80.6k|  fn process<OM: OutputMode>(&mut self, i: I) -> PResult<OM, I, Self::Output, Self::Error> {
  517|  80.6k|    let (i, o) = self(i).map_err(|e| match e {
  518|       |      Err::Incomplete(i) => Err::Incomplete(i),
  519|       |      Err::Error(e) => Err::Error(OM::Error::bind(|| e)),
  520|       |      Err::Failure(e) => Err::Failure(e),
  521|  78.7k|    })?;
  522|  1.95k|    Ok((i, OM::Output::bind(|| o)))
  523|  80.6k|  }
_RINvXsf_NtCshuHlpjMNnjS_3nom8internalNvNtCsd77JCpXvqG6_15rsonpath_syntax6parser15failed_selectorINtB6_6ParserReE7processINtB6_7OutputMNtB6_4EmitB28_NtB6_9StreamingEEBD_:
  516|  6.93k|  fn process<OM: OutputMode>(&mut self, i: I) -> PResult<OM, I, Self::Output, Self::Error> {
  517|  6.93k|    let (i, o) = self(i).map_err(|e| match e {
  518|       |      Err::Incomplete(i) => Err::Incomplete(i),
  519|       |      Err::Error(e) => Err::Error(OM::Error::bind(|| e)),
  520|       |      Err::Failure(e) => Err::Failure(e),
  521|  6.93k|    })?;
  522|      0|    Ok((i, OM::Output::bind(|| o)))
  523|  6.93k|  }
_RINvXsf_NtCshuHlpjMNnjS_3nom8internalNvNtCsd77JCpXvqG6_15rsonpath_syntax6parser17wildcard_selectorINtB6_6ParserReE7processINtB6_7OutputMNtB6_4EmitB2a_NtB6_9StreamingEEBD_:
  516|  65.2k|  fn process<OM: OutputMode>(&mut self, i: I) -> PResult<OM, I, Self::Output, Self::Error> {
  517|  65.2k|    let (i, o) = self(i).map_err(|e| match e {
  518|       |      Err::Incomplete(i) => Err::Incomplete(i),
  519|       |      Err::Error(e) => Err::Error(OM::Error::bind(|| e)),
  520|       |      Err::Failure(e) => Err::Failure(e),
  521|  60.9k|    })?;
  522|  4.31k|    Ok((i, OM::Output::bind(|| o)))
  523|  65.2k|  }
_RINvXsf_NtCshuHlpjMNnjS_3nom8internalNvNtCsd77JCpXvqG6_15rsonpath_syntax6parser21member_name_shorthandINtB6_6ParserReE7processINtB6_7OutputMNtB6_4EmitB2e_NtB6_9StreamingEEBD_:
  516|  13.4k|  fn process<OM: OutputMode>(&mut self, i: I) -> PResult<OM, I, Self::Output, Self::Error> {
  517|  13.4k|    let (i, o) = self(i).map_err(|e| match e {
  518|       |      Err::Incomplete(i) => Err::Incomplete(i),
  519|       |      Err::Error(e) => Err::Error(OM::Error::bind(|| e)),
  520|       |      Err::Failure(e) => Err::Failure(e),
  521|  7.31k|    })?;
  522|  6.16k|    Ok((i, OM::Output::bind(|| o)))
  523|  13.4k|  }
_RINvXsf_NtCshuHlpjMNnjS_3nom8internalNvNtCsd77JCpXvqG6_15rsonpath_syntax6parser3intINtB6_6ParserReE7processINtB6_7OutputMNtB6_4EmitB1V_NtB6_9StreamingEEBD_:
  516|  8.20k|  fn process<OM: OutputMode>(&mut self, i: I) -> PResult<OM, I, Self::Output, Self::Error> {
  517|  8.20k|    let (i, o) = self(i).map_err(|e| match e {
  518|       |      Err::Incomplete(i) => Err::Incomplete(i),
  519|       |      Err::Error(e) => Err::Error(OM::Error::bind(|| e)),
  520|       |      Err::Failure(e) => Err::Failure(e),
  521|  5.61k|    })?;
  522|  2.59k|    Ok((i, OM::Output::bind(|| o)))
  523|  8.20k|  }
_RINvXsf_NtCshuHlpjMNnjS_3nom8internalNvNtCsd77JCpXvqG6_15rsonpath_syntax6parser3intINtB6_6ParserReE7processINtB6_7OutputMNtB6_4EmitNtB6_5CheckNtB6_9StreamingEEBD_:
  516|  47.5k|  fn process<OM: OutputMode>(&mut self, i: I) -> PResult<OM, I, Self::Output, Self::Error> {
  517|  47.5k|    let (i, o) = self(i).map_err(|e| match e {
  518|       |      Err::Incomplete(i) => Err::Incomplete(i),
  519|       |      Err::Error(e) => Err::Error(OM::Error::bind(|| e)),
  520|       |      Err::Failure(e) => Err::Failure(e),
  521|  40.2k|    })?;
  522|  7.28k|    Ok((i, OM::Output::bind(|| o)))
  523|  47.5k|  }
_RINvXsf_NtCshuHlpjMNnjS_3nom8internalNvNtCsd77JCpXvqG6_15rsonpath_syntax6parser5floatINtB6_6ParserReE7processINtB6_7OutputMNtB6_4EmitB1X_NtB6_9StreamingEEBD_:
  516|  39.3k|  fn process<OM: OutputMode>(&mut self, i: I) -> PResult<OM, I, Self::Output, Self::Error> {
  517|  39.3k|    let (i, o) = self(i).map_err(|e| match e {
  518|       |      Err::Incomplete(i) => Err::Incomplete(i),
  519|       |      Err::Error(e) => Err::Error(OM::Error::bind(|| e)),
  520|       |      Err::Failure(e) => Err::Failure(e),
  521|  30.8k|    })?;
  522|  8.44k|    Ok((i, OM::Output::bind(|| o)))
  523|  39.3k|  }
_RINvXsf_NtCshuHlpjMNnjS_3nom8internalNvNtCsd77JCpXvqG6_15rsonpath_syntax6parser6numberINtB6_6ParserReE7processINtB6_7OutputMNtB6_4EmitB1Y_NtB6_9StreamingEEBD_:
  516|  39.3k|  fn process<OM: OutputMode>(&mut self, i: I) -> PResult<OM, I, Self::Output, Self::Error> {
  517|  39.3k|    let (i, o) = self(i).map_err(|e| match e {
  518|       |      Err::Incomplete(i) => Err::Incomplete(i),
  519|       |      Err::Error(e) => Err::Error(OM::Error::bind(|| e)),
  520|       |      Err::Failure(e) => Err::Failure(e),
  521|  30.8k|    })?;
  522|  8.44k|    Ok((i, OM::Output::bind(|| o)))
  523|  39.3k|  }
_RINvXsf_NtCshuHlpjMNnjS_3nom8internalNvNtCsd77JCpXvqG6_15rsonpath_syntax6parser7literalINtB6_6ParserReE7processINtB6_7OutputMNtB6_4EmitB1Z_NtB6_9StreamingEEBD_:
  516|  8.96k|  fn process<OM: OutputMode>(&mut self, i: I) -> PResult<OM, I, Self::Output, Self::Error> {
  517|  8.96k|    let (i, o) = self(i).map_err(|e| match e {
  518|       |      Err::Incomplete(i) => Err::Incomplete(i),
  519|       |      Err::Error(e) => Err::Error(OM::Error::bind(|| e)),
  520|       |      Err::Failure(e) => Err::Failure(e),
  521|  5.91k|    })?;
  522|  3.05k|    Ok((i, OM::Output::bind(|| o)))
  523|  8.96k|  }
_RINvXsf_NtCshuHlpjMNnjS_3nom8internalNvNvNtCsd77JCpXvqG6_15rsonpath_syntax6parser21member_name_shorthand10name_firstINtB6_6ParserReE7processINtB6_7OutputMNtB6_4EmitB2s_NtB6_9StreamingEEBF_:
  516|  15.0k|  fn process<OM: OutputMode>(&mut self, i: I) -> PResult<OM, I, Self::Output, Self::Error> {
  517|  15.0k|    let (i, o) = self(i).map_err(|e| match e {
  518|       |      Err::Incomplete(i) => Err::Incomplete(i),
  519|       |      Err::Error(e) => Err::Error(OM::Error::bind(|| e)),
  520|       |      Err::Failure(e) => Err::Failure(e),
  521|  6.68k|    })?;
  522|  8.40k|    Ok((i, OM::Output::bind(|| o)))
  523|  15.0k|  }
_RINvXsf_NtCshuHlpjMNnjS_3nom8internalNvNvNtCsd77JCpXvqG6_15rsonpath_syntax6parser21member_name_shorthand10name_firstINtB6_6ParserReE7processINtB6_7OutputMNtB6_5CheckNtB6_4EmitNtB6_9StreamingEEBF_:
  516|  13.4k|  fn process<OM: OutputMode>(&mut self, i: I) -> PResult<OM, I, Self::Output, Self::Error> {
  517|  13.4k|    let (i, o) = self(i).map_err(|e| match e {
  518|       |      Err::Incomplete(i) => Err::Incomplete(i),
  519|       |      Err::Error(e) => Err::Error(OM::Error::bind(|| e)),
  520|       |      Err::Failure(e) => Err::Failure(e),
  521|  7.31k|    })?;
  522|  6.16k|    Ok((i, OM::Output::bind(|| o)))
  523|  13.4k|  }
_RINvXsf_NtCshuHlpjMNnjS_3nom8internalNvNvNtCsd77JCpXvqG6_15rsonpath_syntax6parser21member_name_shorthand9name_charINtB6_6ParserReE7processINtB6_7OutputMNtB6_4EmitB2q_NtB6_9StreamingEEBF_:
  516|  15.0k|  fn process<OM: OutputMode>(&mut self, i: I) -> PResult<OM, I, Self::Output, Self::Error> {
  517|  15.0k|    let (i, o) = self(i).map_err(|e| match e {
  518|       |      Err::Incomplete(i) => Err::Incomplete(i),
  519|       |      Err::Error(e) => Err::Error(OM::Error::bind(|| e)),
  520|       |      Err::Failure(e) => Err::Failure(e),
  521|  6.16k|    })?;
  522|  8.92k|    Ok((i, OM::Output::bind(|| o)))
  523|  15.0k|  }
_RINvXsf_NtCshuHlpjMNnjS_3nom8internalNvNvNtCsd77JCpXvqG6_15rsonpath_syntax6parser5float10base_floatINtB6_6ParserReE7processINtB6_7OutputMNtB6_5CheckNtB6_4EmitNtB6_9StreamingEEBF_:
  516|  39.5k|  fn process<OM: OutputMode>(&mut self, i: I) -> PResult<OM, I, Self::Output, Self::Error> {
  517|  39.5k|    let (i, o) = self(i).map_err(|e| match e {
  518|       |      Err::Incomplete(i) => Err::Incomplete(i),
  519|       |      Err::Error(e) => Err::Error(OM::Error::bind(|| e)),
  520|       |      Err::Failure(e) => Err::Failure(e),
  521|  29.7k|    })?;
  522|  9.80k|    Ok((i, OM::Output::bind(|| o)))
  523|  39.5k|  }
_RINvYNvNtCsd77JCpXvqG6_15rsonpath_syntax6parser14string_literalINtNtCshuHlpjMNnjS_3nom8internal6ParserReE3mapNcNtNtB7_8Selector4Name0B1N_EB7_:
  431|  51.1k|  fn map<G, O2>(self, g: G) -> Map<Self, G>
  432|  51.1k|  where
  433|  51.1k|    G: FnMut(Self::Output) -> O2,
  434|  51.1k|    Self: core::marker::Sized,
  435|       |  {
  436|  51.1k|    Map { f: self, g }
  437|  51.1k|  }
_RINvYNvNtCsd77JCpXvqG6_15rsonpath_syntax6parser14string_literalINtNtCshuHlpjMNnjS_3nom8internal6ParserReE4intoNtB7_7LiteralNtNtB7_5error18InternalParseErrorEB7_:
  497|  39.3k|  fn into<O2: From<Self::Output>, E2: From<Self::Error>>(self) -> Into<Self, O2, E2>
  498|  39.3k|  where
  499|  39.3k|    Self: core::marker::Sized,
  500|       |  {
  501|  39.3k|    Into {
  502|  39.3k|      f: self,
  503|  39.3k|      phantom_out2: core::marker::PhantomData,
  504|  39.3k|      phantom_err2: core::marker::PhantomData,
  505|  39.3k|    }
  506|  39.3k|  }
_RINvYNvNtCsd77JCpXvqG6_15rsonpath_syntax6parser17wildcard_selectorINtNtCshuHlpjMNnjS_3nom8internal6ParserReE3mapNvMsq_B7_NtB7_9Selectors3oneB1V_EB7_:
  431|  84.3k|  fn map<G, O2>(self, g: G) -> Map<Self, G>
  432|  84.3k|  where
  433|  84.3k|    G: FnMut(Self::Output) -> O2,
  434|  84.3k|    Self: core::marker::Sized,
  435|       |  {
  436|  84.3k|    Map { f: self, g }
  437|  84.3k|  }
_RINvYNvNtCsd77JCpXvqG6_15rsonpath_syntax6parser5floatINtNtCshuHlpjMNnjS_3nom8internal6ParserReE3mapNCNvB5_6number0NtNtB7_3num10JsonNumberEB7_:
  431|  39.3k|  fn map<G, O2>(self, g: G) -> Map<Self, G>
  432|  39.3k|  where
  433|  39.3k|    G: FnMut(Self::Output) -> O2,
  434|  39.3k|    Self: core::marker::Sized,
  435|       |  {
  436|  39.3k|    Map { f: self, g }
  437|  39.3k|  }
_RINvYNvNtCsd77JCpXvqG6_15rsonpath_syntax6parser6numberINtNtCshuHlpjMNnjS_3nom8internal6ParserReE4intoNtB7_7LiteralNtNtB7_5error18InternalParseErrorEB7_:
  497|  39.3k|  fn into<O2: From<Self::Output>, E2: From<Self::Error>>(self) -> Into<Self, O2, E2>
  498|  39.3k|  where
  499|  39.3k|    Self: core::marker::Sized,
  500|       |  {
  501|  39.3k|    Into {
  502|  39.3k|      f: self,
  503|  39.3k|      phantom_out2: core::marker::PhantomData,
  504|  39.3k|      phantom_err2: core::marker::PhantomData,
  505|  39.3k|    }
  506|  39.3k|  }
_RINvYNvNtCsd77JCpXvqG6_15rsonpath_syntax6parser7literalINtNtCshuHlpjMNnjS_3nom8internal6ParserReE4intoNtB7_10ComparableNtNtB7_5error18InternalParseErrorEB7_:
  497|  8.96k|  fn into<O2: From<Self::Output>, E2: From<Self::Error>>(self) -> Into<Self, O2, E2>
  498|  8.96k|  where
  499|  8.96k|    Self: core::marker::Sized,
  500|       |  {
  501|  8.96k|    Into {
  502|  8.96k|      f: self,
  503|  8.96k|      phantom_out2: core::marker::PhantomData,
  504|  8.96k|      phantom_err2: core::marker::PhantomData,
  505|  8.96k|    }
  506|  8.96k|  }
_RNvYNCNvNtCsd77JCpXvqG6_15rsonpath_syntax6parser12logical_expr0INtNtCshuHlpjMNnjS_3nom8internal6ParserReE5parseB8_:
  412|  43.8k|  fn parse(&mut self, input: Input) -> IResult<Input, Self::Output, Self::Error> {
  413|  43.8k|    self.process::<OutputM<Emit, Emit, Streaming>>(input)
  414|  43.8k|  }
_RNvYNCNvNtCsd77JCpXvqG6_15rsonpath_syntax6parser12logical_exprs0_0INtNtCshuHlpjMNnjS_3nom8internal6ParserReE5parseB8_:
  412|  3.32k|  fn parse(&mut self, input: Input) -> IResult<Input, Self::Output, Self::Error> {
  413|  3.32k|    self.process::<OutputM<Emit, Emit, Streaming>>(input)
  414|  3.32k|  }
_RNvYNCNvNtCsd77JCpXvqG6_15rsonpath_syntax6parser12logical_exprs_0INtNtCshuHlpjMNnjS_3nom8internal6ParserReE5parseB8_:
  412|    499|  fn parse(&mut self, input: Input) -> IResult<Input, Self::Output, Self::Error> {
  413|    499|    self.process::<OutputM<Emit, Emit, Streaming>>(input)
  414|    499|  }
_RNvYNCNvNtCsd77JCpXvqG6_15rsonpath_syntax6parser15filter_selector0INtNtCshuHlpjMNnjS_3nom8internal6ParserReE5parseB8_:
  412|  26.5k|  fn parse(&mut self, input: Input) -> IResult<Input, Self::Output, Self::Error> {
  413|  26.5k|    self.process::<OutputM<Emit, Emit, Streaming>>(input)
  414|  26.5k|  }
_RNvYNCNvNtCsd77JCpXvqG6_15rsonpath_syntax6parser8selector0INtNtCshuHlpjMNnjS_3nom8internal6ParserReE5parseB8_:
  412|  33.5k|  fn parse(&mut self, input: Input) -> IResult<Input, Self::Output, Self::Error> {
  413|  33.5k|    self.process::<OutputM<Emit, Emit, Streaming>>(input)
  414|  33.5k|  }
_RNvYNvNtCsd77JCpXvqG6_15rsonpath_syntax6parser13name_selectorINtNtCshuHlpjMNnjS_3nom8internal6ParserReE5parseB6_:
  412|  51.1k|  fn parse(&mut self, input: Input) -> IResult<Input, Self::Output, Self::Error> {
  413|  51.1k|    self.process::<OutputM<Emit, Emit, Streaming>>(input)
  414|  51.1k|  }
_RNvYNvNtCsd77JCpXvqG6_15rsonpath_syntax6parser14index_selectorINtNtCshuHlpjMNnjS_3nom8internal6ParserReE5parseB6_:
  412|  39.6k|  fn parse(&mut self, input: Input) -> IResult<Input, Self::Output, Self::Error> {
  413|  39.6k|    self.process::<OutputM<Emit, Emit, Streaming>>(input)
  414|  39.6k|  }
_RNvYNvNtCsd77JCpXvqG6_15rsonpath_syntax6parser14slice_selectorINtNtCshuHlpjMNnjS_3nom8internal6ParserReE5parseB6_:
  412|  47.5k|  fn parse(&mut self, input: Input) -> IResult<Input, Self::Output, Self::Error> {
  413|  47.5k|    self.process::<OutputM<Emit, Emit, Streaming>>(input)
  414|  47.5k|  }
_RNvYNvNtCsd77JCpXvqG6_15rsonpath_syntax6parser17wildcard_selectorINtNtCshuHlpjMNnjS_3nom8internal6ParserReE5parseB6_:
  412|  48.9k|  fn parse(&mut self, input: Input) -> IResult<Input, Self::Output, Self::Error> {
  413|  48.9k|    self.process::<OutputM<Emit, Emit, Streaming>>(input)
  414|  48.9k|  }
_RNvYNvNtCsd77JCpXvqG6_15rsonpath_syntax6parser3intINtNtCshuHlpjMNnjS_3nom8internal6ParserReE5parseB6_:
  412|  8.20k|  fn parse(&mut self, input: Input) -> IResult<Input, Self::Output, Self::Error> {
  413|  8.20k|    self.process::<OutputM<Emit, Emit, Streaming>>(input)
  414|  8.20k|  }
_RINvXsa_NtCshuHlpjMNnjS_3nom8internalNtB6_4EmitNtB6_4Mode4bindINtNtB8_5error5ErrorReENCINvXNtB8_9characterINtB1r_4CharBY_EINtB6_6ParserB1i_E7processINtB6_7OutputMBz_Bz_NtB6_8CompleteEEs0_0ECsd77JCpXvqG6_15rsonpath_syntax:
  272|  58.9k|  fn bind<T, F: FnOnce() -> T>(f: F) -> Self::Output<T> {
  273|  58.9k|    f()
  274|  58.9k|  }
_RINvXsa_NtCshuHlpjMNnjS_3nom8internalNtB6_4EmitNtB6_4Mode4bindINtNtB8_5error5ErrorReENCINvXNtB8_9characterINtB1r_4CharBY_EINtB6_6ParserB1i_E7processINtB6_7OutputMBz_Bz_NtB6_8CompleteEEs_0ECsd77JCpXvqG6_15rsonpath_syntax:
  272|  16.9k|  fn bind<T, F: FnOnce() -> T>(f: F) -> Self::Output<T> {
  273|  16.9k|    f()
  274|  16.9k|  }
_RINvXsa_NtCshuHlpjMNnjS_3nom8internalNtB6_4EmitNtB6_4Mode4bindNtNtCsd77JCpXvqG6_15rsonpath_syntax5error18InternalParseErrorNCINvXNtB8_9characterINtB23_4CharBY_EINtB6_6ParserReE7processINtB6_7OutputMBz_Bz_NtB6_8CompleteEEs0_0EB12_:
  272|   444k|  fn bind<T, F: FnOnce() -> T>(f: F) -> Self::Output<T> {
  273|   444k|    f()
  274|   444k|  }
_RINvXsa_NtCshuHlpjMNnjS_3nom8internalNtB6_4EmitNtB6_4Mode4bindNtNtCsd77JCpXvqG6_15rsonpath_syntax5error18InternalParseErrorNCINvXNtB8_9characterINtB23_4CharBY_EINtB6_6ParserReE7processINtB6_7OutputMBz_Bz_NtB6_8CompleteEEs_0EB12_:
  272|  2.08k|  fn bind<T, F: FnOnce() -> T>(f: F) -> Self::Output<T> {
  273|  2.08k|    f()
  274|  2.08k|  }
_RINvXsa_NtCshuHlpjMNnjS_3nom8internalNtB6_4EmitNtB6_4Mode4bindNtNtCsd77JCpXvqG6_15rsonpath_syntax5error18InternalParseErrorNCINvXs_NtB8_9characterINtB25_7SatisfyNCNvNvNtB12_6parser21member_name_shorthand10name_first0NCINvB25_7satisfyB2z_ReBY_E0EINtB6_6ParserB3N_E7processINtB6_7OutputMBz_Bz_NtB6_8CompleteEEs0_0EB12_:
  272|  13.7k|  fn bind<T, F: FnOnce() -> T>(f: F) -> Self::Output<T> {
  273|  13.7k|    f()
  274|  13.7k|  }
_RINvXsa_NtCshuHlpjMNnjS_3nom8internalNtB6_4EmitNtB6_4Mode4bindNtNtCsd77JCpXvqG6_15rsonpath_syntax5error18InternalParseErrorNCINvXs_NtB8_9characterINtB25_7SatisfyNCNvNvNtB12_6parser21member_name_shorthand10name_first0NCINvB25_7satisfyB2z_ReBY_E0EINtB6_6ParserB3N_E7processINtB6_7OutputMBz_Bz_NtB6_8CompleteEEs_0EB12_:
  272|    256|  fn bind<T, F: FnOnce() -> T>(f: F) -> Self::Output<T> {
  273|    256|    f()
  274|    256|  }
_RINvXsa_NtCshuHlpjMNnjS_3nom8internalNtB6_4EmitNtB6_4Mode4bindNtNtCsd77JCpXvqG6_15rsonpath_syntax5error18InternalParseErrorNCINvXs_NtB8_9characterINtB25_7SatisfyNCNvNvNtB12_6parser21member_name_shorthand9name_char0NCINvB25_7satisfyB2z_ReBY_E0EINtB6_6ParserB3L_E7processINtB6_7OutputMBz_Bz_NtB6_8CompleteEEs0_0EB12_:
  272|  5.99k|  fn bind<T, F: FnOnce() -> T>(f: F) -> Self::Output<T> {
  273|  5.99k|    f()
  274|  5.99k|  }
_RINvXsa_NtCshuHlpjMNnjS_3nom8internalNtB6_4EmitNtB6_4Mode4bindNtNtCsd77JCpXvqG6_15rsonpath_syntax5error18InternalParseErrorNCINvXs_NtB8_9characterINtB25_7SatisfyNCNvNvNtB12_6parser21member_name_shorthand9name_char0NCINvB25_7satisfyB2z_ReBY_E0EINtB6_6ParserB3L_E7processINtB6_7OutputMBz_Bz_NtB6_8CompleteEEs_0EB12_:
  272|    172|  fn bind<T, F: FnOnce() -> T>(f: F) -> Self::Output<T> {
  273|    172|    f()
  274|    172|  }
_RINvXsa_NtCshuHlpjMNnjS_3nom8internalNtB6_4EmitNtB6_4Mode4bindReNCINvXsf_B6_INvNtNtB8_9character8complete6digit1BY_NtNtCsd77JCpXvqG6_15rsonpath_syntax5error18InternalParseErrorEINtB6_6ParserBY_E7processINtB6_7OutputMBz_Bz_NtB6_9StreamingEEs_0EB1T_:
  272|  9.80k|  fn bind<T, F: FnOnce() -> T>(f: F) -> Self::Output<T> {
  273|  9.80k|    f()
  274|  9.80k|  }
_RINvXsa_NtCshuHlpjMNnjS_3nom8internalNtB6_4EmitNtB6_4Mode4bindReNCINvXsf_B6_INvNtNtB8_9character8complete6digit1BY_NtNtCsd77JCpXvqG6_15rsonpath_syntax5error18InternalParseErrorEINtB6_6ParserBY_E7processINtB6_7OutputMBz_NtB6_5CheckNtB6_9StreamingEEs_0EB1T_:
  272|  2.40k|  fn bind<T, F: FnOnce() -> T>(f: F) -> Self::Output<T> {
  273|  2.40k|    f()
  274|  2.40k|  }
_RINvXsa_NtCshuHlpjMNnjS_3nom8internalNtB6_4EmitNtB6_4Mode4bindcNCINvXNtB8_9characterINtB15_4CharINtNtB8_5error5ErrorReEEINtB6_6ParserB1Q_E7processINtB6_7OutputMBz_Bz_NtB6_8CompleteEEs1_0ECsd77JCpXvqG6_15rsonpath_syntax:
  272|  21.6k|  fn bind<T, F: FnOnce() -> T>(f: F) -> Self::Output<T> {
  273|  21.6k|    f()
  274|  21.6k|  }
_RINvXsa_NtCshuHlpjMNnjS_3nom8internalNtB6_4EmitNtB6_4Mode4bindcNCINvXNtB8_9characterINtB15_4CharNtNtCsd77JCpXvqG6_15rsonpath_syntax5error18InternalParseErrorEINtB6_6ParserReE7processINtB6_7OutputMBz_Bz_NtB6_8CompleteEEs1_0EB1A_:
  272|   117k|  fn bind<T, F: FnOnce() -> T>(f: F) -> Self::Output<T> {
  273|   117k|    f()
  274|   117k|  }
_RINvXsa_NtCshuHlpjMNnjS_3nom8internalNtB6_4EmitNtB6_4Mode4bindcNCINvXNtB8_9characterINtB15_4CharuEINtB6_6ParserReE7processINtB6_7OutputMBz_Bz_NtB6_8CompleteEEs1_0ECsd77JCpXvqG6_15rsonpath_syntax:
  272|  15.7k|  fn bind<T, F: FnOnce() -> T>(f: F) -> Self::Output<T> {
  273|  15.7k|    f()
  274|  15.7k|  }
_RINvXsa_NtCshuHlpjMNnjS_3nom8internalNtB6_4EmitNtB6_4Mode4bindcNCINvXs_NtB8_9characterINtB17_7SatisfyNCINvB17_6one_ofReB1R_uE0NCB1D_s_0EINtB6_6ParserB1R_E7processINtB6_7OutputMBz_Bz_NtB6_8CompleteEEs1_0ECsd77JCpXvqG6_15rsonpath_syntax:
  272|  19.0k|  fn bind<T, F: FnOnce() -> T>(f: F) -> Self::Output<T> {
  273|  19.0k|    f()
  274|  19.0k|  }
_RINvXsa_NtCshuHlpjMNnjS_3nom8internalNtB6_4EmitNtB6_4Mode4bindcNCINvXs_NtB8_9characterINtB17_7SatisfyNCNvNvNtCsd77JCpXvqG6_15rsonpath_syntax6parser21member_name_shorthand10name_first0NCINvB17_7satisfyB1B_ReNtNtB1J_5error18InternalParseErrorE0EINtB6_6ParserB3g_E7processINtB6_7OutputMBz_Bz_NtB6_8CompleteEEs1_0EB1J_:
  272|  14.5k|  fn bind<T, F: FnOnce() -> T>(f: F) -> Self::Output<T> {
  273|  14.5k|    f()
  274|  14.5k|  }
_RINvXsa_NtCshuHlpjMNnjS_3nom8internalNtB6_4EmitNtB6_4Mode4bindcNCINvXs_NtB8_9characterINtB17_7SatisfyNCNvNvNtCsd77JCpXvqG6_15rsonpath_syntax6parser21member_name_shorthand9name_char0NCINvB17_7satisfyB1B_ReNtNtB1J_5error18InternalParseErrorE0EINtB6_6ParserB3e_E7processINtB6_7OutputMBz_Bz_NtB6_8CompleteEEs1_0EB1J_:
  272|    525|  fn bind<T, F: FnOnce() -> T>(f: F) -> Self::Output<T> {
  273|    525|    f()
  274|    525|  }
_RINvXsa_NtCshuHlpjMNnjS_3nom8internalNtB6_4EmitNtB6_4Mode4bindcNCINvXsf_B6_NCINvNtNtB8_9character8complete4charReNtNtCsd77JCpXvqG6_15rsonpath_syntax5error18InternalParseErrorE0INtB6_6ParserB1L_E7processINtB6_7OutputMBz_Bz_NtB6_9StreamingEEs_0EB1R_:
  272|  39.0k|  fn bind<T, F: FnOnce() -> T>(f: F) -> Self::Output<T> {
  273|  39.0k|    f()
  274|  39.0k|  }
_RINvXsa_NtCshuHlpjMNnjS_3nom8internalNtB6_4EmitNtB6_4Mode4bindcNCINvXsf_B6_NCINvNtNtB8_9character8complete4charReNtNtCsd77JCpXvqG6_15rsonpath_syntax5error18InternalParseErrorE0INtB6_6ParserB1L_E7processINtB6_7OutputMBz_NtB6_5CheckNtB6_9StreamingEEs_0EB1R_:
  272|  1.60k|  fn bind<T, F: FnOnce() -> T>(f: F) -> Self::Output<T> {
  273|  1.60k|    f()
  274|  1.60k|  }
_RINvXsa_NtCshuHlpjMNnjS_3nom8internalNtB6_4EmitNtB6_4Mode4bindcNCINvXsf_B6_NCINvNtNtB8_9character8complete4charReuE0INtB6_6ParserB1L_E7processINtB6_7OutputMBz_Bz_NtB6_9StreamingEEs_0ECsd77JCpXvqG6_15rsonpath_syntax:
  272|    998|  fn bind<T, F: FnOnce() -> T>(f: F) -> Self::Output<T> {
  273|    998|    f()
  274|    998|  }
_RINvXsa_NtCshuHlpjMNnjS_3nom8internalNtB6_4EmitNtB6_4Mode4bindcNCINvXsf_B6_NCINvNtNtB8_9character8complete6one_ofReB1N_uE0INtB6_6ParserB1N_E7processINtB6_7OutputMBz_Bz_NtB6_9StreamingEEs_0ECsd77JCpXvqG6_15rsonpath_syntax:
  272|  19.0k|  fn bind<T, F: FnOnce() -> T>(f: F) -> Self::Output<T> {
  273|  19.0k|    f()
  274|  19.0k|  }
_RINvXsa_NtCshuHlpjMNnjS_3nom8internalNtB6_4EmitNtB6_4Mode4bindcNCINvXsf_B6_NCINvNtNtB8_9character8complete7satisfyNCNvNvNtCsd77JCpXvqG6_15rsonpath_syntax6parser21member_name_shorthand9name_char0ReNtNtB1W_5error18InternalParseErrorE0INtB6_6ParserB36_E7processINtB6_7OutputMBz_Bz_NtB6_9StreamingEEs_0EB1W_:
  272|    525|  fn bind<T, F: FnOnce() -> T>(f: F) -> Self::Output<T> {
  273|    525|    f()
  274|    525|  }
_RINvXsa_NtCshuHlpjMNnjS_3nom8internalNtB6_4EmitNtB6_4Mode4binduNCINvXNtB8_9characterINtB15_4CharuEINtB6_6ParserReE7processINtB6_7OutputMBz_Bz_NtB6_8CompleteEEs0_0ECsd77JCpXvqG6_15rsonpath_syntax:
  272|  32.9k|  fn bind<T, F: FnOnce() -> T>(f: F) -> Self::Output<T> {
  273|  32.9k|    f()
  274|  32.9k|  }
_RINvXsa_NtCshuHlpjMNnjS_3nom8internalNtB6_4EmitNtB6_4Mode4binduNCINvXNtB8_9characterINtB15_4CharuEINtB6_6ParserReE7processINtB6_7OutputMBz_Bz_NtB6_8CompleteEEs_0ECsd77JCpXvqG6_15rsonpath_syntax:
  272|    148|  fn bind<T, F: FnOnce() -> T>(f: F) -> Self::Output<T> {
  273|    148|    f()
  274|    148|  }
_RINvXsa_NtCshuHlpjMNnjS_3nom8internalNtB6_4EmitNtB6_4Mode4binduNCINvXs_NtB8_9characterINtB17_7SatisfyNCINvB17_6one_ofReB1R_uE0NCB1D_s_0EINtB6_6ParserB1R_E7processINtB6_7OutputMBz_Bz_NtB6_8CompleteEEs0_0ECsd77JCpXvqG6_15rsonpath_syntax:
  272|  17.3k|  fn bind<T, F: FnOnce() -> T>(f: F) -> Self::Output<T> {
  273|  17.3k|    f()
  274|  17.3k|  }
_RINvXsa_NtCshuHlpjMNnjS_3nom8internalNtB6_4EmitNtB6_4Mode4binduNCINvXs_NtB8_9characterINtB17_7SatisfyNCINvB17_6one_ofReB1R_uE0NCB1D_s_0EINtB6_6ParserB1R_E7processINtB6_7OutputMBz_Bz_NtB6_8CompleteEEs_0ECsd77JCpXvqG6_15rsonpath_syntax:
  272|  7.01k|  fn bind<T, F: FnOnce() -> T>(f: F) -> Self::Output<T> {
  273|  7.01k|    f()
  274|  7.01k|  }
_RINvXsb_NtCshuHlpjMNnjS_3nom8internalNtB6_5CheckNtB6_4Mode4bindReNCINvXsf_B6_INvNtNtB8_9character8complete6digit1BZ_NtNtCsd77JCpXvqG6_15rsonpath_syntax5error18InternalParseErrorEINtB6_6ParserBZ_E7processINtB6_7OutputMBz_NtB6_4EmitNtB6_9StreamingEEs_0EB1U_:
  302|  18.1k|  fn bind<T, F: FnOnce() -> T>(_: F) -> Self::Output<T> {}
_RINvXsb_NtCshuHlpjMNnjS_3nom8internalNtB6_5CheckNtB6_4Mode4bindcNCINvXsf_B6_NCINvNtNtB8_9character8complete4charReNtNtCsd77JCpXvqG6_15rsonpath_syntax5error18InternalParseErrorE0INtB6_6ParserB1M_E7processINtB6_7OutputMBz_Bz_NtB6_9StreamingEEs_0EB1S_:
  302|  2.29k|  fn bind<T, F: FnOnce() -> T>(_: F) -> Self::Output<T> {}
_RINvXsb_NtCshuHlpjMNnjS_3nom8internalNtB6_5CheckNtB6_4Mode4bindcNCINvXsf_B6_NCINvNtNtB8_9character8complete4charReNtNtCsd77JCpXvqG6_15rsonpath_syntax5error18InternalParseErrorE0INtB6_6ParserB1M_E7processINtB6_7OutputMBz_NtB6_4EmitNtB6_9StreamingEEs_0EB1S_:
  302|  49.7k|  fn bind<T, F: FnOnce() -> T>(_: F) -> Self::Output<T> {}
_RINvXsf_NtCshuHlpjMNnjS_3nom8internalINvNtNtB8_9character8complete6digit1ReNtNtCsd77JCpXvqG6_15rsonpath_syntax5error18InternalParseErrorEINtB6_6ParserB19_E7processINtB6_7OutputMNtB6_4EmitB2P_NtB6_9StreamingEEB1f_:
  516|  39.5k|  fn process<OM: OutputMode>(&mut self, i: I) -> PResult<OM, I, Self::Output, Self::Error> {
  517|  39.5k|    let (i, o) = self(i).map_err(|e| match e {
  518|       |      Err::Incomplete(i) => Err::Incomplete(i),
  519|       |      Err::Error(e) => Err::Error(OM::Error::bind(|| e)),
  520|       |      Err::Failure(e) => Err::Failure(e),
  521|  29.7k|    })?;
  522|  9.80k|    Ok((i, OM::Output::bind(|| o)))
  523|  39.5k|  }
_RINvXsf_NtCshuHlpjMNnjS_3nom8internalINvNtNtB8_9character8complete6digit1ReNtNtCsd77JCpXvqG6_15rsonpath_syntax5error18InternalParseErrorEINtB6_6ParserB19_E7processINtB6_7OutputMNtB6_4EmitNtB6_5CheckNtB6_9StreamingEEB1f_:
  516|  3.31k|  fn process<OM: OutputMode>(&mut self, i: I) -> PResult<OM, I, Self::Output, Self::Error> {
  517|  3.31k|    let (i, o) = self(i).map_err(|e| match e {
  518|       |      Err::Incomplete(i) => Err::Incomplete(i),
  519|       |      Err::Error(e) => Err::Error(OM::Error::bind(|| e)),
  520|       |      Err::Failure(e) => Err::Failure(e),
  521|    913|    })?;
  522|  2.40k|    Ok((i, OM::Output::bind(|| o)))
  523|  3.31k|  }
_RINvXsf_NtCshuHlpjMNnjS_3nom8internalINvNtNtB8_9character8complete6digit1ReNtNtCsd77JCpXvqG6_15rsonpath_syntax5error18InternalParseErrorEINtB6_6ParserB19_E7processINtB6_7OutputMNtB6_5CheckNtB6_4EmitNtB6_9StreamingEEB1f_:
  516|  96.2k|  fn process<OM: OutputMode>(&mut self, i: I) -> PResult<OM, I, Self::Output, Self::Error> {
  517|  96.2k|    let (i, o) = self(i).map_err(|e| match e {
  518|       |      Err::Incomplete(i) => Err::Incomplete(i),
  519|       |      Err::Error(e) => Err::Error(OM::Error::bind(|| e)),
  520|       |      Err::Failure(e) => Err::Failure(e),
  521|  78.1k|    })?;
  522|  18.1k|    Ok((i, OM::Output::bind(|| o)))
  523|  96.2k|  }
_RINvXsf_NtCshuHlpjMNnjS_3nom8internalNCINvNtNtB8_9character8complete4charReNtNtCsd77JCpXvqG6_15rsonpath_syntax5error18InternalParseErrorE0INtB6_6ParserB19_E7processINtB6_7OutputMNtB6_4EmitB2Q_NtB6_9StreamingEEB1f_:
  516|   113k|  fn process<OM: OutputMode>(&mut self, i: I) -> PResult<OM, I, Self::Output, Self::Error> {
  517|   113k|    let (i, o) = self(i).map_err(|e| match e {
  518|       |      Err::Incomplete(i) => Err::Incomplete(i),
  519|       |      Err::Error(e) => Err::Error(OM::Error::bind(|| e)),
  520|       |      Err::Failure(e) => Err::Failure(e),
  521|  74.3k|    })?;
  522|  39.0k|    Ok((i, OM::Output::bind(|| o)))
  523|   113k|  }
_RINvXsf_NtCshuHlpjMNnjS_3nom8internalNCINvNtNtB8_9character8complete4charReNtNtCsd77JCpXvqG6_15rsonpath_syntax5error18InternalParseErrorE0INtB6_6ParserB19_E7processINtB6_7OutputMNtB6_4EmitNtB6_5CheckNtB6_9StreamingEEB1f_:
  516|  44.3k|  fn process<OM: OutputMode>(&mut self, i: I) -> PResult<OM, I, Self::Output, Self::Error> {
  517|  44.3k|    let (i, o) = self(i).map_err(|e| match e {
  518|       |      Err::Incomplete(i) => Err::Incomplete(i),
  519|       |      Err::Error(e) => Err::Error(OM::Error::bind(|| e)),
  520|       |      Err::Failure(e) => Err::Failure(e),
  521|  42.7k|    })?;
  522|  1.60k|    Ok((i, OM::Output::bind(|| o)))
  523|  44.3k|  }
_RINvXsf_NtCshuHlpjMNnjS_3nom8internalNCINvNtNtB8_9character8complete4charReNtNtCsd77JCpXvqG6_15rsonpath_syntax5error18InternalParseErrorE0INtB6_6ParserB19_E7processINtB6_7OutputMNtB6_5CheckB2Q_NtB6_9StreamingEEB1f_:
  516|  12.7k|  fn process<OM: OutputMode>(&mut self, i: I) -> PResult<OM, I, Self::Output, Self::Error> {
  517|  12.7k|    let (i, o) = self(i).map_err(|e| match e {
  518|       |      Err::Incomplete(i) => Err::Incomplete(i),
  519|       |      Err::Error(e) => Err::Error(OM::Error::bind(|| e)),
  520|       |      Err::Failure(e) => Err::Failure(e),
  521|  10.4k|    })?;
  522|  2.29k|    Ok((i, OM::Output::bind(|| o)))
  523|  12.7k|  }
_RINvXsf_NtCshuHlpjMNnjS_3nom8internalNCINvNtNtB8_9character8complete4charReNtNtCsd77JCpXvqG6_15rsonpath_syntax5error18InternalParseErrorE0INtB6_6ParserB19_E7processINtB6_7OutputMNtB6_5CheckNtB6_4EmitNtB6_9StreamingEEB1f_:
  516|   348k|  fn process<OM: OutputMode>(&mut self, i: I) -> PResult<OM, I, Self::Output, Self::Error> {
  517|   348k|    let (i, o) = self(i).map_err(|e| match e {
  518|       |      Err::Incomplete(i) => Err::Incomplete(i),
  519|       |      Err::Error(e) => Err::Error(OM::Error::bind(|| e)),
  520|       |      Err::Failure(e) => Err::Failure(e),
  521|   299k|    })?;
  522|  49.7k|    Ok((i, OM::Output::bind(|| o)))
  523|   348k|  }
_RINvXsf_NtCshuHlpjMNnjS_3nom8internalNCINvNtNtB8_9character8complete4charReuE0INtB6_6ParserB19_E7processINtB6_7OutputMNtB6_4EmitB1S_NtB6_9StreamingEECsd77JCpXvqG6_15rsonpath_syntax:
  516|  3.23k|  fn process<OM: OutputMode>(&mut self, i: I) -> PResult<OM, I, Self::Output, Self::Error> {
  517|  3.23k|    let (i, o) = self(i).map_err(|e| match e {
  518|       |      Err::Incomplete(i) => Err::Incomplete(i),
  519|       |      Err::Error(e) => Err::Error(OM::Error::bind(|| e)),
  520|       |      Err::Failure(e) => Err::Failure(e),
  521|  2.23k|    })?;
  522|    998|    Ok((i, OM::Output::bind(|| o)))
  523|  3.23k|  }
_RINvXsf_NtCshuHlpjMNnjS_3nom8internalNCINvNtNtB8_9character8complete6one_ofReB1b_uE0INtB6_6ParserB1b_E7processINtB6_7OutputMNtB6_4EmitB1Y_NtB6_9StreamingEECsd77JCpXvqG6_15rsonpath_syntax:
  516|  43.4k|  fn process<OM: OutputMode>(&mut self, i: I) -> PResult<OM, I, Self::Output, Self::Error> {
  517|  43.4k|    let (i, o) = self(i).map_err(|e| match e {
  518|       |      Err::Incomplete(i) => Err::Incomplete(i),
  519|       |      Err::Error(e) => Err::Error(OM::Error::bind(|| e)),
  520|       |      Err::Failure(e) => Err::Failure(e),
  521|  24.3k|    })?;
  522|  19.0k|    Ok((i, OM::Output::bind(|| o)))
  523|  43.4k|  }
_RINvXsf_NtCshuHlpjMNnjS_3nom8internalNCINvNtNtB8_9character8complete7satisfyNCNvNvNtCsd77JCpXvqG6_15rsonpath_syntax6parser21member_name_shorthand9name_char0ReNtNtB1k_5error18InternalParseErrorE0INtB6_6ParserB2u_E7processINtB6_7OutputMNtB6_4EmitB3K_NtB6_9StreamingEEB1k_:
  516|  6.68k|  fn process<OM: OutputMode>(&mut self, i: I) -> PResult<OM, I, Self::Output, Self::Error> {
  517|  6.68k|    let (i, o) = self(i).map_err(|e| match e {
  518|       |      Err::Incomplete(i) => Err::Incomplete(i),
  519|       |      Err::Error(e) => Err::Error(OM::Error::bind(|| e)),
  520|       |      Err::Failure(e) => Err::Failure(e),
  521|  6.16k|    })?;
  522|    525|    Ok((i, OM::Output::bind(|| o)))
  523|  6.68k|  }
_RINvYNCINvNtNtCshuHlpjMNnjS_3nom9character8complete4charReNtNtCsd77JCpXvqG6_15rsonpath_syntax5error18InternalParseErrorE0INtNtBc_8internal6ParserBS_E3mapNCINvNtBc_10combinator5valueBS_NtBY_12ComparisonOpBU_B3_E0B2W_EBY_:
  431|  40.7k|  fn map<G, O2>(self, g: G) -> Map<Self, G>
  432|  40.7k|  where
  433|  40.7k|    G: FnMut(Self::Output) -> O2,
  434|  40.7k|    Self: core::marker::Sized,
  435|       |  {
  436|  40.7k|    Map { f: self, g }
  437|  40.7k|  }
_RINvYNCINvNtNtCshuHlpjMNnjS_3nom9character8complete4charReNtNtCsd77JCpXvqG6_15rsonpath_syntax5error18InternalParseErrorE0INtNtBc_8internal6ParserBS_E3mapNCINvNtBc_10combinator5valueBS_NtNtBY_6parser16RootSelectorTypeBU_B3_E0B2W_EBY_:
  431|  56.5k|  fn map<G, O2>(self, g: G) -> Map<Self, G>
  432|  56.5k|  where
  433|  56.5k|    G: FnMut(Self::Output) -> O2,
  434|  56.5k|    Self: core::marker::Sized,
  435|       |  {
  436|  56.5k|    Map { f: self, g }
  437|  56.5k|  }
_RNvYNCINvNtNtCshuHlpjMNnjS_3nom9character8complete4charReNtNtCsd77JCpXvqG6_15rsonpath_syntax5error18InternalParseErrorE0INtNtBb_8internal6ParserBR_E5parseBX_:
  412|  46.0k|  fn parse(&mut self, input: Input) -> IResult<Input, Self::Output, Self::Error> {
  413|  46.0k|    self.process::<OutputM<Emit, Emit, Streaming>>(input)
  414|  46.0k|  }
_RINvXsa_NtCshuHlpjMNnjS_3nom8internalNtB6_4EmitNtB6_4Mode4bindNtNtCsd77JCpXvqG6_15rsonpath_syntax3str17JsonStringBuilderNCINvXs8_NtB8_5multiINtB23_9FoldMany0NvNvNtB12_6parser21member_name_shorthand9name_charNCB2x_0NvMs_B10_BY_3newBY_EINtB6_6ParserReE7processINtB6_7OutputMBz_Bz_NtB6_9StreamingEE0EB12_:
  272|  6.16k|  fn bind<T, F: FnOnce() -> T>(f: F) -> Self::Output<T> {
  273|  6.16k|    f()
  274|  6.16k|  }
_RINvXsa_NtCshuHlpjMNnjS_3nom8internalNtB6_4EmitNtB6_4Mode7combineNtNtCsd77JCpXvqG6_15rsonpath_syntax3str17JsonStringBuildercB11_NCINvXs8_NtB8_5multiINtB2b_9FoldMany0NvNvNtB15_6parser21member_name_shorthand9name_charNCB2F_0NvMs_B13_B11_3newB11_EINtB6_6ParserReE7processINtB6_7OutputMBz_Bz_NtB6_9StreamingEEs0_0EB15_:
  282|  8.92k|  fn combine<T, U, V, F: FnOnce(T, U) -> V>(
  283|  8.92k|    x: Self::Output<T>,
  284|  8.92k|    y: Self::Output<U>,
  285|  8.92k|    f: F,
  286|  8.92k|  ) -> Self::Output<V> {
  287|  8.92k|    f(x, y)
  288|  8.92k|  }
_RNvXsd_NtCshuHlpjMNnjS_3nom8internalNtB5_8CompleteNtB5_11IsStreaming12is_streamingCsd77JCpXvqG6_15rsonpath_syntax:
  384|  29.5k|  fn is_streaming() -> bool {
  385|  29.5k|    false
  386|  29.5k|  }
_RINvXsa_NtCshuHlpjMNnjS_3nom8internalNtB6_4EmitNtB6_4Mode3mapNtCsd77JCpXvqG6_15rsonpath_syntax11LogicalExprNtBZ_8SelectorNCINvXsn_B6_INtB6_4IntoINtNtB8_8sequence8PrecededNCINvNtNtB8_9character8complete4charReNtNtBZ_5error18InternalParseErrorE0NCINvNtBZ_6parser17ignore_whitespaceBX_NCNvB3Y_15filter_selector0B3k_E0EB1H_B3k_EINtB6_6ParserB3i_E7processINtB6_7OutputMBz_Bz_NtB6_9StreamingEE0EBZ_:
  277|  8.40k|  fn map<T, U, F: FnOnce(T) -> U>(x: Self::Output<T>, f: F) -> Self::Output<U> {
  278|  8.40k|    f(x)
  279|  8.40k|  }
_RINvXsa_NtCshuHlpjMNnjS_3nom8internalNtB6_4EmitNtB6_4Mode3mapNtCsd77JCpXvqG6_15rsonpath_syntax7LiteralNtBZ_10ComparableNCINvXsn_B6_INtB6_4IntoNvNtBZ_6parser7literalB1C_NtNtBZ_5error18InternalParseErrorEINtB6_6ParserReE7processINtB6_7OutputMBz_Bz_NtB6_9StreamingEE0EBZ_:
  277|  3.05k|  fn map<T, U, F: FnOnce(T) -> U>(x: Self::Output<T>, f: F) -> Self::Output<U> {
  278|  3.05k|    f(x)
  279|  3.05k|  }
_RINvXsa_NtCshuHlpjMNnjS_3nom8internalNtB6_4EmitNtB6_4Mode3mapNtCsd77JCpXvqG6_15rsonpath_syntax8SelectorNtBZ_9SelectorsNCINvXsg_B6_INtB6_3MapNvNtBZ_6parser17wildcard_selectorNvMsq_BZ_B1D_3oneEINtB6_6ParserReE7processINtB6_7OutputMBz_Bz_NtB6_9StreamingEE0EBZ_:
  277|  2.90k|  fn map<T, U, F: FnOnce(T) -> U>(x: Self::Output<T>, f: F) -> Self::Output<U> {
  278|  2.90k|    f(x)
  279|  2.90k|  }
_RINvXsa_NtCshuHlpjMNnjS_3nom8internalNtB6_4EmitNtB6_4Mode3mapNtCsd77JCpXvqG6_15rsonpath_syntax9SelectorsNtBZ_7SegmentNCINvXsg_B6_INtB6_3MapINtNtB8_6branch6ChoiceTNCNvNtBZ_6parser13child_segment0INtNtB8_8sequence8PrecededNCINvNtNtB8_9character8complete4charReNtNtBZ_5error18InternalParseErrorE0INtNtB8_10combinator3CutIB2e_TIB24_NvB2E_17wildcard_selectorNvMsq_BZ_BX_3oneENvB2E_21member_name_shorthandNCINvB2E_14failed_segmentBX_E0EEEEEENcNtB1E_5Child0EINtB6_6ParserB46_E7processINtB6_7OutputMBz_Bz_NtB6_9StreamingEE0EBZ_:
  277|  12.3k|  fn map<T, U, F: FnOnce(T) -> U>(x: Self::Output<T>, f: F) -> Self::Output<U> {
  278|  12.3k|    f(x)
  279|  12.3k|  }
_RINvXsa_NtCshuHlpjMNnjS_3nom8internalNtB6_4EmitNtB6_4Mode3mapNtCsd77JCpXvqG6_15rsonpath_syntax9SelectorsNtBZ_7SegmentNCINvXsg_B6_INtB6_3MapINtNtB8_8sequence8PrecededNCINvNtNtB8_5bytes8complete3tagReB38_NtNtBZ_5error18InternalParseErrorE0INtNtB8_10combinator3CutINtNtB8_6branch6ChoiceTNCNvNtBZ_6parser18descendant_segment0IB24_NvB4C_17wildcard_selectorNvMsq_BZ_BX_3oneENvB4C_21member_name_shorthandNCINvB4C_14failed_segmentBX_E0EEEENcNtB1E_10Descendant0EINtB6_6ParserB38_E7processINtB6_7OutputMBz_Bz_NtB6_9StreamingEE0EBZ_:
  277|  1.84k|  fn map<T, U, F: FnOnce(T) -> U>(x: Self::Output<T>, f: F) -> Self::Output<U> {
  278|  1.84k|    f(x)
  279|  1.84k|  }
_RINvXsa_NtCshuHlpjMNnjS_3nom8internalNtB6_4EmitNtB6_4Mode3mapNtNtCsd77JCpXvqG6_15rsonpath_syntax3num10JsonNumberNtB11_7LiteralNCINvXsn_B6_INtB6_4IntoNvNtB11_6parser6numberB1M_NtNtB11_5error18InternalParseErrorEINtB6_6ParserReE7processINtB6_7OutputMBz_Bz_NtB6_9StreamingEE0EB11_:
  277|  8.44k|  fn map<T, U, F: FnOnce(T) -> U>(x: Self::Output<T>, f: F) -> Self::Output<U> {
  278|  8.44k|    f(x)
  279|  8.44k|  }
_RINvXsa_NtCshuHlpjMNnjS_3nom8internalNtB6_4EmitNtB6_4Mode3mapNtNtCsd77JCpXvqG6_15rsonpath_syntax3num9JsonFloatNtBZ_10JsonNumberNCINvXsg_B6_INtB6_3MapNvNtB11_6parser5floatNCNvB2p_6number0EINtB6_6ParserReE7processINtB6_7OutputMBz_Bz_NtB6_9StreamingEE0EB11_:
  277|  8.44k|  fn map<T, U, F: FnOnce(T) -> U>(x: Self::Output<T>, f: F) -> Self::Output<U> {
  278|  8.44k|    f(x)
  279|  8.44k|  }
_RINvXsa_NtCshuHlpjMNnjS_3nom8internalNtB6_4EmitNtB6_4Mode3mapNtNtCsd77JCpXvqG6_15rsonpath_syntax3str10JsonStringNtB11_7LiteralNCINvXsn_B6_INtB6_4IntoNvNtB11_6parser14string_literalB1M_NtNtB11_5error18InternalParseErrorEINtB6_6ParserReE7processINtB6_7OutputMBz_Bz_NtB6_9StreamingEE0EB11_:
  277|    828|  fn map<T, U, F: FnOnce(T) -> U>(x: Self::Output<T>, f: F) -> Self::Output<U> {
  278|    828|    f(x)
  279|    828|  }
_RINvXsa_NtCshuHlpjMNnjS_3nom8internalNtB6_4EmitNtB6_4Mode3mapNtNtCsd77JCpXvqG6_15rsonpath_syntax3str10JsonStringNtB11_8SelectorNCINvXsg_B6_INtB6_3MapNvNtB11_6parser14string_literalNcNtB1M_4Name0EINtB6_6ParserReE7processINtB6_7OutputMBz_Bz_NtB6_9StreamingEE0EB11_:
  277|  1.12k|  fn map<T, U, F: FnOnce(T) -> U>(x: Self::Output<T>, f: F) -> Self::Output<U> {
  278|  1.12k|    f(x)
  279|  1.12k|  }
_RINvXsa_NtCshuHlpjMNnjS_3nom8internalNtB6_4EmitNtB6_4Mode3mapNtNtCsd77JCpXvqG6_15rsonpath_syntax3str17JsonStringBuilderNtB11_9SelectorsNCINvXsg_B6_INtB6_3MapINtNtB8_8sequence8PrecededINtNtB8_10combinator4PeekNvNvNtB11_6parser21member_name_shorthand10name_firstEINtNtB8_5multi9FoldMany0NvB3m_9name_charNCB3m_0NvMs_BZ_BX_3newBX_EENCB3m_s_0EINtB6_6ParserReE7processINtB6_7OutputMBz_Bz_NtB6_9StreamingEE0EB11_:
  277|  6.16k|  fn map<T, U, F: FnOnce(T) -> U>(x: Self::Output<T>, f: F) -> Self::Output<U> {
  278|  6.16k|    f(x)
  279|  6.16k|  }
_RINvXsa_NtCshuHlpjMNnjS_3nom8internalNtB6_4EmitNtB6_4Mode3mapNtNtCsd77JCpXvqG6_15rsonpath_syntax5error18InternalParseErrorBX_NCINvXs1_NtB8_6branchINtB28_6ChoiceTNCNvNtB11_6parser13child_segment0INtNtB8_8sequence8PrecededNCINvNtNtB8_9character8complete4charReBX_E0INtNtB8_10combinator3CutIB2l_TINtB6_3MapNvB2D_17wildcard_selectorNvMsq_B11_NtB11_9Selectors3oneENvB2D_21member_name_shorthandNCINvB2D_14failed_segmentB5q_E0EEEEEEINtB6_6ParserB46_E7processINtB6_7OutputMBz_Bz_NtB6_9StreamingEEs_0EB11_:
  277|  3.62k|  fn map<T, U, F: FnOnce(T) -> U>(x: Self::Output<T>, f: F) -> Self::Output<U> {
  278|  3.62k|    f(x)
  279|  3.62k|  }
_RINvXsa_NtCshuHlpjMNnjS_3nom8internalNtB6_4EmitNtB6_4Mode3mapNtNtCsd77JCpXvqG6_15rsonpath_syntax5error18InternalParseErrorBX_NCINvXsn_B6_INtB6_4IntoINtNtB8_8sequence8PrecededNCINvNtNtB8_9character8complete4charReBX_E0NCINvNtB11_6parser17ignore_whitespaceNtB11_11LogicalExprNCNvB3y_15filter_selector0BX_E0ENtB11_8SelectorBX_EINtB6_6ParserB3m_E7processINtB6_7OutputMBz_Bz_NtB6_9StreamingEEs_0EB11_:
  277|  6.93k|  fn map<T, U, F: FnOnce(T) -> U>(x: Self::Output<T>, f: F) -> Self::Output<U> {
  278|  6.93k|    f(x)
  279|  6.93k|  }
_RINvXsa_NtCshuHlpjMNnjS_3nom8internalNtB6_4EmitNtB6_4Mode3mapNtNtCsd77JCpXvqG6_15rsonpath_syntax5error18InternalParseErrorBX_NCINvXsn_B6_INtB6_4IntoNvNtB11_6parser14string_literalNtB11_7LiteralBX_EINtB6_6ParserReE7processINtB6_7OutputMBz_Bz_NtB6_9StreamingEEs_0EB11_:
  277|  28.4k|  fn map<T, U, F: FnOnce(T) -> U>(x: Self::Output<T>, f: F) -> Self::Output<U> {
  278|  28.4k|    f(x)
  279|  28.4k|  }
_RINvXsa_NtCshuHlpjMNnjS_3nom8internalNtB6_4EmitNtB6_4Mode3mapNtNtCsd77JCpXvqG6_15rsonpath_syntax5error18InternalParseErrorBX_NCINvXsn_B6_INtB6_4IntoNvNtB11_6parser6numberNtB11_7LiteralBX_EINtB6_6ParserReE7processINtB6_7OutputMBz_Bz_NtB6_9StreamingEEs_0EB11_:
  277|  29.5k|  fn map<T, U, F: FnOnce(T) -> U>(x: Self::Output<T>, f: F) -> Self::Output<U> {
  278|  29.5k|    f(x)
  279|  29.5k|  }
_RINvXsa_NtCshuHlpjMNnjS_3nom8internalNtB6_4EmitNtB6_4Mode3mapNtNtCsd77JCpXvqG6_15rsonpath_syntax5error18InternalParseErrorBX_NCINvXsn_B6_INtB6_4IntoNvNtB11_6parser7literalNtB11_10ComparableBX_EINtB6_6ParserReE7processINtB6_7OutputMBz_Bz_NtB6_9StreamingEEs_0EB11_:
  277|  5.64k|  fn map<T, U, F: FnOnce(T) -> U>(x: Self::Output<T>, f: F) -> Self::Output<U> {
  278|  5.64k|    f(x)
  279|  5.64k|  }
_RINvXsa_NtCshuHlpjMNnjS_3nom8internalNtB6_4EmitNtB6_4Mode3mapReNtCsd77JCpXvqG6_15rsonpath_syntax8SelectorNCINvXsg_B6_INtB6_3MapNCINvNtNtB8_5bytes8complete3tagBX_BX_NtNtB11_5error18InternalParseErrorE0NCNvNtB11_6parser17wildcard_selector0EINtB6_6ParserBX_E7processINtB6_7OutputMBz_Bz_NtB6_9StreamingEE0EB11_:
  277|  4.31k|  fn map<T, U, F: FnOnce(T) -> U>(x: Self::Output<T>, f: F) -> Self::Output<U> {
  278|  4.31k|    f(x)
  279|  4.31k|  }
_RINvXsa_NtCshuHlpjMNnjS_3nom8internalNtB6_4EmitNtB6_4Mode4bindNtNtCsd77JCpXvqG6_15rsonpath_syntax5error18InternalParseErrorNCNCINvXsf_B6_INvNtNtB8_9character8complete6digit1ReBY_EINtB6_6ParserB2L_E7processINtB6_7OutputMBz_Bz_NtB6_9StreamingEE00EB12_:
  272|  29.7k|  fn bind<T, F: FnOnce() -> T>(f: F) -> Self::Output<T> {
  273|  29.7k|    f()
  274|  29.7k|  }
_RINvXsa_NtCshuHlpjMNnjS_3nom8internalNtB6_4EmitNtB6_4Mode4bindNtNtCsd77JCpXvqG6_15rsonpath_syntax5error18InternalParseErrorNCNCINvXsf_B6_INvNtNtB8_9character8complete6digit1ReBY_EINtB6_6ParserB2L_E7processINtB6_7OutputMNtB6_5CheckBz_NtB6_9StreamingEE00EB12_:
  272|  78.1k|  fn bind<T, F: FnOnce() -> T>(f: F) -> Self::Output<T> {
  273|  78.1k|    f()
  274|  78.1k|  }
_RINvXsa_NtCshuHlpjMNnjS_3nom8internalNtB6_4EmitNtB6_4Mode4bindNtNtCsd77JCpXvqG6_15rsonpath_syntax5error18InternalParseErrorNCNCINvXsf_B6_NCINvNtB12_6parser17ignore_whitespaceNtB12_8SelectorNCNvB2g_8selector0BY_E0INtB6_6ParserReE7processINtB6_7OutputMBz_Bz_NtB6_9StreamingEE00EB12_:
  272|  6.93k|  fn bind<T, F: FnOnce() -> T>(f: F) -> Self::Output<T> {
  273|  6.93k|    f()
  274|  6.93k|  }
_RINvXsa_NtCshuHlpjMNnjS_3nom8internalNtB6_4EmitNtB6_4Mode4bindNtNtCsd77JCpXvqG6_15rsonpath_syntax5error18InternalParseErrorNCNCINvXsf_B6_NCINvNtB12_6parser17ignore_whitespaceNtB12_8SelectorNvB2g_13name_selectorBY_E0INtB6_6ParserReE7processINtB6_7OutputMBz_Bz_NtB6_9StreamingEE00EB12_:
  272|  48.9k|  fn bind<T, F: FnOnce() -> T>(f: F) -> Self::Output<T> {
  273|  48.9k|    f()
  274|  48.9k|  }
_RINvXsa_NtCshuHlpjMNnjS_3nom8internalNtB6_4EmitNtB6_4Mode4bindNtNtCsd77JCpXvqG6_15rsonpath_syntax5error18InternalParseErrorNCNCINvXsf_B6_NCINvNtB12_6parser17ignore_whitespaceNtB12_8SelectorNvB2g_14index_selectorBY_E0INtB6_6ParserReE7processINtB6_7OutputMBz_Bz_NtB6_9StreamingEE00EB12_:
  272|  33.5k|  fn bind<T, F: FnOnce() -> T>(f: F) -> Self::Output<T> {
  273|  33.5k|    f()
  274|  33.5k|  }
_RINvXsa_NtCshuHlpjMNnjS_3nom8internalNtB6_4EmitNtB6_4Mode4bindNtNtCsd77JCpXvqG6_15rsonpath_syntax5error18InternalParseErrorNCNCINvXsf_B6_NCINvNtB12_6parser17ignore_whitespaceNtB12_8SelectorNvB2g_14slice_selectorBY_E0INtB6_6ParserReE7processINtB6_7OutputMBz_Bz_NtB6_9StreamingEE00EB12_:
  272|  39.6k|  fn bind<T, F: FnOnce() -> T>(f: F) -> Self::Output<T> {
  273|  39.6k|    f()
  274|  39.6k|  }
_RINvXsa_NtCshuHlpjMNnjS_3nom8internalNtB6_4EmitNtB6_4Mode4bindNtNtCsd77JCpXvqG6_15rsonpath_syntax5error18InternalParseErrorNCNCINvXsf_B6_NCINvNtB12_6parser17ignore_whitespaceNtB12_8SelectorNvB2g_17wildcard_selectorBY_E0INtB6_6ParserReE7processINtB6_7OutputMBz_Bz_NtB6_9StreamingEE00EB12_:
  272|  47.5k|  fn bind<T, F: FnOnce() -> T>(f: F) -> Self::Output<T> {
  273|  47.5k|    f()
  274|  47.5k|  }
_RINvXsa_NtCshuHlpjMNnjS_3nom8internalNtB6_4EmitNtB6_4Mode4bindNtNtCsd77JCpXvqG6_15rsonpath_syntax5error18InternalParseErrorNCNCINvXsf_B6_NCINvNtB12_6parser17ignore_whitespacecNCINvNtNtB8_9character8complete4charReBY_E0BY_E0INtB6_6ParserB3n_E7processINtB6_7OutputMNtB6_5CheckBz_NtB6_9StreamingEE00EB12_:
  272|  39.6k|  fn bind<T, F: FnOnce() -> T>(f: F) -> Self::Output<T> {
  273|  39.6k|    f()
  274|  39.6k|  }
_RINvXsa_NtCshuHlpjMNnjS_3nom8internalNtB6_4EmitNtB6_4Mode4bindNtNtCsd77JCpXvqG6_15rsonpath_syntax5error18InternalParseErrorNCNCINvXsf_B6_NCINvNtNtB8_5bytes8complete3tagReB2G_BY_E0INtB6_6ParserB2G_E7processINtB6_7OutputMBz_Bz_NtB6_9StreamingEE00EB12_:
  272|   251k|  fn bind<T, F: FnOnce() -> T>(f: F) -> Self::Output<T> {
  273|   251k|    f()
  274|   251k|  }
_RINvXsa_NtCshuHlpjMNnjS_3nom8internalNtB6_4EmitNtB6_4Mode4bindNtNtCsd77JCpXvqG6_15rsonpath_syntax5error18InternalParseErrorNCNCINvXsf_B6_NCINvNtNtB8_5bytes8complete3tagReB2G_BY_E0INtB6_6ParserB2G_E7processINtB6_7OutputMNtB6_5CheckBz_NtB6_9StreamingEE00EB12_:
  272|  39.3k|  fn bind<T, F: FnOnce() -> T>(f: F) -> Self::Output<T> {
  273|  39.3k|    f()
  274|  39.3k|  }
_RINvXsa_NtCshuHlpjMNnjS_3nom8internalNtB6_4EmitNtB6_4Mode4bindNtNtCsd77JCpXvqG6_15rsonpath_syntax5error18InternalParseErrorNCNCINvXsf_B6_NCINvNtNtB8_9character8complete4charReBY_E0INtB6_6ParserB2L_E7processINtB6_7OutputMBz_Bz_NtB6_9StreamingEE00EB12_:
  272|  74.3k|  fn bind<T, F: FnOnce() -> T>(f: F) -> Self::Output<T> {
  273|  74.3k|    f()
  274|  74.3k|  }
_RINvXsa_NtCshuHlpjMNnjS_3nom8internalNtB6_4EmitNtB6_4Mode4bindNtNtCsd77JCpXvqG6_15rsonpath_syntax5error18InternalParseErrorNCNCINvXsf_B6_NCINvNtNtB8_9character8complete4charReBY_E0INtB6_6ParserB2L_E7processINtB6_7OutputMNtB6_5CheckBz_NtB6_9StreamingEE00EB12_:
  272|   299k|  fn bind<T, F: FnOnce() -> T>(f: F) -> Self::Output<T> {
  273|   299k|    f()
  274|   299k|  }
_RINvXsa_NtCshuHlpjMNnjS_3nom8internalNtB6_4EmitNtB6_4Mode4bindNtNtCsd77JCpXvqG6_15rsonpath_syntax5error18InternalParseErrorNCNCINvXsf_B6_NCINvNtNtB8_9character8complete7satisfyNCNvNvNtB12_6parser21member_name_shorthand9name_char0ReBY_E0INtB6_6ParserB3F_E7processINtB6_7OutputMBz_Bz_NtB6_9StreamingEE00EB12_:
  272|  6.16k|  fn bind<T, F: FnOnce() -> T>(f: F) -> Self::Output<T> {
  273|  6.16k|    f()
  274|  6.16k|  }
_RINvXsa_NtCshuHlpjMNnjS_3nom8internalNtB6_4EmitNtB6_4Mode4bindNtNtCsd77JCpXvqG6_15rsonpath_syntax5error18InternalParseErrorNCNCINvXsf_B6_NCNvNtB12_6parser10comparable0INtB6_6ParserReE7processINtB6_7OutputMBz_Bz_NtB6_9StreamingEE00EB12_:
  272|    986|  fn bind<T, F: FnOnce() -> T>(f: F) -> Self::Output<T> {
  273|    986|    f()
  274|    986|  }
_RINvXsa_NtCshuHlpjMNnjS_3nom8internalNtB6_4EmitNtB6_4Mode4bindNtNtCsd77JCpXvqG6_15rsonpath_syntax5error18InternalParseErrorNCNCINvXsf_B6_NCNvNtB12_6parser12filter_query0INtB6_6ParserReE7processINtB6_7OutputMBz_Bz_NtB6_9StreamingEE00EB12_:
  272|  16.9k|  fn bind<T, F: FnOnce() -> T>(f: F) -> Self::Output<T> {
  273|  16.9k|    f()
  274|  16.9k|  }
_RINvXsa_NtCshuHlpjMNnjS_3nom8internalNtB6_4EmitNtB6_4Mode4bindNtNtCsd77JCpXvqG6_15rsonpath_syntax5error18InternalParseErrorNCNCINvXsf_B6_NCNvNtB12_6parser13child_segment0INtB6_6ParserReE7processINtB6_7OutputMBz_Bz_NtB6_9StreamingEE00EB12_:
  272|  15.5k|  fn bind<T, F: FnOnce() -> T>(f: F) -> Self::Output<T> {
  273|  15.5k|    f()
  274|  15.5k|  }
_RINvXsa_NtCshuHlpjMNnjS_3nom8internalNtB6_4EmitNtB6_4Mode4bindNtNtCsd77JCpXvqG6_15rsonpath_syntax5error18InternalParseErrorNCNCINvXsf_B6_NCNvNtB12_6parser18descendant_segment0INtB6_6ParserReE7processINtB6_7OutputMBz_Bz_NtB6_9StreamingEE00EB12_:
  272|  4.46k|  fn bind<T, F: FnOnce() -> T>(f: F) -> Self::Output<T> {
  273|  4.46k|    f()
  274|  4.46k|  }
_RINvXsa_NtCshuHlpjMNnjS_3nom8internalNtB6_4EmitNtB6_4Mode4bindNtNtCsd77JCpXvqG6_15rsonpath_syntax5error18InternalParseErrorNCNCINvXsf_B6_NCNvNtB12_6parser7segment0INtB6_6ParserReE7processINtB6_7OutputMBz_Bz_NtB6_9StreamingEE00EB12_:
  272|  22.4k|  fn bind<T, F: FnOnce() -> T>(f: F) -> Self::Output<T> {
  273|  22.4k|    f()
  274|  22.4k|  }
_RINvXsa_NtCshuHlpjMNnjS_3nom8internalNtB6_4EmitNtB6_4Mode4bindNtNtCsd77JCpXvqG6_15rsonpath_syntax5error18InternalParseErrorNCNCINvXsf_B6_NCNvNtB12_6parser7segments_0INtB6_6ParserReE7processINtB6_7OutputMBz_Bz_NtB6_9StreamingEE00EB12_:
  272|  3.62k|  fn bind<T, F: FnOnce() -> T>(f: F) -> Self::Output<T> {
  273|  3.62k|    f()
  274|  3.62k|  }
_RINvXsa_NtCshuHlpjMNnjS_3nom8internalNtB6_4EmitNtB6_4Mode4bindNtNtCsd77JCpXvqG6_15rsonpath_syntax5error18InternalParseErrorNCNCINvXsf_B6_NCNvNtB12_6parser8selector0INtB6_6ParserReE7processINtB6_7OutputMBz_Bz_NtB6_9StreamingEE00EB12_:
  272|  6.93k|  fn bind<T, F: FnOnce() -> T>(f: F) -> Self::Output<T> {
  273|  6.93k|    f()
  274|  6.93k|  }
_RINvXsa_NtCshuHlpjMNnjS_3nom8internalNtB6_4EmitNtB6_4Mode4bindNtNtCsd77JCpXvqG6_15rsonpath_syntax5error18InternalParseErrorNCNCINvXsf_B6_NvNtB12_6parser13name_selectorINtB6_6ParserReE7processINtB6_7OutputMBz_Bz_NtB6_9StreamingEE00EB12_:
  272|  48.9k|  fn bind<T, F: FnOnce() -> T>(f: F) -> Self::Output<T> {
  273|  48.9k|    f()
  274|  48.9k|  }
_RINvXsa_NtCshuHlpjMNnjS_3nom8internalNtB6_4EmitNtB6_4Mode4bindNtNtCsd77JCpXvqG6_15rsonpath_syntax5error18InternalParseErrorNCNCINvXsf_B6_NvNtB12_6parser14index_selectorINtB6_6ParserReE7processINtB6_7OutputMBz_Bz_NtB6_9StreamingEE00EB12_:
  272|  33.5k|  fn bind<T, F: FnOnce() -> T>(f: F) -> Self::Output<T> {
  273|  33.5k|    f()
  274|  33.5k|  }
_RINvXsa_NtCshuHlpjMNnjS_3nom8internalNtB6_4EmitNtB6_4Mode4bindNtNtCsd77JCpXvqG6_15rsonpath_syntax5error18InternalParseErrorNCNCINvXsf_B6_NvNtB12_6parser14slice_selectorINtB6_6ParserReE7processINtB6_7OutputMBz_Bz_NtB6_9StreamingEE00EB12_:
  272|  39.6k|  fn bind<T, F: FnOnce() -> T>(f: F) -> Self::Output<T> {
  273|  39.6k|    f()
  274|  39.6k|  }
_RINvXsa_NtCshuHlpjMNnjS_3nom8internalNtB6_4EmitNtB6_4Mode4bindNtNtCsd77JCpXvqG6_15rsonpath_syntax5error18InternalParseErrorNCNCINvXsf_B6_NvNtB12_6parser14string_literalINtB6_6ParserReE7processINtB6_7OutputMBz_Bz_NtB6_9StreamingEE00EB12_:
  272|  77.4k|  fn bind<T, F: FnOnce() -> T>(f: F) -> Self::Output<T> {
  273|  77.4k|    f()
  274|  77.4k|  }
_RINvXsa_NtCshuHlpjMNnjS_3nom8internalNtB6_4EmitNtB6_4Mode4bindNtNtCsd77JCpXvqG6_15rsonpath_syntax5error18InternalParseErrorNCNCINvXsf_B6_NvNtB12_6parser17wildcard_selectorINtB6_6ParserReE7processINtB6_7OutputMBz_Bz_NtB6_9StreamingEE00EB12_:
  272|  60.9k|  fn bind<T, F: FnOnce() -> T>(f: F) -> Self::Output<T> {
  273|  60.9k|    f()
  274|  60.9k|  }
_RINvXsa_NtCshuHlpjMNnjS_3nom8internalNtB6_4EmitNtB6_4Mode4bindNtNtCsd77JCpXvqG6_15rsonpath_syntax5error18InternalParseErrorNCNCINvXsf_B6_NvNtB12_6parser21member_name_shorthandINtB6_6ParserReE7processINtB6_7OutputMBz_Bz_NtB6_9StreamingEE00EB12_:
  272|  7.31k|  fn bind<T, F: FnOnce() -> T>(f: F) -> Self::Output<T> {
  273|  7.31k|    f()
  274|  7.31k|  }
_RINvXsa_NtCshuHlpjMNnjS_3nom8internalNtB6_4EmitNtB6_4Mode4bindNtNtCsd77JCpXvqG6_15rsonpath_syntax5error18InternalParseErrorNCNCINvXsf_B6_NvNtB12_6parser3intINtB6_6ParserReE7processINtB6_7OutputMBz_Bz_NtB6_9StreamingEE00EB12_:
  272|  5.02k|  fn bind<T, F: FnOnce() -> T>(f: F) -> Self::Output<T> {
  273|  5.02k|    f()
  274|  5.02k|  }
_RINvXsa_NtCshuHlpjMNnjS_3nom8internalNtB6_4EmitNtB6_4Mode4bindNtNtCsd77JCpXvqG6_15rsonpath_syntax5error18InternalParseErrorNCNCINvXsf_B6_NvNtB12_6parser5floatINtB6_6ParserReE7processINtB6_7OutputMBz_Bz_NtB6_9StreamingEE00EB12_:
  272|  29.5k|  fn bind<T, F: FnOnce() -> T>(f: F) -> Self::Output<T> {
  273|  29.5k|    f()
  274|  29.5k|  }
_RINvXsa_NtCshuHlpjMNnjS_3nom8internalNtB6_4EmitNtB6_4Mode4bindNtNtCsd77JCpXvqG6_15rsonpath_syntax5error18InternalParseErrorNCNCINvXsf_B6_NvNtB12_6parser6numberINtB6_6ParserReE7processINtB6_7OutputMBz_Bz_NtB6_9StreamingEE00EB12_:
  272|  29.5k|  fn bind<T, F: FnOnce() -> T>(f: F) -> Self::Output<T> {
  273|  29.5k|    f()
  274|  29.5k|  }
_RINvXsa_NtCshuHlpjMNnjS_3nom8internalNtB6_4EmitNtB6_4Mode4bindNtNtCsd77JCpXvqG6_15rsonpath_syntax5error18InternalParseErrorNCNCINvXsf_B6_NvNtB12_6parser7literalINtB6_6ParserReE7processINtB6_7OutputMBz_Bz_NtB6_9StreamingEE00EB12_:
  272|  5.64k|  fn bind<T, F: FnOnce() -> T>(f: F) -> Self::Output<T> {
  273|  5.64k|    f()
  274|  5.64k|  }
_RINvXsa_NtCshuHlpjMNnjS_3nom8internalNtB6_4EmitNtB6_4Mode4bindNtNtCsd77JCpXvqG6_15rsonpath_syntax5error18InternalParseErrorNCNCINvXsf_B6_NvNvNtB12_6parser21member_name_shorthand10name_firstINtB6_6ParserReE7processINtB6_7OutputMBz_Bz_NtB6_9StreamingEE00EB12_:
  272|  6.68k|  fn bind<T, F: FnOnce() -> T>(f: F) -> Self::Output<T> {
  273|  6.68k|    f()
  274|  6.68k|  }
_RINvXsa_NtCshuHlpjMNnjS_3nom8internalNtB6_4EmitNtB6_4Mode4bindNtNtCsd77JCpXvqG6_15rsonpath_syntax5error18InternalParseErrorNCNCINvXsf_B6_NvNvNtB12_6parser21member_name_shorthand10name_firstINtB6_6ParserReE7processINtB6_7OutputMNtB6_5CheckBz_NtB6_9StreamingEE00EB12_:
  272|  7.31k|  fn bind<T, F: FnOnce() -> T>(f: F) -> Self::Output<T> {
  273|  7.31k|    f()
  274|  7.31k|  }
_RINvXsa_NtCshuHlpjMNnjS_3nom8internalNtB6_4EmitNtB6_4Mode4bindNtNtCsd77JCpXvqG6_15rsonpath_syntax5error18InternalParseErrorNCNCINvXsf_B6_NvNvNtB12_6parser21member_name_shorthand9name_charINtB6_6ParserReE7processINtB6_7OutputMBz_Bz_NtB6_9StreamingEE00EB12_:
  272|  6.16k|  fn bind<T, F: FnOnce() -> T>(f: F) -> Self::Output<T> {
  273|  6.16k|    f()
  274|  6.16k|  }
_RINvXsa_NtCshuHlpjMNnjS_3nom8internalNtB6_4EmitNtB6_4Mode4bindNtNtCsd77JCpXvqG6_15rsonpath_syntax5error18InternalParseErrorNCNCINvXsf_B6_NvNvNtB12_6parser5float10base_floatINtB6_6ParserReE7processINtB6_7OutputMNtB6_5CheckBz_NtB6_9StreamingEE00EB12_:
  272|  29.7k|  fn bind<T, F: FnOnce() -> T>(f: F) -> Self::Output<T> {
  273|  29.7k|    f()
  274|  29.7k|  }
_RINvXsa_NtCshuHlpjMNnjS_3nom8internalNtB6_4EmitNtB6_4Mode4binduNCNCINvXsf_B6_NCINvNtNtB8_9character8complete4charReuE0INtB6_6ParserB1N_E7processINtB6_7OutputMBz_Bz_NtB6_9StreamingEE00ECsd77JCpXvqG6_15rsonpath_syntax:
  272|  2.23k|  fn bind<T, F: FnOnce() -> T>(f: F) -> Self::Output<T> {
  273|  2.23k|    f()
  274|  2.23k|  }
_RINvXsa_NtCshuHlpjMNnjS_3nom8internalNtB6_4EmitNtB6_4Mode4binduNCNCINvXsf_B6_NCINvNtNtB8_9character8complete6one_ofReB1P_uE0INtB6_6ParserB1P_E7processINtB6_7OutputMBz_Bz_NtB6_9StreamingEE00ECsd77JCpXvqG6_15rsonpath_syntax:
  272|  24.3k|  fn bind<T, F: FnOnce() -> T>(f: F) -> Self::Output<T> {
  273|  24.3k|    f()
  274|  24.3k|  }
_RINvXsa_NtCshuHlpjMNnjS_3nom8internalNtB6_4EmitNtB6_4Mode7combineNtNtCsd77JCpXvqG6_15rsonpath_syntax5error18InternalParseErrorB11_B11_NCINvXs1_NtB8_6branchINtB2h_6ChoiceTNCNvNtB15_6parser13child_segment0INtNtB8_8sequence8PrecededNCINvNtNtB8_9character8complete4charReB11_E0INtNtB8_10combinator3CutIB2u_TINtB6_3MapNvB2M_17wildcard_selectorNvMsq_B15_NtB15_9Selectors3oneENvB2M_21member_name_shorthandNCINvB2M_14failed_segmentB5A_E0EEEEEEINtB6_6ParserB4f_E7processINtB6_7OutputMBz_Bz_NtB6_9StreamingEE0EB15_:
  282|  3.62k|  fn combine<T, U, V, F: FnOnce(T, U) -> V>(
  283|  3.62k|    x: Self::Output<T>,
  284|  3.62k|    y: Self::Output<U>,
  285|  3.62k|    f: F,
  286|  3.62k|  ) -> Self::Output<V> {
  287|  3.62k|    f(x, y)
  288|  3.62k|  }
_RINvXsb_NtCshuHlpjMNnjS_3nom8internalNtB6_5CheckNtB6_4Mode4bindNtNtCsd77JCpXvqG6_15rsonpath_syntax5error18InternalParseErrorNCNCINvXsf_B6_INvNtNtB8_9character8complete6digit1ReBZ_EINtB6_6ParserB2M_E7processINtB6_7OutputMNtB6_4EmitBz_NtB6_9StreamingEE00EB13_:
  302|    913|  fn bind<T, F: FnOnce() -> T>(_: F) -> Self::Output<T> {}
_RINvXsb_NtCshuHlpjMNnjS_3nom8internalNtB6_5CheckNtB6_4Mode4bindNtNtCsd77JCpXvqG6_15rsonpath_syntax5error18InternalParseErrorNCNCINvXsf_B6_NCINvNtB13_6parser17ignore_whitespaceINtNtCs6SNw0SRvItZ_4core6option6OptionReEINtNtB8_8sequence8PrecededNCINvNtNtB8_9character8complete4charB3p_BZ_E0INtNtB8_10combinator3OptNCIB2f_B3p_NvB2h_3intBZ_E0EEBZ_E0INtB6_6ParserB3p_E7processINtB6_7OutputMNtB6_4EmitBz_NtB6_9StreamingEE00EB13_:
  302|  2.64k|  fn bind<T, F: FnOnce() -> T>(_: F) -> Self::Output<T> {}
_RINvXsb_NtCshuHlpjMNnjS_3nom8internalNtB6_5CheckNtB6_4Mode4bindNtNtCsd77JCpXvqG6_15rsonpath_syntax5error18InternalParseErrorNCNCINvXsf_B6_NCINvNtB13_6parser17ignore_whitespaceNtNvB2h_12logical_expr9BooleanOpINtNtB8_6branch6ChoiceTINtB6_3MapNCINvNtNtB8_5bytes8complete3tagReB4l_BZ_E0NCINvNtB8_10combinator5valueB4l_B2N_BZ_B3Q_E0EB3G_EEBZ_E0INtB6_6ParserB4l_E7processINtB6_7OutputMNtB6_4EmitBz_NtB6_9StreamingEE00EB13_:
  302|  12.3k|  fn bind<T, F: FnOnce() -> T>(_: F) -> Self::Output<T> {}
_RINvXsb_NtCshuHlpjMNnjS_3nom8internalNtB6_5CheckNtB6_4Mode4bindNtNtCsd77JCpXvqG6_15rsonpath_syntax5error18InternalParseErrorNCNCINvXsf_B6_NCINvNtB13_6parser17ignore_whitespaceReNvB2h_3intBZ_E0INtB6_6ParserB2N_E7processINtB6_7OutputMNtB6_4EmitBz_NtB6_9StreamingEE00EB13_:
  302|  5.02k|  fn bind<T, F: FnOnce() -> T>(_: F) -> Self::Output<T> {}
_RINvXsb_NtCshuHlpjMNnjS_3nom8internalNtB6_5CheckNtB6_4Mode4bindNtNtCsd77JCpXvqG6_15rsonpath_syntax5error18InternalParseErrorNCNCINvXsf_B6_NCINvNtNtB8_5bytes8complete11tag_no_caseReB2Q_BZ_E0INtB6_6ParserB2Q_E7processINtB6_7OutputMBz_Bz_NtB6_9StreamingEE00EB13_:
  302|  8.20k|  fn bind<T, F: FnOnce() -> T>(_: F) -> Self::Output<T> {}
_RINvXsb_NtCshuHlpjMNnjS_3nom8internalNtB6_5CheckNtB6_4Mode4bindNtNtCsd77JCpXvqG6_15rsonpath_syntax5error18InternalParseErrorNCNCINvXsf_B6_NCINvNtNtB8_9character8complete4charReBZ_E0INtB6_6ParserB2M_E7processINtB6_7OutputMBz_Bz_NtB6_9StreamingEE00EB13_:
  302|  10.4k|  fn bind<T, F: FnOnce() -> T>(_: F) -> Self::Output<T> {}
_RINvXsb_NtCshuHlpjMNnjS_3nom8internalNtB6_5CheckNtB6_4Mode4bindNtNtCsd77JCpXvqG6_15rsonpath_syntax5error18InternalParseErrorNCNCINvXsf_B6_NCINvNtNtB8_9character8complete4charReBZ_E0INtB6_6ParserB2M_E7processINtB6_7OutputMNtB6_4EmitBz_NtB6_9StreamingEE00EB13_:
  302|  42.7k|  fn bind<T, F: FnOnce() -> T>(_: F) -> Self::Output<T> {}
_RINvXsb_NtCshuHlpjMNnjS_3nom8internalNtB6_5CheckNtB6_4Mode4bindNtNtCsd77JCpXvqG6_15rsonpath_syntax5error18InternalParseErrorNCNCINvXsf_B6_NvNtB13_6parser3intINtB6_6ParserReE7processINtB6_7OutputMNtB6_4EmitBz_NtB6_9StreamingEE00EB13_:
  302|  38.7k|  fn bind<T, F: FnOnce() -> T>(_: F) -> Self::Output<T> {}
_RINvXsg_NtCshuHlpjMNnjS_3nom8internalINtB6_3MapINtNtB8_6branch6ChoiceTNCNvNtCsd77JCpXvqG6_15rsonpath_syntax6parser13child_segment0INtNtB8_8sequence8PrecededNCINvNtNtB8_9character8complete4charReNtNtB1c_5error18InternalParseErrorE0INtNtB8_10combinator3CutIBK_TIBA_NvB1a_17wildcard_selectorNvMsq_B1c_NtB1c_9Selectors3oneENvB1a_21member_name_shorthandNCINvB1a_14failed_segmentB4M_E0EEEEEENcNtNtB1c_7Segment5Child0EINtB6_6ParserB34_E7processINtB6_7OutputMNtB6_4EmitB7f_NtB6_9StreamingEEB1c_:
  592|  39.3k|  fn process<OM: OutputMode>(&mut self, i: I) -> PResult<OM, I, Self::Output, Self::Error> {
  593|  39.3k|    match self.f.process::<OM>(i) {
  594|  27.0k|      Err(e) => Err(e),
  595|  12.3k|      Ok((i, o)) => Ok((i, OM::Output::map(o, |o| (self.g)(o)))),
  596|       |    }
  597|  39.3k|  }
_RINvXsg_NtCshuHlpjMNnjS_3nom8internalINtB6_3MapINtNtB8_8sequence8PrecededINtNtB8_10combinator4PeekNvNvNtCsd77JCpXvqG6_15rsonpath_syntax6parser21member_name_shorthand10name_firstEINtNtB8_5multi9FoldMany0NvB1A_9name_charNCB1A_0NvMs_NtB1E_3strNtB3G_17JsonStringBuilder3newB3Q_EENCB1A_s_0EINtB6_6ParserReE7processINtB6_7OutputMNtB6_4EmitB5b_NtB6_9StreamingEEB1E_:
  592|  13.4k|  fn process<OM: OutputMode>(&mut self, i: I) -> PResult<OM, I, Self::Output, Self::Error> {
  593|  13.4k|    match self.f.process::<OM>(i) {
  594|  7.31k|      Err(e) => Err(e),
  595|  6.16k|      Ok((i, o)) => Ok((i, OM::Output::map(o, |o| (self.g)(o)))),
  596|       |    }
  597|  13.4k|  }
_RINvXsg_NtCshuHlpjMNnjS_3nom8internalINtB6_3MapINtNtB8_8sequence8PrecededNCINvNtNtB8_5bytes8complete3tagReB1E_NtNtCsd77JCpXvqG6_15rsonpath_syntax5error18InternalParseErrorE0INtNtB8_10combinator3CutINtNtB8_6branch6ChoiceTNCNvNtB1O_6parser18descendant_segment0IBA_NvB3A_17wildcard_selectorNvMsq_B1O_NtB1O_9Selectors3oneENvB3A_21member_name_shorthandNCINvB3A_14failed_segmentB4L_E0EEEENcNtNtB1O_7Segment10Descendant0EINtB6_6ParserB1E_E7processINtB6_7OutputMNtB6_4EmitB7i_NtB6_9StreamingEEB1O_:
  592|  44.9k|  fn process<OM: OutputMode>(&mut self, i: I) -> PResult<OM, I, Self::Output, Self::Error> {
  593|  44.9k|    match self.f.process::<OM>(i) {
  594|  43.1k|      Err(e) => Err(e),
  595|  1.84k|      Ok((i, o)) => Ok((i, OM::Output::map(o, |o| (self.g)(o)))),
  596|       |    }
  597|  44.9k|  }
_RINvXsg_NtCshuHlpjMNnjS_3nom8internalINtB6_3MapNCINvNtNtB8_5bytes8complete3tagReB1e_NtNtCsd77JCpXvqG6_15rsonpath_syntax5error18InternalParseErrorE0NCNvNtB1o_6parser17wildcard_selector0EINtB6_6ParserB1e_E7processINtB6_7OutputMNtB6_4EmitB3B_NtB6_9StreamingEEB1o_:
  592|  65.2k|  fn process<OM: OutputMode>(&mut self, i: I) -> PResult<OM, I, Self::Output, Self::Error> {
  593|  65.2k|    match self.f.process::<OM>(i) {
  594|  60.9k|      Err(e) => Err(e),
  595|  4.31k|      Ok((i, o)) => Ok((i, OM::Output::map(o, |o| (self.g)(o)))),
  596|       |    }
  597|  65.2k|  }
_RINvXsg_NtCshuHlpjMNnjS_3nom8internalINtB6_3MapNvNtCsd77JCpXvqG6_15rsonpath_syntax6parser14string_literalNcNtNtBN_8Selector4Name0EINtB6_6ParserReE7processINtB6_7OutputMNtB6_4EmitB2G_NtB6_9StreamingEEBN_:
  592|  51.1k|  fn process<OM: OutputMode>(&mut self, i: I) -> PResult<OM, I, Self::Output, Self::Error> {
  593|  51.1k|    match self.f.process::<OM>(i) {
  594|  50.0k|      Err(e) => Err(e),
  595|  1.12k|      Ok((i, o)) => Ok((i, OM::Output::map(o, |o| (self.g)(o)))),
  596|       |    }
  597|  51.1k|  }
_RINvXsg_NtCshuHlpjMNnjS_3nom8internalINtB6_3MapNvNtCsd77JCpXvqG6_15rsonpath_syntax6parser17wildcard_selectorNvMsq_BN_NtBN_9Selectors3oneEINtB6_6ParserReE7processINtB6_7OutputMNtB6_4EmitB2N_NtB6_9StreamingEEBN_:
  592|  16.3k|  fn process<OM: OutputMode>(&mut self, i: I) -> PResult<OM, I, Self::Output, Self::Error> {
  593|  16.3k|    match self.f.process::<OM>(i) {
  594|  13.4k|      Err(e) => Err(e),
  595|  2.90k|      Ok((i, o)) => Ok((i, OM::Output::map(o, |o| (self.g)(o)))),
  596|       |    }
  597|  16.3k|  }
_RINvXsg_NtCshuHlpjMNnjS_3nom8internalINtB6_3MapNvNtCsd77JCpXvqG6_15rsonpath_syntax6parser5floatNCNvBL_6number0EINtB6_6ParserReE7processINtB6_7OutputMNtB6_4EmitB2n_NtB6_9StreamingEEBN_:
  592|  39.3k|  fn process<OM: OutputMode>(&mut self, i: I) -> PResult<OM, I, Self::Output, Self::Error> {
  593|  39.3k|    match self.f.process::<OM>(i) {
  594|  30.8k|      Err(e) => Err(e),
  595|  8.44k|      Ok((i, o)) => Ok((i, OM::Output::map(o, |o| (self.g)(o)))),
  596|       |    }
  597|  39.3k|  }
_RINvXsn_NtCshuHlpjMNnjS_3nom8internalINtB6_4IntoINtNtB8_8sequence8PrecededNCINvNtNtB8_9character8complete4charReNtNtCsd77JCpXvqG6_15rsonpath_syntax5error18InternalParseErrorE0NCINvNtB1Q_6parser17ignore_whitespaceNtB1Q_11LogicalExprNCNvB2S_15filter_selector0B1M_E0ENtB1Q_8SelectorB1M_EINtB6_6ParserB1K_E7processINtB6_7OutputMNtB6_4EmitB5c_NtB6_9StreamingEEB1Q_:
  773|  33.5k|  fn process<OM: OutputMode>(&mut self, i: I) -> PResult<OM, I, Self::Output, Self::Error> {
  774|  33.5k|    match self.f.process::<OM>(i) {
  775|  8.40k|      Ok((i, o)) => Ok((i, OM::Output::map(o, |o| o.into()))),
  776|  6.93k|      Err(Err::Error(e)) => Err(Err::Error(OM::Error::map(e, |e| e.into()))),
  777|  18.1k|      Err(Err::Failure(e)) => Err(Err::Failure(e.into())),
  778|      0|      Err(Err::Incomplete(e)) => Err(Err::Incomplete(e)),
  779|       |    }
  780|  33.5k|  }
_RINvXsn_NtCshuHlpjMNnjS_3nom8internalINtB6_4IntoNvNtCsd77JCpXvqG6_15rsonpath_syntax6parser14string_literalNtBO_7LiteralNtNtBO_5error18InternalParseErrorEINtB6_6ParserReE7processINtB6_7OutputMNtB6_4EmitB33_NtB6_9StreamingEEBO_:
  773|  29.5k|  fn process<OM: OutputMode>(&mut self, i: I) -> PResult<OM, I, Self::Output, Self::Error> {
  774|  29.5k|    match self.f.process::<OM>(i) {
  775|    828|      Ok((i, o)) => Ok((i, OM::Output::map(o, |o| o.into()))),
  776|  28.4k|      Err(Err::Error(e)) => Err(Err::Error(OM::Error::map(e, |e| e.into()))),
  777|    198|      Err(Err::Failure(e)) => Err(Err::Failure(e.into())),
  778|      0|      Err(Err::Incomplete(e)) => Err(Err::Incomplete(e)),
  779|       |    }
  780|  29.5k|  }
_RINvXsn_NtCshuHlpjMNnjS_3nom8internalINtB6_4IntoNvNtCsd77JCpXvqG6_15rsonpath_syntax6parser6numberNtBO_7LiteralNtNtBO_5error18InternalParseErrorEINtB6_6ParserReE7processINtB6_7OutputMNtB6_4EmitB2U_NtB6_9StreamingEEBO_:
  773|  39.3k|  fn process<OM: OutputMode>(&mut self, i: I) -> PResult<OM, I, Self::Output, Self::Error> {
  774|  39.3k|    match self.f.process::<OM>(i) {
  775|  8.44k|      Ok((i, o)) => Ok((i, OM::Output::map(o, |o| o.into()))),
  776|  29.5k|      Err(Err::Error(e)) => Err(Err::Error(OM::Error::map(e, |e| e.into()))),
  777|  1.35k|      Err(Err::Failure(e)) => Err(Err::Failure(e.into())),
  778|      0|      Err(Err::Incomplete(e)) => Err(Err::Incomplete(e)),
  779|       |    }
  780|  39.3k|  }
_RINvXsn_NtCshuHlpjMNnjS_3nom8internalINtB6_4IntoNvNtCsd77JCpXvqG6_15rsonpath_syntax6parser7literalNtBO_10ComparableNtNtBO_5error18InternalParseErrorEINtB6_6ParserReE7processINtB6_7OutputMNtB6_4EmitB2Z_NtB6_9StreamingEEBO_:
  773|  8.96k|  fn process<OM: OutputMode>(&mut self, i: I) -> PResult<OM, I, Self::Output, Self::Error> {
  774|  8.96k|    match self.f.process::<OM>(i) {
  775|  3.05k|      Ok((i, o)) => Ok((i, OM::Output::map(o, |o| o.into()))),
  776|  5.64k|      Err(Err::Error(e)) => Err(Err::Error(OM::Error::map(e, |e| e.into()))),
  777|    271|      Err(Err::Failure(e)) => Err(Err::Failure(e.into())),
  778|      0|      Err(Err::Incomplete(e)) => Err(Err::Incomplete(e)),
  779|       |    }
  780|  8.96k|  }
_RNCINvXsf_NtCshuHlpjMNnjS_3nom8internalINvNtNtBa_9character8complete6digit1ReNtNtCsd77JCpXvqG6_15rsonpath_syntax5error18InternalParseErrorEINtB8_6ParserB1b_E7processINtB8_7OutputMNtB8_4EmitB2R_NtB8_9StreamingEE0B1h_:
  517|  29.7k|    let (i, o) = self(i).map_err(|e| match e {
  518|      0|      Err::Incomplete(i) => Err::Incomplete(i),
  519|  29.7k|      Err::Error(e) => Err::Error(OM::Error::bind(|| e)),
  520|      0|      Err::Failure(e) => Err::Failure(e),
  521|  29.7k|    })?;
_RNCINvXsf_NtCshuHlpjMNnjS_3nom8internalINvNtNtBa_9character8complete6digit1ReNtNtCsd77JCpXvqG6_15rsonpath_syntax5error18InternalParseErrorEINtB8_6ParserB1b_E7processINtB8_7OutputMNtB8_4EmitNtB8_5CheckNtB8_9StreamingEE0B1h_:
  517|    913|    let (i, o) = self(i).map_err(|e| match e {
  518|      0|      Err::Incomplete(i) => Err::Incomplete(i),
  519|    913|      Err::Error(e) => Err::Error(OM::Error::bind(|| e)),
  520|      0|      Err::Failure(e) => Err::Failure(e),
  521|    913|    })?;
_RNCINvXsf_NtCshuHlpjMNnjS_3nom8internalINvNtNtBa_9character8complete6digit1ReNtNtCsd77JCpXvqG6_15rsonpath_syntax5error18InternalParseErrorEINtB8_6ParserB1b_E7processINtB8_7OutputMNtB8_5CheckNtB8_4EmitNtB8_9StreamingEE0B1h_:
  517|  78.1k|    let (i, o) = self(i).map_err(|e| match e {
  518|      0|      Err::Incomplete(i) => Err::Incomplete(i),
  519|  78.1k|      Err::Error(e) => Err::Error(OM::Error::bind(|| e)),
  520|      0|      Err::Failure(e) => Err::Failure(e),
  521|  78.1k|    })?;
_RNCINvXsf_NtCshuHlpjMNnjS_3nom8internalNCINvNtCsd77JCpXvqG6_15rsonpath_syntax6parser14failed_segmentNtBI_7SegmentE0INtB8_6ParserReE7processINtB8_7OutputMNtB8_4EmitB2r_NtB8_9StreamingEE0BI_:
  517|  3.62k|    let (i, o) = self(i).map_err(|e| match e {
  518|      0|      Err::Incomplete(i) => Err::Incomplete(i),
  519|      0|      Err::Error(e) => Err::Error(OM::Error::bind(|| e)),
  520|  3.62k|      Err::Failure(e) => Err::Failure(e),
  521|  3.62k|    })?;
_RNCINvXsf_NtCshuHlpjMNnjS_3nom8internalNCINvNtCsd77JCpXvqG6_15rsonpath_syntax6parser14failed_segmentNtBI_9SelectorsE0INtB8_6ParserReE7processINtB8_7OutputMNtB8_4EmitB2t_NtB8_9StreamingEE0BI_:
  517|  7.31k|    let (i, o) = self(i).map_err(|e| match e {
  518|      0|      Err::Incomplete(i) => Err::Incomplete(i),
  519|      0|      Err::Error(e) => Err::Error(OM::Error::bind(|| e)),
  520|  7.31k|      Err::Failure(e) => Err::Failure(e),
  521|  7.31k|    })?;
_RNCINvXsf_NtCshuHlpjMNnjS_3nom8internalNCINvNtCsd77JCpXvqG6_15rsonpath_syntax6parser17ignore_whitespaceINtNtCs6SNw0SRvItZ_4core6option6OptionReEINtNtBa_8sequence8PrecededNCINvNtNtBa_9character8complete4charB2f_NtNtBI_5error18InternalParseErrorE0INtNtBa_10combinator3OptNCIBE_B2f_NvBG_3intB3m_E0EEB3m_E0INtB8_6ParserB2f_E7processINtB8_7OutputMNtB8_4EmitNtB8_5CheckNtB8_9StreamingEE0BI_:
  517|  2.85k|    let (i, o) = self(i).map_err(|e| match e {
  518|      0|      Err::Incomplete(i) => Err::Incomplete(i),
  519|  2.64k|      Err::Error(e) => Err::Error(OM::Error::bind(|| e)),
  520|    209|      Err::Failure(e) => Err::Failure(e),
  521|  2.85k|    })?;
_RNCINvXsf_NtCshuHlpjMNnjS_3nom8internalNCINvNtCsd77JCpXvqG6_15rsonpath_syntax6parser17ignore_whitespaceNtBI_11LogicalExprNCNvBG_15filter_selector0NtNtBI_5error18InternalParseErrorE0INtB8_6ParserReE7processINtB8_7OutputMNtB8_4EmitB3v_NtB8_9StreamingEE0BI_:
  517|  18.1k|    let (i, o) = self(i).map_err(|e| match e {
  518|      0|      Err::Incomplete(i) => Err::Incomplete(i),
  519|      0|      Err::Error(e) => Err::Error(OM::Error::bind(|| e)),
  520|  18.1k|      Err::Failure(e) => Err::Failure(e),
  521|  18.1k|    })?;
_RNCINvXsf_NtCshuHlpjMNnjS_3nom8internalNCINvNtCsd77JCpXvqG6_15rsonpath_syntax6parser17ignore_whitespaceNtBI_8SelectorNCNvBG_8selector0NtNtBI_5error18InternalParseErrorE0INtB8_6ParserReE7processINtB8_7OutputMNtB8_4EmitB3j_NtB8_9StreamingEE0BI_:
  517|  25.1k|    let (i, o) = self(i).map_err(|e| match e {
  518|      0|      Err::Incomplete(i) => Err::Incomplete(i),
  519|  6.93k|      Err::Error(e) => Err::Error(OM::Error::bind(|| e)),
  520|  18.1k|      Err::Failure(e) => Err::Failure(e),
  521|  25.1k|    })?;
_RNCINvXsf_NtCshuHlpjMNnjS_3nom8internalNCINvNtCsd77JCpXvqG6_15rsonpath_syntax6parser17ignore_whitespaceNtBI_8SelectorNvBG_13name_selectorNtNtBI_5error18InternalParseErrorE0INtB8_6ParserReE7processINtB8_7OutputMNtB8_4EmitB3m_NtB8_9StreamingEE0BI_:
  517|  50.0k|    let (i, o) = self(i).map_err(|e| match e {
  518|      0|      Err::Incomplete(i) => Err::Incomplete(i),
  519|  48.9k|      Err::Error(e) => Err::Error(OM::Error::bind(|| e)),
  520|  1.13k|      Err::Failure(e) => Err::Failure(e),
  521|  50.0k|    })?;
_RNCINvXsf_NtCshuHlpjMNnjS_3nom8internalNCINvNtCsd77JCpXvqG6_15rsonpath_syntax6parser17ignore_whitespaceNtBI_8SelectorNvBG_14index_selectorNtNtBI_5error18InternalParseErrorE0INtB8_6ParserReE7processINtB8_7OutputMNtB8_4EmitB3n_NtB8_9StreamingEE0BI_:
  517|  34.2k|    let (i, o) = self(i).map_err(|e| match e {
  518|      0|      Err::Incomplete(i) => Err::Incomplete(i),
  519|  33.5k|      Err::Error(e) => Err::Error(OM::Error::bind(|| e)),
  520|    719|      Err::Failure(e) => Err::Failure(e),
  521|  34.2k|    })?;
_RNCINvXsf_NtCshuHlpjMNnjS_3nom8internalNCINvNtCsd77JCpXvqG6_15rsonpath_syntax6parser17ignore_whitespaceNtBI_8SelectorNvBG_14slice_selectorNtNtBI_5error18InternalParseErrorE0INtB8_6ParserReE7processINtB8_7OutputMNtB8_4EmitB3n_NtB8_9StreamingEE0BI_:
  517|  43.4k|    let (i, o) = self(i).map_err(|e| match e {
  518|      0|      Err::Incomplete(i) => Err::Incomplete(i),
  519|  39.6k|      Err::Error(e) => Err::Error(OM::Error::bind(|| e)),
  520|  3.76k|      Err::Failure(e) => Err::Failure(e),
  521|  43.4k|    })?;
_RNCINvXsf_NtCshuHlpjMNnjS_3nom8internalNCINvNtCsd77JCpXvqG6_15rsonpath_syntax6parser17ignore_whitespaceNtBI_8SelectorNvBG_17wildcard_selectorNtNtBI_5error18InternalParseErrorE0INtB8_6ParserReE7processINtB8_7OutputMNtB8_4EmitB3q_NtB8_9StreamingEE0BI_:
  517|  47.5k|    let (i, o) = self(i).map_err(|e| match e {
  518|      0|      Err::Incomplete(i) => Err::Incomplete(i),
  519|  47.5k|      Err::Error(e) => Err::Error(OM::Error::bind(|| e)),
  520|      0|      Err::Failure(e) => Err::Failure(e),
  521|  47.5k|    })?;
_RNCINvXsf_NtCshuHlpjMNnjS_3nom8internalNCINvNtCsd77JCpXvqG6_15rsonpath_syntax6parser17ignore_whitespaceNtNvBG_12logical_expr9BooleanOpINtNtBa_6branch6ChoiceTINtB8_3MapNCINvNtNtBa_5bytes8complete3tagReB3a_NtNtBI_5error18InternalParseErrorE0NCINvNtBa_10combinator5valueB3a_B1D_B3g_B2F_E0EB2v_EEB3g_E0INtB8_6ParserB3a_E7processINtB8_7OutputMNtB8_4EmitNtB8_5CheckNtB8_9StreamingEE0BI_:
  517|  12.3k|    let (i, o) = self(i).map_err(|e| match e {
  518|      0|      Err::Incomplete(i) => Err::Incomplete(i),
  519|  12.3k|      Err::Error(e) => Err::Error(OM::Error::bind(|| e)),
  520|      0|      Err::Failure(e) => Err::Failure(e),
  521|  12.3k|    })?;
_RNCINvXsf_NtCshuHlpjMNnjS_3nom8internalNCINvNtCsd77JCpXvqG6_15rsonpath_syntax6parser17ignore_whitespaceReNvBG_3intNtNtBI_5error18InternalParseErrorE0INtB8_6ParserB1D_E7processINtB8_7OutputMNtB8_4EmitNtB8_5CheckNtB8_9StreamingEE0BI_:
  517|  5.61k|    let (i, o) = self(i).map_err(|e| match e {
  518|      0|      Err::Incomplete(i) => Err::Incomplete(i),
  519|  5.02k|      Err::Error(e) => Err::Error(OM::Error::bind(|| e)),
  520|    594|      Err::Failure(e) => Err::Failure(e),
  521|  5.61k|    })?;
_RNCINvXsf_NtCshuHlpjMNnjS_3nom8internalNCINvNtCsd77JCpXvqG6_15rsonpath_syntax6parser17ignore_whitespacecNCINvNtNtBa_9character8complete4charReNtNtBI_5error18InternalParseErrorE0B2g_E0INtB8_6ParserB2e_E7processINtB8_7OutputMNtB8_5CheckNtB8_4EmitNtB8_9StreamingEE0BI_:
  517|  39.6k|    let (i, o) = self(i).map_err(|e| match e {
  518|      0|      Err::Incomplete(i) => Err::Incomplete(i),
  519|  39.6k|      Err::Error(e) => Err::Error(OM::Error::bind(|| e)),
  520|      0|      Err::Failure(e) => Err::Failure(e),
  521|  39.6k|    })?;
_RNCINvXsf_NtCshuHlpjMNnjS_3nom8internalNCINvNtCsd77JCpXvqG6_15rsonpath_syntax6parser24failed_filter_expressionNtBI_10ComparableE0INtB8_6ParserReE7processINtB8_7OutputMNtB8_4EmitB2F_NtB8_9StreamingEE0BI_:
  517|    986|    let (i, o) = self(i).map_err(|e| match e {
  518|      0|      Err::Incomplete(i) => Err::Incomplete(i),
  519|      0|      Err::Error(e) => Err::Error(OM::Error::bind(|| e)),
  520|    986|      Err::Failure(e) => Err::Failure(e),
  521|    986|    })?;
_RNCINvXsf_NtCshuHlpjMNnjS_3nom8internalNCINvNtNtBa_5bytes8complete11tag_no_caseReB1f_NtNtCsd77JCpXvqG6_15rsonpath_syntax5error18InternalParseErrorE0INtB8_6ParserB1f_E7processINtB8_7OutputMNtB8_5CheckB30_NtB8_9StreamingEE0B1p_:
  517|  8.20k|    let (i, o) = self(i).map_err(|e| match e {
  518|      0|      Err::Incomplete(i) => Err::Incomplete(i),
  519|  8.20k|      Err::Error(e) => Err::Error(OM::Error::bind(|| e)),
  520|      0|      Err::Failure(e) => Err::Failure(e),
  521|  8.20k|    })?;
_RNCINvXsf_NtCshuHlpjMNnjS_3nom8internalNCINvNtNtBa_5bytes8complete3tagReB16_NtNtCsd77JCpXvqG6_15rsonpath_syntax5error18InternalParseErrorE0INtB8_6ParserB16_E7processINtB8_7OutputMNtB8_4EmitB2R_NtB8_9StreamingEE0B1g_:
  517|   251k|    let (i, o) = self(i).map_err(|e| match e {
  518|      0|      Err::Incomplete(i) => Err::Incomplete(i),
  519|   251k|      Err::Error(e) => Err::Error(OM::Error::bind(|| e)),
  520|      0|      Err::Failure(e) => Err::Failure(e),
  521|   251k|    })?;
_RNCINvXsf_NtCshuHlpjMNnjS_3nom8internalNCINvNtNtBa_5bytes8complete3tagReB16_NtNtCsd77JCpXvqG6_15rsonpath_syntax5error18InternalParseErrorE0INtB8_6ParserB16_E7processINtB8_7OutputMNtB8_5CheckNtB8_4EmitNtB8_9StreamingEE0B1g_:
  517|  39.3k|    let (i, o) = self(i).map_err(|e| match e {
  518|      0|      Err::Incomplete(i) => Err::Incomplete(i),
  519|  39.3k|      Err::Error(e) => Err::Error(OM::Error::bind(|| e)),
  520|      0|      Err::Failure(e) => Err::Failure(e),
  521|  39.3k|    })?;
_RNCINvXsf_NtCshuHlpjMNnjS_3nom8internalNCINvNtNtBa_9character8complete4charReNtNtCsd77JCpXvqG6_15rsonpath_syntax5error18InternalParseErrorE0INtB8_6ParserB1b_E7processINtB8_7OutputMNtB8_4EmitB2S_NtB8_9StreamingEE0B1h_:
  517|  74.3k|    let (i, o) = self(i).map_err(|e| match e {
  518|      0|      Err::Incomplete(i) => Err::Incomplete(i),
  519|  74.3k|      Err::Error(e) => Err::Error(OM::Error::bind(|| e)),
  520|      0|      Err::Failure(e) => Err::Failure(e),
  521|  74.3k|    })?;
_RNCINvXsf_NtCshuHlpjMNnjS_3nom8internalNCINvNtNtBa_9character8complete4charReNtNtCsd77JCpXvqG6_15rsonpath_syntax5error18InternalParseErrorE0INtB8_6ParserB1b_E7processINtB8_7OutputMNtB8_4EmitNtB8_5CheckNtB8_9StreamingEE0B1h_:
  517|  42.7k|    let (i, o) = self(i).map_err(|e| match e {
  518|      0|      Err::Incomplete(i) => Err::Incomplete(i),
  519|  42.7k|      Err::Error(e) => Err::Error(OM::Error::bind(|| e)),
  520|      0|      Err::Failure(e) => Err::Failure(e),
  521|  42.7k|    })?;
_RNCINvXsf_NtCshuHlpjMNnjS_3nom8internalNCINvNtNtBa_9character8complete4charReNtNtCsd77JCpXvqG6_15rsonpath_syntax5error18InternalParseErrorE0INtB8_6ParserB1b_E7processINtB8_7OutputMNtB8_5CheckB2S_NtB8_9StreamingEE0B1h_:
  517|  10.4k|    let (i, o) = self(i).map_err(|e| match e {
  518|      0|      Err::Incomplete(i) => Err::Incomplete(i),
  519|  10.4k|      Err::Error(e) => Err::Error(OM::Error::bind(|| e)),
  520|      0|      Err::Failure(e) => Err::Failure(e),
  521|  10.4k|    })?;
_RNCINvXsf_NtCshuHlpjMNnjS_3nom8internalNCINvNtNtBa_9character8complete4charReNtNtCsd77JCpXvqG6_15rsonpath_syntax5error18InternalParseErrorE0INtB8_6ParserB1b_E7processINtB8_7OutputMNtB8_5CheckNtB8_4EmitNtB8_9StreamingEE0B1h_:
  517|   299k|    let (i, o) = self(i).map_err(|e| match e {
  518|      0|      Err::Incomplete(i) => Err::Incomplete(i),
  519|   299k|      Err::Error(e) => Err::Error(OM::Error::bind(|| e)),
  520|      0|      Err::Failure(e) => Err::Failure(e),
  521|   299k|    })?;
_RNCINvXsf_NtCshuHlpjMNnjS_3nom8internalNCINvNtNtBa_9character8complete4charReuE0INtB8_6ParserB1b_E7processINtB8_7OutputMNtB8_4EmitB1U_NtB8_9StreamingEE0Csd77JCpXvqG6_15rsonpath_syntax:
  517|  2.23k|    let (i, o) = self(i).map_err(|e| match e {
  518|      0|      Err::Incomplete(i) => Err::Incomplete(i),
  519|  2.23k|      Err::Error(e) => Err::Error(OM::Error::bind(|| e)),
  520|      0|      Err::Failure(e) => Err::Failure(e),
  521|  2.23k|    })?;
_RNCINvXsf_NtCshuHlpjMNnjS_3nom8internalNCINvNtNtBa_9character8complete6one_ofReB1d_uE0INtB8_6ParserB1d_E7processINtB8_7OutputMNtB8_4EmitB20_NtB8_9StreamingEE0Csd77JCpXvqG6_15rsonpath_syntax:
  517|  24.3k|    let (i, o) = self(i).map_err(|e| match e {
  518|      0|      Err::Incomplete(i) => Err::Incomplete(i),
  519|  24.3k|      Err::Error(e) => Err::Error(OM::Error::bind(|| e)),
  520|      0|      Err::Failure(e) => Err::Failure(e),
  521|  24.3k|    })?;
_RNCINvXsf_NtCshuHlpjMNnjS_3nom8internalNCINvNtNtBa_9character8complete7satisfyNCNvNvNtCsd77JCpXvqG6_15rsonpath_syntax6parser21member_name_shorthand9name_char0ReNtNtB1m_5error18InternalParseErrorE0INtB8_6ParserB2w_E7processINtB8_7OutputMNtB8_4EmitB3M_NtB8_9StreamingEE0B1m_:
  517|  6.16k|    let (i, o) = self(i).map_err(|e| match e {
  518|      0|      Err::Incomplete(i) => Err::Incomplete(i),
  519|  6.16k|      Err::Error(e) => Err::Error(OM::Error::bind(|| e)),
  520|      0|      Err::Failure(e) => Err::Failure(e),
  521|  6.16k|    })?;
_RNCINvXsf_NtCshuHlpjMNnjS_3nom8internalNCNvNtCsd77JCpXvqG6_15rsonpath_syntax6parser10comparable0INtB8_6ParserReE7processINtB8_7OutputMNtB8_4EmitB28_NtB8_9StreamingEE0BH_:
  517|  2.65k|    let (i, o) = self(i).map_err(|e| match e {
  518|      0|      Err::Incomplete(i) => Err::Incomplete(i),
  519|    986|      Err::Error(e) => Err::Error(OM::Error::bind(|| e)),
  520|  1.66k|      Err::Failure(e) => Err::Failure(e),
  521|  2.65k|    })?;
_RNCINvXsf_NtCshuHlpjMNnjS_3nom8internalNCNvNtCsd77JCpXvqG6_15rsonpath_syntax6parser12filter_query0INtB8_6ParserReE7processINtB8_7OutputMNtB8_4EmitB2a_NtB8_9StreamingEE0BH_:
  517|  18.4k|    let (i, o) = self(i).map_err(|e| match e {
  518|      0|      Err::Incomplete(i) => Err::Incomplete(i),
  519|  16.9k|      Err::Error(e) => Err::Error(OM::Error::bind(|| e)),
  520|  1.53k|      Err::Failure(e) => Err::Failure(e),
  521|  18.4k|    })?;
_RNCINvXsf_NtCshuHlpjMNnjS_3nom8internalNCNvNtCsd77JCpXvqG6_15rsonpath_syntax6parser12filter_querys_0INtB8_6ParserReE7processINtB8_7OutputMNtB8_4EmitB2c_NtB8_9StreamingEE0BH_:
  517|  10.1k|    let (i, o) = self(i).map_err(|e| match e {
  518|      0|      Err::Incomplete(i) => Err::Incomplete(i),
  519|      0|      Err::Error(e) => Err::Error(OM::Error::bind(|| e)),
  520|  10.1k|      Err::Failure(e) => Err::Failure(e),
  521|  10.1k|    })?;
_RNCINvXsf_NtCshuHlpjMNnjS_3nom8internalNCNvNtCsd77JCpXvqG6_15rsonpath_syntax6parser12logical_expr0INtB8_6ParserReE7processINtB8_7OutputMNtB8_4EmitB2a_NtB8_9StreamingEE0BH_:
  517|  30.7k|    let (i, o) = self(i).map_err(|e| match e {
  518|      0|      Err::Incomplete(i) => Err::Incomplete(i),
  519|      0|      Err::Error(e) => Err::Error(OM::Error::bind(|| e)),
  520|  30.7k|      Err::Failure(e) => Err::Failure(e),
  521|  30.7k|    })?;
_RNCINvXsf_NtCshuHlpjMNnjS_3nom8internalNCNvNtCsd77JCpXvqG6_15rsonpath_syntax6parser12logical_exprs0_0INtB8_6ParserReE7processINtB8_7OutputMNtB8_4EmitB2d_NtB8_9StreamingEE0BH_:
  517|    575|    let (i, o) = self(i).map_err(|e| match e {
  518|      0|      Err::Incomplete(i) => Err::Incomplete(i),
  519|      0|      Err::Error(e) => Err::Error(OM::Error::bind(|| e)),
  520|    575|      Err::Failure(e) => Err::Failure(e),
  521|    575|    })?;
_RNCINvXsf_NtCshuHlpjMNnjS_3nom8internalNCNvNtCsd77JCpXvqG6_15rsonpath_syntax6parser12logical_exprs_0INtB8_6ParserReE7processINtB8_7OutputMNtB8_4EmitB2c_NtB8_9StreamingEE0BH_:
  517|    231|    let (i, o) = self(i).map_err(|e| match e {
  518|      0|      Err::Incomplete(i) => Err::Incomplete(i),
  519|      0|      Err::Error(e) => Err::Error(OM::Error::bind(|| e)),
  520|    231|      Err::Failure(e) => Err::Failure(e),
  521|    231|    })?;
_RNCINvXsf_NtCshuHlpjMNnjS_3nom8internalNCNvNtCsd77JCpXvqG6_15rsonpath_syntax6parser13child_segment0INtB8_6ParserReE7processINtB8_7OutputMNtB8_4EmitB2b_NtB8_9StreamingEE0BH_:
  517|  34.5k|    let (i, o) = self(i).map_err(|e| match e {
  518|      0|      Err::Incomplete(i) => Err::Incomplete(i),
  519|  15.5k|      Err::Error(e) => Err::Error(OM::Error::bind(|| e)),
  520|  19.0k|      Err::Failure(e) => Err::Failure(e),
  521|  34.5k|    })?;
_RNCINvXsf_NtCshuHlpjMNnjS_3nom8internalNCNvNtCsd77JCpXvqG6_15rsonpath_syntax6parser15filter_selector0INtB8_6ParserReE7processINtB8_7OutputMNtB8_4EmitB2d_NtB8_9StreamingEE0BH_:
  517|  18.1k|    let (i, o) = self(i).map_err(|e| match e {
  518|      0|      Err::Incomplete(i) => Err::Incomplete(i),
  519|      0|      Err::Error(e) => Err::Error(OM::Error::bind(|| e)),
  520|  18.1k|      Err::Failure(e) => Err::Failure(e),
  521|  18.1k|    })?;
_RNCINvXsf_NtCshuHlpjMNnjS_3nom8internalNCNvNtCsd77JCpXvqG6_15rsonpath_syntax6parser18descendant_segment0INtB8_6ParserReE7processINtB8_7OutputMNtB8_4EmitB2g_NtB8_9StreamingEE0BH_:
  517|  5.27k|    let (i, o) = self(i).map_err(|e| match e {
  518|      0|      Err::Incomplete(i) => Err::Incomplete(i),
  519|  4.46k|      Err::Error(e) => Err::Error(OM::Error::bind(|| e)),
  520|    818|      Err::Failure(e) => Err::Failure(e),
  521|  5.27k|    })?;
_RNCINvXsf_NtCshuHlpjMNnjS_3nom8internalNCNvNtCsd77JCpXvqG6_15rsonpath_syntax6parser6string0INtB8_6ParserReE7processINtB8_7OutputMNtB8_4EmitB23_NtB8_9StreamingEE0BH_:
  517|  1.33k|    let (i, o) = self(i).map_err(|e| match e {
  518|      0|      Err::Incomplete(i) => Err::Incomplete(i),
  519|      0|      Err::Error(e) => Err::Error(OM::Error::bind(|| e)),
  520|  1.33k|      Err::Failure(e) => Err::Failure(e),
  521|  1.33k|    })?;
_RNCINvXsf_NtCshuHlpjMNnjS_3nom8internalNCNvNtCsd77JCpXvqG6_15rsonpath_syntax6parser7segment0INtB8_6ParserReE7processINtB8_7OutputMNtB8_4EmitB24_NtB8_9StreamingEE0BH_:
  517|  24.6k|    let (i, o) = self(i).map_err(|e| match e {
  518|      0|      Err::Incomplete(i) => Err::Incomplete(i),
  519|  22.4k|      Err::Error(e) => Err::Error(OM::Error::bind(|| e)),
  520|  2.24k|      Err::Failure(e) => Err::Failure(e),
  521|  24.6k|    })?;
_RNCINvXsf_NtCshuHlpjMNnjS_3nom8internalNCNvNtCsd77JCpXvqG6_15rsonpath_syntax6parser7segments_0INtB8_6ParserReE7processINtB8_7OutputMNtB8_4EmitB26_NtB8_9StreamingEE0BH_:
  517|  16.8k|    let (i, o) = self(i).map_err(|e| match e {
  518|      0|      Err::Incomplete(i) => Err::Incomplete(i),
  519|  3.62k|      Err::Error(e) => Err::Error(OM::Error::bind(|| e)),
  520|  13.1k|      Err::Failure(e) => Err::Failure(e),
  521|  16.8k|    })?;
_RNCINvXsf_NtCshuHlpjMNnjS_3nom8internalNCNvNtCsd77JCpXvqG6_15rsonpath_syntax6parser8selector0INtB8_6ParserReE7processINtB8_7OutputMNtB8_4EmitB25_NtB8_9StreamingEE0BH_:
  517|  25.1k|    let (i, o) = self(i).map_err(|e| match e {
  518|      0|      Err::Incomplete(i) => Err::Incomplete(i),
  519|  6.93k|      Err::Error(e) => Err::Error(OM::Error::bind(|| e)),
  520|  18.1k|      Err::Failure(e) => Err::Failure(e),
  521|  25.1k|    })?;
_RNCINvXsf_NtCshuHlpjMNnjS_3nom8internalNCNvNvNtCsd77JCpXvqG6_15rsonpath_syntax6parser12logical_expr12parse_single0INtB8_6ParserReE7processINtB8_7OutputMNtB8_4EmitB2q_NtB8_9StreamingEE0BJ_:
  517|  12.8k|    let (i, o) = self(i).map_err(|e| match e {
  518|      0|      Err::Incomplete(i) => Err::Incomplete(i),
  519|      0|      Err::Error(e) => Err::Error(OM::Error::bind(|| e)),
  520|  12.8k|      Err::Failure(e) => Err::Failure(e),
  521|  12.8k|    })?;
_RNCINvXsf_NtCshuHlpjMNnjS_3nom8internalNvNtCsd77JCpXvqG6_15rsonpath_syntax6parser13name_selectorINtB8_6ParserReE7processINtB8_7OutputMNtB8_4EmitB28_NtB8_9StreamingEE0BF_:
  517|  50.0k|    let (i, o) = self(i).map_err(|e| match e {
  518|      0|      Err::Incomplete(i) => Err::Incomplete(i),
  519|  48.9k|      Err::Error(e) => Err::Error(OM::Error::bind(|| e)),
  520|  1.13k|      Err::Failure(e) => Err::Failure(e),
  521|  50.0k|    })?;
_RNCINvXsf_NtCshuHlpjMNnjS_3nom8internalNvNtCsd77JCpXvqG6_15rsonpath_syntax6parser14index_selectorINtB8_6ParserReE7processINtB8_7OutputMNtB8_4EmitB29_NtB8_9StreamingEE0BF_:
  517|  34.2k|    let (i, o) = self(i).map_err(|e| match e {
  518|      0|      Err::Incomplete(i) => Err::Incomplete(i),
  519|  33.5k|      Err::Error(e) => Err::Error(OM::Error::bind(|| e)),
  520|    719|      Err::Failure(e) => Err::Failure(e),
  521|  34.2k|    })?;
_RNCINvXsf_NtCshuHlpjMNnjS_3nom8internalNvNtCsd77JCpXvqG6_15rsonpath_syntax6parser14slice_selectorINtB8_6ParserReE7processINtB8_7OutputMNtB8_4EmitB29_NtB8_9StreamingEE0BF_:
  517|  43.4k|    let (i, o) = self(i).map_err(|e| match e {
  518|      0|      Err::Incomplete(i) => Err::Incomplete(i),
  519|  39.6k|      Err::Error(e) => Err::Error(OM::Error::bind(|| e)),
  520|  3.76k|      Err::Failure(e) => Err::Failure(e),
  521|  43.4k|    })?;
_RNCINvXsf_NtCshuHlpjMNnjS_3nom8internalNvNtCsd77JCpXvqG6_15rsonpath_syntax6parser14string_literalINtB8_6ParserReE7processINtB8_7OutputMNtB8_4EmitB29_NtB8_9StreamingEE0BF_:
  517|  78.7k|    let (i, o) = self(i).map_err(|e| match e {
  518|      0|      Err::Incomplete(i) => Err::Incomplete(i),
  519|  77.4k|      Err::Error(e) => Err::Error(OM::Error::bind(|| e)),
  520|  1.33k|      Err::Failure(e) => Err::Failure(e),
  521|  78.7k|    })?;
_RNCINvXsf_NtCshuHlpjMNnjS_3nom8internalNvNtCsd77JCpXvqG6_15rsonpath_syntax6parser15failed_selectorINtB8_6ParserReE7processINtB8_7OutputMNtB8_4EmitB2a_NtB8_9StreamingEE0BF_:
  517|  6.93k|    let (i, o) = self(i).map_err(|e| match e {
  518|      0|      Err::Incomplete(i) => Err::Incomplete(i),
  519|      0|      Err::Error(e) => Err::Error(OM::Error::bind(|| e)),
  520|  6.93k|      Err::Failure(e) => Err::Failure(e),
  521|  6.93k|    })?;
_RNCINvXsf_NtCshuHlpjMNnjS_3nom8internalNvNtCsd77JCpXvqG6_15rsonpath_syntax6parser17wildcard_selectorINtB8_6ParserReE7processINtB8_7OutputMNtB8_4EmitB2c_NtB8_9StreamingEE0BF_:
  517|  60.9k|    let (i, o) = self(i).map_err(|e| match e {
  518|      0|      Err::Incomplete(i) => Err::Incomplete(i),
  519|  60.9k|      Err::Error(e) => Err::Error(OM::Error::bind(|| e)),
  520|      0|      Err::Failure(e) => Err::Failure(e),
  521|  60.9k|    })?;
_RNCINvXsf_NtCshuHlpjMNnjS_3nom8internalNvNtCsd77JCpXvqG6_15rsonpath_syntax6parser21member_name_shorthandINtB8_6ParserReE7processINtB8_7OutputMNtB8_4EmitB2g_NtB8_9StreamingEE0BF_:
  517|  7.31k|    let (i, o) = self(i).map_err(|e| match e {
  518|      0|      Err::Incomplete(i) => Err::Incomplete(i),
  519|  7.31k|      Err::Error(e) => Err::Error(OM::Error::bind(|| e)),
  520|      0|      Err::Failure(e) => Err::Failure(e),
  521|  7.31k|    })?;
_RNCINvXsf_NtCshuHlpjMNnjS_3nom8internalNvNtCsd77JCpXvqG6_15rsonpath_syntax6parser3intINtB8_6ParserReE7processINtB8_7OutputMNtB8_4EmitB1X_NtB8_9StreamingEE0BF_:
  517|  5.61k|    let (i, o) = self(i).map_err(|e| match e {
  518|      0|      Err::Incomplete(i) => Err::Incomplete(i),
  519|  5.02k|      Err::Error(e) => Err::Error(OM::Error::bind(|| e)),
  520|    594|      Err::Failure(e) => Err::Failure(e),
  521|  5.61k|    })?;
_RNCINvXsf_NtCshuHlpjMNnjS_3nom8internalNvNtCsd77JCpXvqG6_15rsonpath_syntax6parser3intINtB8_6ParserReE7processINtB8_7OutputMNtB8_4EmitNtB8_5CheckNtB8_9StreamingEE0BF_:
  517|  40.2k|    let (i, o) = self(i).map_err(|e| match e {
  518|      0|      Err::Incomplete(i) => Err::Incomplete(i),
  519|  38.7k|      Err::Error(e) => Err::Error(OM::Error::bind(|| e)),
  520|  1.50k|      Err::Failure(e) => Err::Failure(e),
  521|  40.2k|    })?;
_RNCINvXsf_NtCshuHlpjMNnjS_3nom8internalNvNtCsd77JCpXvqG6_15rsonpath_syntax6parser5floatINtB8_6ParserReE7processINtB8_7OutputMNtB8_4EmitB1Z_NtB8_9StreamingEE0BF_:
  517|  30.8k|    let (i, o) = self(i).map_err(|e| match e {
  518|      0|      Err::Incomplete(i) => Err::Incomplete(i),
  519|  29.5k|      Err::Error(e) => Err::Error(OM::Error::bind(|| e)),
  520|  1.35k|      Err::Failure(e) => Err::Failure(e),
  521|  30.8k|    })?;
_RNCINvXsf_NtCshuHlpjMNnjS_3nom8internalNvNtCsd77JCpXvqG6_15rsonpath_syntax6parser6numberINtB8_6ParserReE7processINtB8_7OutputMNtB8_4EmitB20_NtB8_9StreamingEE0BF_:
  517|  30.8k|    let (i, o) = self(i).map_err(|e| match e {
  518|      0|      Err::Incomplete(i) => Err::Incomplete(i),
  519|  29.5k|      Err::Error(e) => Err::Error(OM::Error::bind(|| e)),
  520|  1.35k|      Err::Failure(e) => Err::Failure(e),
  521|  30.8k|    })?;
_RNCINvXsf_NtCshuHlpjMNnjS_3nom8internalNvNtCsd77JCpXvqG6_15rsonpath_syntax6parser7literalINtB8_6ParserReE7processINtB8_7OutputMNtB8_4EmitB21_NtB8_9StreamingEE0BF_:
  517|  5.91k|    let (i, o) = self(i).map_err(|e| match e {
  518|      0|      Err::Incomplete(i) => Err::Incomplete(i),
  519|  5.64k|      Err::Error(e) => Err::Error(OM::Error::bind(|| e)),
  520|    271|      Err::Failure(e) => Err::Failure(e),
  521|  5.91k|    })?;
_RNCINvXsf_NtCshuHlpjMNnjS_3nom8internalNvNvNtCsd77JCpXvqG6_15rsonpath_syntax6parser21member_name_shorthand10name_firstINtB8_6ParserReE7processINtB8_7OutputMNtB8_4EmitB2u_NtB8_9StreamingEE0BH_:
  517|  6.68k|    let (i, o) = self(i).map_err(|e| match e {
  518|      0|      Err::Incomplete(i) => Err::Incomplete(i),
  519|  6.68k|      Err::Error(e) => Err::Error(OM::Error::bind(|| e)),
  520|      0|      Err::Failure(e) => Err::Failure(e),
  521|  6.68k|    })?;
_RNCINvXsf_NtCshuHlpjMNnjS_3nom8internalNvNvNtCsd77JCpXvqG6_15rsonpath_syntax6parser21member_name_shorthand10name_firstINtB8_6ParserReE7processINtB8_7OutputMNtB8_5CheckNtB8_4EmitNtB8_9StreamingEE0BH_:
  517|  7.31k|    let (i, o) = self(i).map_err(|e| match e {
  518|      0|      Err::Incomplete(i) => Err::Incomplete(i),
  519|  7.31k|      Err::Error(e) => Err::Error(OM::Error::bind(|| e)),
  520|      0|      Err::Failure(e) => Err::Failure(e),
  521|  7.31k|    })?;
_RNCINvXsf_NtCshuHlpjMNnjS_3nom8internalNvNvNtCsd77JCpXvqG6_15rsonpath_syntax6parser21member_name_shorthand9name_charINtB8_6ParserReE7processINtB8_7OutputMNtB8_4EmitB2s_NtB8_9StreamingEE0BH_:
  517|  6.16k|    let (i, o) = self(i).map_err(|e| match e {
  518|      0|      Err::Incomplete(i) => Err::Incomplete(i),
  519|  6.16k|      Err::Error(e) => Err::Error(OM::Error::bind(|| e)),
  520|      0|      Err::Failure(e) => Err::Failure(e),
  521|  6.16k|    })?;
_RNCINvXsf_NtCshuHlpjMNnjS_3nom8internalNvNvNtCsd77JCpXvqG6_15rsonpath_syntax6parser5float10base_floatINtB8_6ParserReE7processINtB8_7OutputMNtB8_5CheckNtB8_4EmitNtB8_9StreamingEE0BH_:
  517|  29.7k|    let (i, o) = self(i).map_err(|e| match e {
  518|      0|      Err::Incomplete(i) => Err::Incomplete(i),
  519|  29.7k|      Err::Error(e) => Err::Error(OM::Error::bind(|| e)),
  520|      0|      Err::Failure(e) => Err::Failure(e),
  521|  29.7k|    })?;
_RNCINvXsg_NtCshuHlpjMNnjS_3nom8internalINtB8_3MapINtNtBa_6branch6ChoiceTNCNvNtCsd77JCpXvqG6_15rsonpath_syntax6parser13child_segment0INtNtBa_8sequence8PrecededNCINvNtNtBa_9character8complete4charReNtNtB1e_5error18InternalParseErrorE0INtNtBa_10combinator3CutIBM_TIBC_NvB1c_17wildcard_selectorNvMsq_B1e_NtB1e_9Selectors3oneENvB1c_21member_name_shorthandNCINvB1c_14failed_segmentB4O_E0EEEEEENcNtNtB1e_7Segment5Child0EINtB8_6ParserB36_E7processINtB8_7OutputMNtB8_4EmitB7h_NtB8_9StreamingEE0B1e_:
  595|  12.3k|      Ok((i, o)) => Ok((i, OM::Output::map(o, |o| (self.g)(o)))),
_RNCINvXsg_NtCshuHlpjMNnjS_3nom8internalINtB8_3MapINtNtBa_8sequence8PrecededINtNtBa_10combinator4PeekNvNvNtCsd77JCpXvqG6_15rsonpath_syntax6parser21member_name_shorthand10name_firstEINtNtBa_5multi9FoldMany0NvB1C_9name_charNCB1C_0NvMs_NtB1G_3strNtB3I_17JsonStringBuilder3newB3S_EENCB1C_s_0EINtB8_6ParserReE7processINtB8_7OutputMNtB8_4EmitB5d_NtB8_9StreamingEE0B1G_:
  595|  6.16k|      Ok((i, o)) => Ok((i, OM::Output::map(o, |o| (self.g)(o)))),
_RNCINvXsg_NtCshuHlpjMNnjS_3nom8internalINtB8_3MapINtNtBa_8sequence8PrecededNCINvNtNtBa_5bytes8complete3tagReB1G_NtNtCsd77JCpXvqG6_15rsonpath_syntax5error18InternalParseErrorE0INtNtBa_10combinator3CutINtNtBa_6branch6ChoiceTNCNvNtB1Q_6parser18descendant_segment0IBC_NvB3C_17wildcard_selectorNvMsq_B1Q_NtB1Q_9Selectors3oneENvB3C_21member_name_shorthandNCINvB3C_14failed_segmentB4N_E0EEEENcNtNtB1Q_7Segment10Descendant0EINtB8_6ParserB1G_E7processINtB8_7OutputMNtB8_4EmitB7k_NtB8_9StreamingEE0B1Q_:
  595|  1.84k|      Ok((i, o)) => Ok((i, OM::Output::map(o, |o| (self.g)(o)))),
_RNCINvXsg_NtCshuHlpjMNnjS_3nom8internalINtB8_3MapNCINvNtNtBa_5bytes8complete3tagReB1g_NtNtCsd77JCpXvqG6_15rsonpath_syntax5error18InternalParseErrorE0NCINvNtBa_10combinator5valueB1g_NtB1q_12ComparisonOpB1m_BL_E0EINtB8_6ParserB1g_E7processINtB8_7OutputMNtB8_4EmitB41_NtB8_9StreamingEE0B1q_:
  595|  1.32k|      Ok((i, o)) => Ok((i, OM::Output::map(o, |o| (self.g)(o)))),
_RNCINvXsg_NtCshuHlpjMNnjS_3nom8internalINtB8_3MapNCINvNtNtBa_5bytes8complete3tagReB1g_NtNtCsd77JCpXvqG6_15rsonpath_syntax5error18InternalParseErrorE0NCINvNtBa_10combinator5valueB1g_NtB1q_7LiteralB1m_BL_E0EINtB8_6ParserB1g_E7processINtB8_7OutputMNtB8_4EmitB3V_NtB8_9StreamingEE0B1q_:
  595|    196|      Ok((i, o)) => Ok((i, OM::Output::map(o, |o| (self.g)(o)))),
_RNCINvXsg_NtCshuHlpjMNnjS_3nom8internalINtB8_3MapNCINvNtNtBa_5bytes8complete3tagReB1g_NtNtCsd77JCpXvqG6_15rsonpath_syntax5error18InternalParseErrorE0NCINvNtBa_10combinator5valueB1g_NtNvNtB1q_6parser12logical_expr9BooleanOpB1m_BL_E0EINtB8_6ParserB1g_E7processINtB8_7OutputMNtB8_4EmitB4m_NtB8_9StreamingEE0B1q_:
  595|  3.82k|      Ok((i, o)) => Ok((i, OM::Output::map(o, |o| (self.g)(o)))),
_RNCINvXsg_NtCshuHlpjMNnjS_3nom8internalINtB8_3MapNCINvNtNtBa_5bytes8complete3tagReB1g_NtNtCsd77JCpXvqG6_15rsonpath_syntax5error18InternalParseErrorE0NCNvNtB1q_6parser17wildcard_selector0EINtB8_6ParserB1g_E7processINtB8_7OutputMNtB8_4EmitB3D_NtB8_9StreamingEE0B1q_:
  595|  4.31k|      Ok((i, o)) => Ok((i, OM::Output::map(o, |o| (self.g)(o)))),
_RNCINvXsg_NtCshuHlpjMNnjS_3nom8internalINtB8_3MapNCINvNtNtBa_9character8complete4charReNtNtCsd77JCpXvqG6_15rsonpath_syntax5error18InternalParseErrorE0NCINvNtBa_10combinator5valueB1l_NtB1r_12ComparisonOpB1n_BL_E0EINtB8_6ParserB1l_E7processINtB8_7OutputMNtB8_4EmitB42_NtB8_9StreamingEE0B1r_:
  595|  7.64k|      Ok((i, o)) => Ok((i, OM::Output::map(o, |o| (self.g)(o)))),
_RNCINvXsg_NtCshuHlpjMNnjS_3nom8internalINtB8_3MapNCINvNtNtBa_9character8complete4charReNtNtCsd77JCpXvqG6_15rsonpath_syntax5error18InternalParseErrorE0NCINvNtBa_10combinator5valueB1l_NtNtB1r_6parser16RootSelectorTypeB1n_BL_E0EINtB8_6ParserB1l_E7processINtB8_7OutputMNtB8_4EmitB4f_NtB8_9StreamingEE0B1r_:
  595|  25.1k|      Ok((i, o)) => Ok((i, OM::Output::map(o, |o| (self.g)(o)))),
_RNCINvXsg_NtCshuHlpjMNnjS_3nom8internalINtB8_3MapNvNtCsd77JCpXvqG6_15rsonpath_syntax6parser14string_literalNcNtNtBP_8Selector4Name0EINtB8_6ParserReE7processINtB8_7OutputMNtB8_4EmitB2I_NtB8_9StreamingEE0BP_:
  595|  1.12k|      Ok((i, o)) => Ok((i, OM::Output::map(o, |o| (self.g)(o)))),
_RNCINvXsg_NtCshuHlpjMNnjS_3nom8internalINtB8_3MapNvNtCsd77JCpXvqG6_15rsonpath_syntax6parser17wildcard_selectorNvMsq_BP_NtBP_9Selectors3oneEINtB8_6ParserReE7processINtB8_7OutputMNtB8_4EmitB2P_NtB8_9StreamingEE0BP_:
  595|  2.90k|      Ok((i, o)) => Ok((i, OM::Output::map(o, |o| (self.g)(o)))),
_RNCINvXsg_NtCshuHlpjMNnjS_3nom8internalINtB8_3MapNvNtCsd77JCpXvqG6_15rsonpath_syntax6parser5floatNCNvBN_6number0EINtB8_6ParserReE7processINtB8_7OutputMNtB8_4EmitB2p_NtB8_9StreamingEE0BP_:
  595|  8.44k|      Ok((i, o)) => Ok((i, OM::Output::map(o, |o| (self.g)(o)))),
_RNCINvXsn_NtCshuHlpjMNnjS_3nom8internalINtB8_4IntoINtNtBa_8sequence8PrecededNCINvNtNtBa_9character8complete4charReNtNtCsd77JCpXvqG6_15rsonpath_syntax5error18InternalParseErrorE0NCINvNtB1S_6parser17ignore_whitespaceNtB1S_11LogicalExprNCNvB2U_15filter_selector0B1O_E0ENtB1S_8SelectorB1O_EINtB8_6ParserB1M_E7processINtB8_7OutputMNtB8_4EmitB5e_NtB8_9StreamingEE0B1S_:
  775|  8.40k|      Ok((i, o)) => Ok((i, OM::Output::map(o, |o| o.into()))),
_RNCINvXsn_NtCshuHlpjMNnjS_3nom8internalINtB8_4IntoINtNtBa_8sequence8PrecededNCINvNtNtBa_9character8complete4charReNtNtCsd77JCpXvqG6_15rsonpath_syntax5error18InternalParseErrorE0NCINvNtB1S_6parser17ignore_whitespaceNtB1S_11LogicalExprNCNvB2U_15filter_selector0B1O_E0ENtB1S_8SelectorB1O_EINtB8_6ParserB1M_E7processINtB8_7OutputMNtB8_4EmitB5e_NtB8_9StreamingEEs_0B1S_:
  776|  6.93k|      Err(Err::Error(e)) => Err(Err::Error(OM::Error::map(e, |e| e.into()))),
_RNCINvXsn_NtCshuHlpjMNnjS_3nom8internalINtB8_4IntoNvNtCsd77JCpXvqG6_15rsonpath_syntax6parser14string_literalNtBQ_7LiteralNtNtBQ_5error18InternalParseErrorEINtB8_6ParserReE7processINtB8_7OutputMNtB8_4EmitB35_NtB8_9StreamingEE0BQ_:
  775|    828|      Ok((i, o)) => Ok((i, OM::Output::map(o, |o| o.into()))),
_RNCINvXsn_NtCshuHlpjMNnjS_3nom8internalINtB8_4IntoNvNtCsd77JCpXvqG6_15rsonpath_syntax6parser14string_literalNtBQ_7LiteralNtNtBQ_5error18InternalParseErrorEINtB8_6ParserReE7processINtB8_7OutputMNtB8_4EmitB35_NtB8_9StreamingEEs_0BQ_:
  776|  28.4k|      Err(Err::Error(e)) => Err(Err::Error(OM::Error::map(e, |e| e.into()))),
_RNCINvXsn_NtCshuHlpjMNnjS_3nom8internalINtB8_4IntoNvNtCsd77JCpXvqG6_15rsonpath_syntax6parser6numberNtBQ_7LiteralNtNtBQ_5error18InternalParseErrorEINtB8_6ParserReE7processINtB8_7OutputMNtB8_4EmitB2W_NtB8_9StreamingEE0BQ_:
  775|  8.44k|      Ok((i, o)) => Ok((i, OM::Output::map(o, |o| o.into()))),
_RNCINvXsn_NtCshuHlpjMNnjS_3nom8internalINtB8_4IntoNvNtCsd77JCpXvqG6_15rsonpath_syntax6parser6numberNtBQ_7LiteralNtNtBQ_5error18InternalParseErrorEINtB8_6ParserReE7processINtB8_7OutputMNtB8_4EmitB2W_NtB8_9StreamingEEs_0BQ_:
  776|  29.5k|      Err(Err::Error(e)) => Err(Err::Error(OM::Error::map(e, |e| e.into()))),
_RNCINvXsn_NtCshuHlpjMNnjS_3nom8internalINtB8_4IntoNvNtCsd77JCpXvqG6_15rsonpath_syntax6parser7literalNtBQ_10ComparableNtNtBQ_5error18InternalParseErrorEINtB8_6ParserReE7processINtB8_7OutputMNtB8_4EmitB31_NtB8_9StreamingEE0BQ_:
  775|  3.05k|      Ok((i, o)) => Ok((i, OM::Output::map(o, |o| o.into()))),
_RNCINvXsn_NtCshuHlpjMNnjS_3nom8internalINtB8_4IntoNvNtCsd77JCpXvqG6_15rsonpath_syntax6parser7literalNtBQ_10ComparableNtNtBQ_5error18InternalParseErrorEINtB8_6ParserReE7processINtB8_7OutputMNtB8_4EmitB31_NtB8_9StreamingEEs_0BQ_:
  776|  5.64k|      Err(Err::Error(e)) => Err(Err::Error(OM::Error::map(e, |e| e.into()))),
_RNvYINtNtCshuHlpjMNnjS_3nom8internal3MapINtNtB7_6branch6ChoiceTNCNvNtCsd77JCpXvqG6_15rsonpath_syntax6parser13child_segment0INtNtB7_8sequence8PrecededNCINvNtNtB7_9character8complete4charReNtNtB15_5error18InternalParseErrorE0INtNtB7_10combinator3CutIBD_TIB3_NvB13_17wildcard_selectorNvMsq_B15_NtB15_9Selectors3oneENvB13_21member_name_shorthandNCINvB13_14failed_segmentB4F_E0EEEEEENcNtNtB15_7Segment5Child0EINtB5_6ParserB2X_E5parseB15_:
  412|  39.3k|  fn parse(&mut self, input: Input) -> IResult<Input, Self::Output, Self::Error> {
  413|  39.3k|    self.process::<OutputM<Emit, Emit, Streaming>>(input)
  414|  39.3k|  }
_RNvYINtNtCshuHlpjMNnjS_3nom8internal3MapINtNtB7_8sequence8PrecededINtNtB7_10combinator4PeekNvNvNtCsd77JCpXvqG6_15rsonpath_syntax6parser21member_name_shorthand10name_firstEINtNtB7_5multi9FoldMany0NvB1t_9name_charNCB1t_0NvMs_NtB1x_3strNtB3z_17JsonStringBuilder3newB3J_EENCB1t_s_0EINtB5_6ParserReE5parseB1x_:
  412|  13.4k|  fn parse(&mut self, input: Input) -> IResult<Input, Self::Output, Self::Error> {
  413|  13.4k|    self.process::<OutputM<Emit, Emit, Streaming>>(input)
  414|  13.4k|  }
_RNvYINtNtCshuHlpjMNnjS_3nom8internal3MapINtNtB7_8sequence8PrecededNCINvNtNtB7_5bytes8complete3tagReB1x_NtNtCsd77JCpXvqG6_15rsonpath_syntax5error18InternalParseErrorE0INtNtB7_10combinator3CutINtNtB7_6branch6ChoiceTNCNvNtB1H_6parser18descendant_segment0IB3_NvB3t_17wildcard_selectorNvMsq_B1H_NtB1H_9Selectors3oneENvB3t_21member_name_shorthandNCINvB3t_14failed_segmentB4E_E0EEEENcNtNtB1H_7Segment10Descendant0EINtB5_6ParserB1x_E5parseB1H_:
  412|  44.9k|  fn parse(&mut self, input: Input) -> IResult<Input, Self::Output, Self::Error> {
  413|  44.9k|    self.process::<OutputM<Emit, Emit, Streaming>>(input)
  414|  44.9k|  }
_RNvYINtNtCshuHlpjMNnjS_3nom8internal3MapNCINvNtNtB7_5bytes8complete3tagReB17_NtNtCsd77JCpXvqG6_15rsonpath_syntax5error18InternalParseErrorE0NCNvNtB1h_6parser17wildcard_selector0EINtB5_6ParserB17_E5parseB1h_:
  412|  65.2k|  fn parse(&mut self, input: Input) -> IResult<Input, Self::Output, Self::Error> {
  413|  65.2k|    self.process::<OutputM<Emit, Emit, Streaming>>(input)
  414|  65.2k|  }
_RNvYINtNtCshuHlpjMNnjS_3nom8internal3MapNvNtCsd77JCpXvqG6_15rsonpath_syntax6parser14string_literalNcNtNtBG_8Selector4Name0EINtB5_6ParserReE5parseBG_:
  412|  51.1k|  fn parse(&mut self, input: Input) -> IResult<Input, Self::Output, Self::Error> {
  413|  51.1k|    self.process::<OutputM<Emit, Emit, Streaming>>(input)
  414|  51.1k|  }
_RNvYINtNtCshuHlpjMNnjS_3nom8internal3MapNvNtCsd77JCpXvqG6_15rsonpath_syntax6parser5floatNCNvBE_6number0EINtB5_6ParserReE5parseBG_:
  412|  39.3k|  fn parse(&mut self, input: Input) -> IResult<Input, Self::Output, Self::Error> {
  413|  39.3k|    self.process::<OutputM<Emit, Emit, Streaming>>(input)
  414|  39.3k|  }
_RNvYINtNtCshuHlpjMNnjS_3nom8internal4IntoINtNtB7_8sequence8PrecededNCINvNtNtB7_9character8complete4charReNtNtCsd77JCpXvqG6_15rsonpath_syntax5error18InternalParseErrorE0NCINvNtB1J_6parser17ignore_whitespaceNtB1J_11LogicalExprNCNvB2L_15filter_selector0B1F_E0ENtB1J_8SelectorB1F_EINtB5_6ParserB1D_E5parseB1J_:
  412|  33.5k|  fn parse(&mut self, input: Input) -> IResult<Input, Self::Output, Self::Error> {
  413|  33.5k|    self.process::<OutputM<Emit, Emit, Streaming>>(input)
  414|  33.5k|  }
_RINvXsa_NtCshuHlpjMNnjS_3nom8internalNtB6_4EmitNtB6_4Mode4bindINtNtCs6SNw0SRvItZ_4core6option6OptionReENCINvXNtB8_10combinatorINtB1J_3OptNvNtCsd77JCpXvqG6_15rsonpath_syntax6parser3intEINtB6_6ParserB1A_E7processINtB6_7OutputMBz_Bz_NtB6_9StreamingEE0EB2f_:
  272|  38.7k|  fn bind<T, F: FnOnce() -> T>(f: F) -> Self::Output<T> {
  273|  38.7k|    f()
  274|  38.7k|  }
_RINvYINtNtCshuHlpjMNnjS_3nom8sequence8PrecededINtNtB8_10combinator4PeekNvNvNtCsd77JCpXvqG6_15rsonpath_syntax6parser21member_name_shorthand10name_firstEINtNtB8_5multi9FoldMany0NvB19_9name_charNCB19_0NvMs_NtB1d_3strNtB3f_17JsonStringBuilder3newB3p_EEINtNtB8_8internal6ParserReE3mapNCB19_s_0NtB1d_9SelectorsEB1d_:
  431|  13.4k|  fn map<G, O2>(self, g: G) -> Map<Self, G>
  432|  13.4k|  where
  433|  13.4k|    G: FnMut(Self::Output) -> O2,
  434|  13.4k|    Self: core::marker::Sized,
  435|       |  {
  436|  13.4k|    Map { f: self, g }
  437|  13.4k|  }
_RINvYINtNtCshuHlpjMNnjS_3nom8sequence8PrecededNCINvNtNtB8_5bytes8complete3tagReB1d_NtNtCsd77JCpXvqG6_15rsonpath_syntax5error18InternalParseErrorE0INtNtB8_10combinator3CutINtNtB8_6branch6ChoiceTNCNvNtB1n_6parser18descendant_segment0INtNtB8_8internal3MapNvB39_17wildcard_selectorNvMsq_B1n_NtB1n_9Selectors3oneENvB39_21member_name_shorthandNCINvB39_14failed_segmentB4B_E0EEEEINtB3K_6ParserB1d_E3mapNcNtNtB1n_7Segment10Descendant0B6p_EB1n_:
  431|  44.9k|  fn map<G, O2>(self, g: G) -> Map<Self, G>
  432|  44.9k|  where
  433|  44.9k|    G: FnMut(Self::Output) -> O2,
  434|  44.9k|    Self: core::marker::Sized,
  435|       |  {
  436|  44.9k|    Map { f: self, g }
  437|  44.9k|  }
_RINvYINtNtCshuHlpjMNnjS_3nom8sequence8PrecededNCINvNtNtB8_9character8complete4charReNtNtCsd77JCpXvqG6_15rsonpath_syntax5error18InternalParseErrorE0NCINvNtB1o_6parser17ignore_whitespaceNtB1o_11LogicalExprNCNvB2q_15filter_selector0B1k_E0EINtNtB8_8internal6ParserB1i_E4intoNtB1o_8SelectorB1k_EB1o_:
  497|  33.5k|  fn into<O2: From<Self::Output>, E2: From<Self::Error>>(self) -> Into<Self, O2, E2>
  498|  33.5k|  where
  499|  33.5k|    Self: core::marker::Sized,
  500|       |  {
  501|  33.5k|    Into {
  502|  33.5k|      f: self,
  503|  33.5k|      phantom_out2: core::marker::PhantomData,
  504|  33.5k|      phantom_err2: core::marker::PhantomData,
  505|  33.5k|    }
  506|  33.5k|  }
_RNvYINtNtCshuHlpjMNnjS_3nom8sequence10TerminatedINtNtB7_10combinator3OptNvNtCsd77JCpXvqG6_15rsonpath_syntax6parser3intENCINvB1a_17ignore_whitespacecNCINvNtNtB7_9character8complete4charReNtNtB1c_5error18InternalParseErrorE0B2Y_E0EINtNtB7_8internal6ParserB2W_E5parseB1c_:
  412|  47.5k|  fn parse(&mut self, input: Input) -> IResult<Input, Self::Output, Self::Error> {
  413|  47.5k|    self.process::<OutputM<Emit, Emit, Streaming>>(input)
  414|  47.5k|  }
_RNvYINtNtCshuHlpjMNnjS_3nom8sequence8PrecededNCINvNtNtB7_9character8complete4charReNtNtCsd77JCpXvqG6_15rsonpath_syntax5error18InternalParseErrorE0INtNtB7_10combinator3OptNCINvNtB1n_6parser17ignore_whitespaceB1h_NvB2N_3intB1j_E0EEINtNtB7_8internal6ParserB1h_E5parseB1n_:
  412|  4.97k|  fn parse(&mut self, input: Input) -> IResult<Input, Self::Output, Self::Error> {
  413|  4.97k|    self.process::<OutputM<Emit, Emit, Streaming>>(input)
  414|  4.97k|  }
_RINvXsa_NtCshuHlpjMNnjS_3nom8internalNtB6_4EmitNtB6_4Mode4bindNtNtCsd77JCpXvqG6_15rsonpath_syntax5error18InternalParseErrorNCINvXNtB8_5bytesINtB23_3TagReBY_EINtB6_6ParserB2p_E7processINtB6_7OutputMBz_Bz_NtB6_8CompleteEEs0_0EB12_:
  272|   288k|  fn bind<T, F: FnOnce() -> T>(f: F) -> Self::Output<T> {
  273|   288k|    f()
  274|   288k|  }
_RINvXsa_NtCshuHlpjMNnjS_3nom8internalNtB6_4EmitNtB6_4Mode4bindNtNtCsd77JCpXvqG6_15rsonpath_syntax5error18InternalParseErrorNCINvXNtB8_5bytesINtB23_3TagReBY_EINtB6_6ParserB2p_E7processINtB6_7OutputMBz_Bz_NtB6_8CompleteEEs_0EB12_:
  272|  2.79k|  fn bind<T, F: FnOnce() -> T>(f: F) -> Self::Output<T> {
  273|  2.79k|    f()
  274|  2.79k|  }
_RINvXsa_NtCshuHlpjMNnjS_3nom8internalNtB6_4EmitNtB6_4Mode4bindNtNtCsd77JCpXvqG6_15rsonpath_syntax5error18InternalParseErrorNCINvXs_NtB8_5bytesINtB25_9TagNoCaseReBY_EINtB6_6ParserB2x_E7processINtB6_7OutputMBz_Bz_NtB6_8CompleteEEs0_0EB12_:
  272|  8.12k|  fn bind<T, F: FnOnce() -> T>(f: F) -> Self::Output<T> {
  273|  8.12k|    f()
  274|  8.12k|  }
_RINvXsa_NtCshuHlpjMNnjS_3nom8internalNtB6_4EmitNtB6_4Mode4bindNtNtCsd77JCpXvqG6_15rsonpath_syntax5error18InternalParseErrorNCINvXs_NtB8_5bytesINtB25_9TagNoCaseReBY_EINtB6_6ParserB2x_E7processINtB6_7OutputMBz_Bz_NtB6_8CompleteEEs_0EB12_:
  272|     85|  fn bind<T, F: FnOnce() -> T>(f: F) -> Self::Output<T> {
  273|     85|    f()
  274|     85|  }
_RINvXsa_NtCshuHlpjMNnjS_3nom8internalNtB6_4EmitNtB6_4Mode4bindReNCINvXNtB8_5bytesINtB16_3TagBY_NtNtCsd77JCpXvqG6_15rsonpath_syntax5error18InternalParseErrorEINtB6_6ParserBY_E7processINtB6_7OutputMBz_Bz_NtB6_8CompleteEE0EB1z_:
  272|  15.2k|  fn bind<T, F: FnOnce() -> T>(f: F) -> Self::Output<T> {
  273|  15.2k|    f()
  274|  15.2k|  }
_RINvXsa_NtCshuHlpjMNnjS_3nom8internalNtB6_4EmitNtB6_4Mode4bindReNCINvXs_NtB8_5bytesINtB18_9TagNoCaseBY_NtNtCsd77JCpXvqG6_15rsonpath_syntax5error18InternalParseErrorEINtB6_6ParserBY_E7processINtB6_7OutputMBz_Bz_NtB6_8CompleteEE0EB1H_:
  272|  1.59k|  fn bind<T, F: FnOnce() -> T>(f: F) -> Self::Output<T> {
  273|  1.59k|    f()
  274|  1.59k|  }
_RINvXsa_NtCshuHlpjMNnjS_3nom8internalNtB6_4EmitNtB6_4Mode3mapNtNtCsd77JCpXvqG6_15rsonpath_syntax5error18InternalParseErrorBX_NCINvXs1_NtB8_6branchINtB28_6ChoiceTINtB6_3MapNCINvNtNtB8_5bytes8complete3tagReB3e_BX_E0NCINvNtB8_10combinator5valueB3e_NtNvNtB11_6parser12logical_expr9BooleanOpBX_B2J_E0EB2z_EEINtB6_6ParserB3e_E7processINtB6_7OutputMBz_Bz_NtB6_9StreamingEEs_0EB11_:
  277|  12.3k|  fn map<T, U, F: FnOnce(T) -> U>(x: Self::Output<T>, f: F) -> Self::Output<U> {
  278|  12.3k|    f(x)
  279|  12.3k|  }
_RINvXsa_NtCshuHlpjMNnjS_3nom8internalNtB6_4EmitNtB6_4Mode3mapNtNtCsd77JCpXvqG6_15rsonpath_syntax5error18InternalParseErrorBX_NCINvXs1_NtB8_6branchINtB28_6ChoiceTINtB6_3MapNCINvNtNtB8_9character8complete4charReBX_E0NCINvNtB8_10combinator5valueB3j_NtNtB11_6parser16RootSelectorTypeBX_B2J_E0EB2z_EEINtB6_6ParserB3j_E7processINtB6_7OutputMBz_Bz_NtB6_9StreamingEEs_0EB11_:
  277|  3.18k|  fn map<T, U, F: FnOnce(T) -> U>(x: Self::Output<T>, f: F) -> Self::Output<U> {
  278|  3.18k|    f(x)
  279|  3.18k|  }
_RINvXsa_NtCshuHlpjMNnjS_3nom8internalNtB6_4EmitNtB6_4Mode3mapNtNtCsd77JCpXvqG6_15rsonpath_syntax5error18InternalParseErrorBX_NCINvXs1_NtB8_6branchINtB28_6ChoiceTINtNtB8_8sequence8PrecededNCINvNtNtB8_9character8complete4charReBX_E0NCNvNtB11_6parser6string0EB2z_EEINtB6_6ParserB3z_E7processINtB6_7OutputMBz_Bz_NtB6_9StreamingEEs_0EB11_:
  277|  77.4k|  fn map<T, U, F: FnOnce(T) -> U>(x: Self::Output<T>, f: F) -> Self::Output<U> {
  278|  77.4k|    f(x)
  279|  77.4k|  }
_RINvXsa_NtCshuHlpjMNnjS_3nom8internalNtB6_4EmitNtB6_4Mode3mapNtNtCsd77JCpXvqG6_15rsonpath_syntax5error18InternalParseErrorBX_NCINvXs1_NtB8_6branchINtB28_6ChoiceTNvNvNtB11_6parser21member_name_shorthand10name_firstNCINvNtNtB8_9character8complete7satisfyNCNvB2B_9name_char0ReBX_E0EEINtB6_6ParserB4l_E7processINtB6_7OutputMBz_Bz_NtB6_9StreamingEEs_0EB11_:
  277|  6.16k|  fn map<T, U, F: FnOnce(T) -> U>(x: Self::Output<T>, f: F) -> Self::Output<U> {
  278|  6.16k|    f(x)
  279|  6.16k|  }
_RINvXsa_NtCshuHlpjMNnjS_3nom8internalNtB6_4EmitNtB6_4Mode3mapNtNtCsd77JCpXvqG6_15rsonpath_syntax5error18InternalParseErrorBX_NCINvXs4_NtB8_6branchINtB28_6ChoiceTINtB6_4IntoNvNtB11_6parser6numberNtB11_7LiteralBX_EIB2A_NvB2M_14string_literalB36_BX_EINtB6_3MapNCINvNtNtB8_5bytes8complete3tagReB4C_BX_E0NCINvNtB8_10combinator5valueB4C_B36_BX_B47_E0EB3X_B3X_EEINtB6_6ParserB4C_E7processINtB6_7OutputMBz_Bz_NtB6_9StreamingEEs2_0EB11_:
  277|  28.2k|  fn map<T, U, F: FnOnce(T) -> U>(x: Self::Output<T>, f: F) -> Self::Output<U> {
  278|  28.2k|    f(x)
  279|  28.2k|  }
_RINvXsa_NtCshuHlpjMNnjS_3nom8internalNtB6_4EmitNtB6_4Mode3mapNtNtCsd77JCpXvqG6_15rsonpath_syntax5error18InternalParseErrorBX_NCINvXs5_NtB8_6branchINtB28_6ChoiceTINtB6_3MapNCINvNtNtB8_5bytes8complete3tagReB3e_BX_E0NCINvNtB8_10combinator5valueB3e_NtB11_12ComparisonOpBX_B2J_E0EB2z_B2z_B2z_IB2A_NCINvNtNtB8_9character8complete4charB3e_BX_E0NCIB3s_B3e_B3V_BX_B4G_E0EB4B_EEINtB6_6ParserB3e_E7processINtB6_7OutputMBz_Bz_NtB6_9StreamingEEs3_0EB11_:
  277|  11.4k|  fn map<T, U, F: FnOnce(T) -> U>(x: Self::Output<T>, f: F) -> Self::Output<U> {
  278|  11.4k|    f(x)
  279|  11.4k|  }
_RINvXsa_NtCshuHlpjMNnjS_3nom8internalNtB6_4EmitNtB6_4Mode3mapReNtCsd77JCpXvqG6_15rsonpath_syntax12ComparisonOpNCINvXsg_B6_INtB6_3MapNCINvNtNtB8_5bytes8complete3tagBX_BX_NtNtB11_5error18InternalParseErrorE0NCINvNtB8_10combinator5valueBX_BZ_B2H_B26_E0EINtB6_6ParserBX_E7processINtB6_7OutputMBz_Bz_NtB6_9StreamingEE0EB11_:
  277|  1.32k|  fn map<T, U, F: FnOnce(T) -> U>(x: Self::Output<T>, f: F) -> Self::Output<U> {
  278|  1.32k|    f(x)
  279|  1.32k|  }
_RINvXsa_NtCshuHlpjMNnjS_3nom8internalNtB6_4EmitNtB6_4Mode3mapReNtCsd77JCpXvqG6_15rsonpath_syntax7LiteralNCINvXsg_B6_INtB6_3MapNCINvNtNtB8_5bytes8complete3tagBX_BX_NtNtB11_5error18InternalParseErrorE0NCINvNtB8_10combinator5valueBX_BZ_B2B_B20_E0EINtB6_6ParserBX_E7processINtB6_7OutputMBz_Bz_NtB6_9StreamingEE0EB11_:
  277|    196|  fn map<T, U, F: FnOnce(T) -> U>(x: Self::Output<T>, f: F) -> Self::Output<U> {
  278|    196|    f(x)
  279|    196|  }
_RINvXsa_NtCshuHlpjMNnjS_3nom8internalNtB6_4EmitNtB6_4Mode3mapReNtNvNtCsd77JCpXvqG6_15rsonpath_syntax6parser12logical_expr9BooleanOpNCINvXsg_B6_INtB6_3MapNCINvNtNtB8_5bytes8complete3tagBX_BX_NtNtB15_5error18InternalParseErrorE0NCINvNtB8_10combinator5valueBX_BZ_B32_B2r_E0EINtB6_6ParserBX_E7processINtB6_7OutputMBz_Bz_NtB6_9StreamingEE0EB15_:
  277|  3.82k|  fn map<T, U, F: FnOnce(T) -> U>(x: Self::Output<T>, f: F) -> Self::Output<U> {
  278|  3.82k|    f(x)
  279|  3.82k|  }
_RINvXsa_NtCshuHlpjMNnjS_3nom8internalNtB6_4EmitNtB6_4Mode3mapcNtCsd77JCpXvqG6_15rsonpath_syntax12ComparisonOpNCINvXsg_B6_INtB6_3MapNCINvNtNtB8_9character8complete4charReNtNtB10_5error18InternalParseErrorE0NCINvNtB8_10combinator5valueB2F_BY_B2H_B25_E0EINtB6_6ParserB2F_E7processINtB6_7OutputMBz_Bz_NtB6_9StreamingEE0EB10_:
  277|  7.64k|  fn map<T, U, F: FnOnce(T) -> U>(x: Self::Output<T>, f: F) -> Self::Output<U> {
  278|  7.64k|    f(x)
  279|  7.64k|  }
_RINvXsa_NtCshuHlpjMNnjS_3nom8internalNtB6_4EmitNtB6_4Mode3mapcNtNtCsd77JCpXvqG6_15rsonpath_syntax6parser16RootSelectorTypeNCINvXsg_B6_INtB6_3MapNCINvNtNtB8_9character8complete4charReNtNtB12_5error18InternalParseErrorE0NCINvNtB8_10combinator5valueB2S_BY_B2U_B2i_E0EINtB6_6ParserB2S_E7processINtB6_7OutputMBz_Bz_NtB6_9StreamingEE0EB12_:
  277|  25.1k|  fn map<T, U, F: FnOnce(T) -> U>(x: Self::Output<T>, f: F) -> Self::Output<U> {
  278|  25.1k|    f(x)
  279|  25.1k|  }
_RINvXsa_NtCshuHlpjMNnjS_3nom8internalNtB6_4EmitNtB6_4Mode7combineNtNtCsd77JCpXvqG6_15rsonpath_syntax5error18InternalParseErrorB11_B11_NCINvXs1_NtB8_6branchINtB2h_6ChoiceTINtB6_3MapNCINvNtNtB8_5bytes8complete3tagReB3n_B11_E0NCINvNtB8_10combinator5valueB3n_NtNvNtB15_6parser12logical_expr9BooleanOpB11_B2S_E0EB2I_EEINtB6_6ParserB3n_E7processINtB6_7OutputMBz_Bz_NtB6_9StreamingEE0EB15_:
  282|  12.3k|  fn combine<T, U, V, F: FnOnce(T, U) -> V>(
  283|  12.3k|    x: Self::Output<T>,
  284|  12.3k|    y: Self::Output<U>,
  285|  12.3k|    f: F,
  286|  12.3k|  ) -> Self::Output<V> {
  287|  12.3k|    f(x, y)
  288|  12.3k|  }
_RINvXsa_NtCshuHlpjMNnjS_3nom8internalNtB6_4EmitNtB6_4Mode7combineNtNtCsd77JCpXvqG6_15rsonpath_syntax5error18InternalParseErrorB11_B11_NCINvXs1_NtB8_6branchINtB2h_6ChoiceTINtB6_3MapNCINvNtNtB8_9character8complete4charReB11_E0NCINvNtB8_10combinator5valueB3s_NtNtB15_6parser16RootSelectorTypeB11_B2S_E0EB2I_EEINtB6_6ParserB3s_E7processINtB6_7OutputMBz_Bz_NtB6_9StreamingEE0EB15_:
  282|  3.18k|  fn combine<T, U, V, F: FnOnce(T, U) -> V>(
  283|  3.18k|    x: Self::Output<T>,
  284|  3.18k|    y: Self::Output<U>,
  285|  3.18k|    f: F,
  286|  3.18k|  ) -> Self::Output<V> {
  287|  3.18k|    f(x, y)
  288|  3.18k|  }
_RINvXsa_NtCshuHlpjMNnjS_3nom8internalNtB6_4EmitNtB6_4Mode7combineNtNtCsd77JCpXvqG6_15rsonpath_syntax5error18InternalParseErrorB11_B11_NCINvXs1_NtB8_6branchINtB2h_6ChoiceTINtNtB8_8sequence8PrecededNCINvNtNtB8_9character8complete4charReB11_E0NCNvNtB15_6parser6string0EB2I_EEINtB6_6ParserB3I_E7processINtB6_7OutputMBz_Bz_NtB6_9StreamingEE0EB15_:
  282|  77.4k|  fn combine<T, U, V, F: FnOnce(T, U) -> V>(
  283|  77.4k|    x: Self::Output<T>,
  284|  77.4k|    y: Self::Output<U>,
  285|  77.4k|    f: F,
  286|  77.4k|  ) -> Self::Output<V> {
  287|  77.4k|    f(x, y)
  288|  77.4k|  }
_RINvXsa_NtCshuHlpjMNnjS_3nom8internalNtB6_4EmitNtB6_4Mode7combineNtNtCsd77JCpXvqG6_15rsonpath_syntax5error18InternalParseErrorB11_B11_NCINvXs1_NtB8_6branchINtB2h_6ChoiceTNvNvNtB15_6parser21member_name_shorthand10name_firstNCINvNtNtB8_9character8complete7satisfyNCNvB2K_9name_char0ReB11_E0EEINtB6_6ParserB4u_E7processINtB6_7OutputMBz_Bz_NtB6_9StreamingEE0EB15_:
  282|  6.16k|  fn combine<T, U, V, F: FnOnce(T, U) -> V>(
  283|  6.16k|    x: Self::Output<T>,
  284|  6.16k|    y: Self::Output<U>,
  285|  6.16k|    f: F,
  286|  6.16k|  ) -> Self::Output<V> {
  287|  6.16k|    f(x, y)
  288|  6.16k|  }
_RINvXsa_NtCshuHlpjMNnjS_3nom8internalNtB6_4EmitNtB6_4Mode7combineNtNtCsd77JCpXvqG6_15rsonpath_syntax5error18InternalParseErrorB11_B11_NCINvXs4_NtB8_6branchINtB2h_6ChoiceTINtB6_4IntoNvNtB15_6parser6numberNtB15_7LiteralB11_EIB2J_NvB2V_14string_literalB3f_B11_EINtB6_3MapNCINvNtNtB8_5bytes8complete3tagReB4N_B11_E0NCINvNtB8_10combinator5valueB4N_B3f_B11_B4i_E0EB48_B48_EEINtB6_6ParserB4N_E7processINtB6_7OutputMBz_Bz_NtB6_9StreamingEE0EB15_:
  282|  28.2k|  fn combine<T, U, V, F: FnOnce(T, U) -> V>(
  283|  28.2k|    x: Self::Output<T>,
  284|  28.2k|    y: Self::Output<U>,
  285|  28.2k|    f: F,
  286|  28.2k|  ) -> Self::Output<V> {
  287|  28.2k|    f(x, y)
  288|  28.2k|  }
_RINvXsa_NtCshuHlpjMNnjS_3nom8internalNtB6_4EmitNtB6_4Mode7combineNtNtCsd77JCpXvqG6_15rsonpath_syntax5error18InternalParseErrorB11_B11_NCINvXs4_NtB8_6branchINtB2h_6ChoiceTINtB6_4IntoNvNtB15_6parser6numberNtB15_7LiteralB11_EIB2J_NvB2V_14string_literalB3f_B11_EINtB6_3MapNCINvNtNtB8_5bytes8complete3tagReB4N_B11_E0NCINvNtB8_10combinator5valueB4N_B3f_B11_B4i_E0EB48_B48_EEINtB6_6ParserB4N_E7processINtB6_7OutputMBz_Bz_NtB6_9StreamingEEs0_0EB15_:
  282|  28.2k|  fn combine<T, U, V, F: FnOnce(T, U) -> V>(
  283|  28.2k|    x: Self::Output<T>,
  284|  28.2k|    y: Self::Output<U>,
  285|  28.2k|    f: F,
  286|  28.2k|  ) -> Self::Output<V> {
  287|  28.2k|    f(x, y)
  288|  28.2k|  }
_RINvXsa_NtCshuHlpjMNnjS_3nom8internalNtB6_4EmitNtB6_4Mode7combineNtNtCsd77JCpXvqG6_15rsonpath_syntax5error18InternalParseErrorB11_B11_NCINvXs4_NtB8_6branchINtB2h_6ChoiceTINtB6_4IntoNvNtB15_6parser6numberNtB15_7LiteralB11_EIB2J_NvB2V_14string_literalB3f_B11_EINtB6_3MapNCINvNtNtB8_5bytes8complete3tagReB4N_B11_E0NCINvNtB8_10combinator5valueB4N_B3f_B11_B4i_E0EB48_B48_EEINtB6_6ParserB4N_E7processINtB6_7OutputMBz_Bz_NtB6_9StreamingEEs1_0EB15_:
  282|  28.2k|  fn combine<T, U, V, F: FnOnce(T, U) -> V>(
  283|  28.2k|    x: Self::Output<T>,
  284|  28.2k|    y: Self::Output<U>,
  285|  28.2k|    f: F,
  286|  28.2k|  ) -> Self::Output<V> {
  287|  28.2k|    f(x, y)
  288|  28.2k|  }
_RINvXsa_NtCshuHlpjMNnjS_3nom8internalNtB6_4EmitNtB6_4Mode7combineNtNtCsd77JCpXvqG6_15rsonpath_syntax5error18InternalParseErrorB11_B11_NCINvXs4_NtB8_6branchINtB2h_6ChoiceTINtB6_4IntoNvNtB15_6parser6numberNtB15_7LiteralB11_EIB2J_NvB2V_14string_literalB3f_B11_EINtB6_3MapNCINvNtNtB8_5bytes8complete3tagReB4N_B11_E0NCINvNtB8_10combinator5valueB4N_B3f_B11_B4i_E0EB48_B48_EEINtB6_6ParserB4N_E7processINtB6_7OutputMBz_Bz_NtB6_9StreamingEEs_0EB15_:
  282|  28.2k|  fn combine<T, U, V, F: FnOnce(T, U) -> V>(
  283|  28.2k|    x: Self::Output<T>,
  284|  28.2k|    y: Self::Output<U>,
  285|  28.2k|    f: F,
  286|  28.2k|  ) -> Self::Output<V> {
  287|  28.2k|    f(x, y)
  288|  28.2k|  }
_RINvXsa_NtCshuHlpjMNnjS_3nom8internalNtB6_4EmitNtB6_4Mode7combineNtNtCsd77JCpXvqG6_15rsonpath_syntax5error18InternalParseErrorB11_B11_NCINvXs5_NtB8_6branchINtB2h_6ChoiceTINtB6_3MapNCINvNtNtB8_5bytes8complete3tagReB3n_B11_E0NCINvNtB8_10combinator5valueB3n_NtB15_12ComparisonOpB11_B2S_E0EB2I_B2I_B2I_IB2J_NCINvNtNtB8_9character8complete4charB3n_B11_E0NCIB3C_B3n_B45_B11_B4R_E0EB4M_EEINtB6_6ParserB3n_E7processINtB6_7OutputMBz_Bz_NtB6_9StreamingEE0EB15_:
  282|  11.4k|  fn combine<T, U, V, F: FnOnce(T, U) -> V>(
  283|  11.4k|    x: Self::Output<T>,
  284|  11.4k|    y: Self::Output<U>,
  285|  11.4k|    f: F,
  286|  11.4k|  ) -> Self::Output<V> {
  287|  11.4k|    f(x, y)
  288|  11.4k|  }
_RINvXsa_NtCshuHlpjMNnjS_3nom8internalNtB6_4EmitNtB6_4Mode7combineNtNtCsd77JCpXvqG6_15rsonpath_syntax5error18InternalParseErrorB11_B11_NCINvXs5_NtB8_6branchINtB2h_6ChoiceTINtB6_3MapNCINvNtNtB8_5bytes8complete3tagReB3n_B11_E0NCINvNtB8_10combinator5valueB3n_NtB15_12ComparisonOpB11_B2S_E0EB2I_B2I_B2I_IB2J_NCINvNtNtB8_9character8complete4charB3n_B11_E0NCIB3C_B3n_B45_B11_B4R_E0EB4M_EEINtB6_6ParserB3n_E7processINtB6_7OutputMBz_Bz_NtB6_9StreamingEEs0_0EB15_:
  282|  11.4k|  fn combine<T, U, V, F: FnOnce(T, U) -> V>(
  283|  11.4k|    x: Self::Output<T>,
  284|  11.4k|    y: Self::Output<U>,
  285|  11.4k|    f: F,
  286|  11.4k|  ) -> Self::Output<V> {
  287|  11.4k|    f(x, y)
  288|  11.4k|  }
_RINvXsa_NtCshuHlpjMNnjS_3nom8internalNtB6_4EmitNtB6_4Mode7combineNtNtCsd77JCpXvqG6_15rsonpath_syntax5error18InternalParseErrorB11_B11_NCINvXs5_NtB8_6branchINtB2h_6ChoiceTINtB6_3MapNCINvNtNtB8_5bytes8complete3tagReB3n_B11_E0NCINvNtB8_10combinator5valueB3n_NtB15_12ComparisonOpB11_B2S_E0EB2I_B2I_B2I_IB2J_NCINvNtNtB8_9character8complete4charB3n_B11_E0NCIB3C_B3n_B45_B11_B4R_E0EB4M_EEINtB6_6ParserB3n_E7processINtB6_7OutputMBz_Bz_NtB6_9StreamingEEs1_0EB15_:
  282|  11.4k|  fn combine<T, U, V, F: FnOnce(T, U) -> V>(
  283|  11.4k|    x: Self::Output<T>,
  284|  11.4k|    y: Self::Output<U>,
  285|  11.4k|    f: F,
  286|  11.4k|  ) -> Self::Output<V> {
  287|  11.4k|    f(x, y)
  288|  11.4k|  }
_RINvXsa_NtCshuHlpjMNnjS_3nom8internalNtB6_4EmitNtB6_4Mode7combineNtNtCsd77JCpXvqG6_15rsonpath_syntax5error18InternalParseErrorB11_B11_NCINvXs5_NtB8_6branchINtB2h_6ChoiceTINtB6_3MapNCINvNtNtB8_5bytes8complete3tagReB3n_B11_E0NCINvNtB8_10combinator5valueB3n_NtB15_12ComparisonOpB11_B2S_E0EB2I_B2I_B2I_IB2J_NCINvNtNtB8_9character8complete4charB3n_B11_E0NCIB3C_B3n_B45_B11_B4R_E0EB4M_EEINtB6_6ParserB3n_E7processINtB6_7OutputMBz_Bz_NtB6_9StreamingEEs2_0EB15_:
  282|  11.4k|  fn combine<T, U, V, F: FnOnce(T, U) -> V>(
  283|  11.4k|    x: Self::Output<T>,
  284|  11.4k|    y: Self::Output<U>,
  285|  11.4k|    f: F,
  286|  11.4k|  ) -> Self::Output<V> {
  287|  11.4k|    f(x, y)
  288|  11.4k|  }
_RINvXsa_NtCshuHlpjMNnjS_3nom8internalNtB6_4EmitNtB6_4Mode7combineNtNtCsd77JCpXvqG6_15rsonpath_syntax5error18InternalParseErrorB11_B11_NCINvXs5_NtB8_6branchINtB2h_6ChoiceTINtB6_3MapNCINvNtNtB8_5bytes8complete3tagReB3n_B11_E0NCINvNtB8_10combinator5valueB3n_NtB15_12ComparisonOpB11_B2S_E0EB2I_B2I_B2I_IB2J_NCINvNtNtB8_9character8complete4charB3n_B11_E0NCIB3C_B3n_B45_B11_B4R_E0EB4M_EEINtB6_6ParserB3n_E7processINtB6_7OutputMBz_Bz_NtB6_9StreamingEEs_0EB15_:
  282|  11.4k|  fn combine<T, U, V, F: FnOnce(T, U) -> V>(
  283|  11.4k|    x: Self::Output<T>,
  284|  11.4k|    y: Self::Output<U>,
  285|  11.4k|    f: F,
  286|  11.4k|  ) -> Self::Output<V> {
  287|  11.4k|    f(x, y)
  288|  11.4k|  }
_RINvXsg_NtCshuHlpjMNnjS_3nom8internalINtB6_3MapNCINvNtNtB8_5bytes8complete3tagReB1e_NtNtCsd77JCpXvqG6_15rsonpath_syntax5error18InternalParseErrorE0NCINvNtB8_10combinator5valueB1e_NtB1o_12ComparisonOpB1k_BJ_E0EINtB6_6ParserB1e_E7processINtB6_7OutputMNtB6_4EmitB3Z_NtB6_9StreamingEEB1o_:
  592|  79.3k|  fn process<OM: OutputMode>(&mut self, i: I) -> PResult<OM, I, Self::Output, Self::Error> {
  593|  79.3k|    match self.f.process::<OM>(i) {
  594|  78.0k|      Err(e) => Err(e),
  595|  1.32k|      Ok((i, o)) => Ok((i, OM::Output::map(o, |o| (self.g)(o)))),
  596|       |    }
  597|  79.3k|  }
_RINvXsg_NtCshuHlpjMNnjS_3nom8internalINtB6_3MapNCINvNtNtB8_5bytes8complete3tagReB1e_NtNtCsd77JCpXvqG6_15rsonpath_syntax5error18InternalParseErrorE0NCINvNtB8_10combinator5valueB1e_NtB1o_7LiteralB1k_BJ_E0EINtB6_6ParserB1e_E7processINtB6_7OutputMNtB6_4EmitB3T_NtB6_9StreamingEEB1o_:
  592|  85.0k|  fn process<OM: OutputMode>(&mut self, i: I) -> PResult<OM, I, Self::Output, Self::Error> {
  593|  85.0k|    match self.f.process::<OM>(i) {
  594|  84.8k|      Err(e) => Err(e),
  595|    196|      Ok((i, o)) => Ok((i, OM::Output::map(o, |o| (self.g)(o)))),
  596|       |    }
  597|  85.0k|  }
_RINvXsg_NtCshuHlpjMNnjS_3nom8internalINtB6_3MapNCINvNtNtB8_5bytes8complete3tagReB1e_NtNtCsd77JCpXvqG6_15rsonpath_syntax5error18InternalParseErrorE0NCINvNtB8_10combinator5valueB1e_NtNvNtB1o_6parser12logical_expr9BooleanOpB1k_BJ_E0EINtB6_6ParserB1e_E7processINtB6_7OutputMNtB6_4EmitB4k_NtB6_9StreamingEEB1o_:
  592|  31.8k|  fn process<OM: OutputMode>(&mut self, i: I) -> PResult<OM, I, Self::Output, Self::Error> {
  593|  31.8k|    match self.f.process::<OM>(i) {
  594|  27.9k|      Err(e) => Err(e),
  595|  3.82k|      Ok((i, o)) => Ok((i, OM::Output::map(o, |o| (self.g)(o)))),
  596|       |    }
  597|  31.8k|  }
_RINvXsg_NtCshuHlpjMNnjS_3nom8internalINtB6_3MapNCINvNtNtB8_9character8complete4charReNtNtCsd77JCpXvqG6_15rsonpath_syntax5error18InternalParseErrorE0NCINvNtB8_10combinator5valueB1j_NtB1p_12ComparisonOpB1l_BJ_E0EINtB6_6ParserB1j_E7processINtB6_7OutputMNtB6_4EmitB40_NtB6_9StreamingEEB1p_:
  592|  31.5k|  fn process<OM: OutputMode>(&mut self, i: I) -> PResult<OM, I, Self::Output, Self::Error> {
  593|  31.5k|    match self.f.process::<OM>(i) {
  594|  23.9k|      Err(e) => Err(e),
  595|  7.64k|      Ok((i, o)) => Ok((i, OM::Output::map(o, |o| (self.g)(o)))),
  596|       |    }
  597|  31.5k|  }
_RINvXsg_NtCshuHlpjMNnjS_3nom8internalINtB6_3MapNCINvNtNtB8_9character8complete4charReNtNtCsd77JCpXvqG6_15rsonpath_syntax5error18InternalParseErrorE0NCINvNtB8_10combinator5valueB1j_NtNtB1p_6parser16RootSelectorTypeB1l_BJ_E0EINtB6_6ParserB1j_E7processINtB6_7OutputMNtB6_4EmitB4d_NtB6_9StreamingEEB1p_:
  592|  35.8k|  fn process<OM: OutputMode>(&mut self, i: I) -> PResult<OM, I, Self::Output, Self::Error> {
  593|  35.8k|    match self.f.process::<OM>(i) {
  594|  10.7k|      Err(e) => Err(e),
  595|  25.1k|      Ok((i, o)) => Ok((i, OM::Output::map(o, |o| (self.g)(o)))),
  596|       |    }
  597|  35.8k|  }
_RINvYINtNtCshuHlpjMNnjS_3nom6branch6ChoiceTNCNvNtCsd77JCpXvqG6_15rsonpath_syntax6parser13child_segment0INtNtB8_8sequence8PrecededNCINvNtNtB8_9character8complete4charReNtNtBL_5error18InternalParseErrorE0INtNtB8_10combinator3CutIB4_TINtNtB8_8internal3MapNvBJ_17wildcard_selectorNvMsq_BL_NtBL_9Selectors3oneENvBJ_21member_name_shorthandNCINvBJ_14failed_segmentB4z_E0EEEEEEINtB3K_6ParserB2D_E3mapNcNtNtBL_7Segment5Child0B6m_EBL_:
  431|  39.3k|  fn map<G, O2>(self, g: G) -> Map<Self, G>
  432|  39.3k|  where
  433|  39.3k|    G: FnMut(Self::Output) -> O2,
  434|  39.3k|    Self: core::marker::Sized,
  435|       |  {
  436|  39.3k|    Map { f: self, g }
  437|  39.3k|  }
_RNvYINtNtCshuHlpjMNnjS_3nom6branch6ChoiceTINtNtB7_8internal3MapNCINvNtNtB7_5bytes8complete3tagReB1u_NtNtCsd77JCpXvqG6_15rsonpath_syntax5error18InternalParseErrorE0NCINvNtB7_10combinator5valueB1u_NtB1E_12ComparisonOpB1A_BZ_E0EBE_BE_BE_IBF_NCINvNtNtB7_9character8complete4charB1u_B1A_E0NCIB2E_B1u_B37_B1A_B3O_E0EB3K_EEINtBH_6ParserB1u_E5parseB1E_:
  412|  20.3k|  fn parse(&mut self, input: Input) -> IResult<Input, Self::Output, Self::Error> {
  413|  20.3k|    self.process::<OutputM<Emit, Emit, Streaming>>(input)
  414|  20.3k|  }
_RNvYINtNtCshuHlpjMNnjS_3nom6branch6ChoiceTINtNtB7_8internal3MapNCINvNtNtB7_5bytes8complete3tagReB1u_NtNtCsd77JCpXvqG6_15rsonpath_syntax5error18InternalParseErrorE0NCINvNtB7_10combinator5valueB1u_NtNvNtB1E_6parser12logical_expr9BooleanOpB1A_BZ_E0EBE_EEINtBH_6ParserB1u_E5parseB1E_:
  412|  16.1k|  fn parse(&mut self, input: Input) -> IResult<Input, Self::Output, Self::Error> {
  413|  16.1k|    self.process::<OutputM<Emit, Emit, Streaming>>(input)
  414|  16.1k|  }
_RNvYINtNtCshuHlpjMNnjS_3nom6branch6ChoiceTINtNtB7_8internal3MapNCINvNtNtB7_9character8complete4charReNtNtCsd77JCpXvqG6_15rsonpath_syntax5error18InternalParseErrorE0NCINvNtB7_10combinator5valueB1z_NtNtB1F_6parser16RootSelectorTypeB1B_BZ_E0EBE_EEINtBH_6ParserB1z_E5parseB1F_:
  412|  28.2k|  fn parse(&mut self, input: Input) -> IResult<Input, Self::Output, Self::Error> {
  413|  28.2k|    self.process::<OutputM<Emit, Emit, Streaming>>(input)
  414|  28.2k|  }
_RNvYINtNtCshuHlpjMNnjS_3nom6branch6ChoiceTINtNtB7_8internal4IntoNvNtCsd77JCpXvqG6_15rsonpath_syntax6parser6numberNtB14_7LiteralNtNtB14_5error18InternalParseErrorEIBF_NvB12_14string_literalB1N_B21_EINtBH_3MapNCINvNtNtB7_5bytes8complete3tagReB3O_B21_E0NCINvNtB7_10combinator5valueB3O_B1N_B21_B3j_E0EB39_B39_EEINtBH_6ParserB3O_E5parseB14_:
  412|  39.3k|  fn parse(&mut self, input: Input) -> IResult<Input, Self::Output, Self::Error> {
  413|  39.3k|    self.process::<OutputM<Emit, Emit, Streaming>>(input)
  414|  39.3k|  }
_RNvYINtNtCshuHlpjMNnjS_3nom6branch6ChoiceTINtNtB7_8internal4IntoNvNtCsd77JCpXvqG6_15rsonpath_syntax6parser7literalNtB14_10ComparableNtNtB14_5error18InternalParseErrorENCNvB12_10comparable0NCINvB12_24failed_filter_expressionB1O_E0EEINtBH_6ParserReE5parseB14_:
  412|  8.96k|  fn parse(&mut self, input: Input) -> IResult<Input, Self::Output, Self::Error> {
  413|  8.96k|    self.process::<OutputM<Emit, Emit, Streaming>>(input)
  414|  8.96k|  }
_RNvYINtNtCshuHlpjMNnjS_3nom6branch6ChoiceTINtNtB7_8sequence8PrecededNCINvNtNtB7_9character8complete4charReNtNtCsd77JCpXvqG6_15rsonpath_syntax5error18InternalParseErrorE0NCNvNtB1K_6parser6string0EBE_EEINtNtB7_8internal6ParserB1E_E5parseB1K_:
  412|  80.6k|  fn parse(&mut self, input: Input) -> IResult<Input, Self::Output, Self::Error> {
  413|  80.6k|    self.process::<OutputM<Emit, Emit, Streaming>>(input)
  414|  80.6k|  }
_RNvYINtNtCshuHlpjMNnjS_3nom6branch6ChoiceTNCINvNtCsd77JCpXvqG6_15rsonpath_syntax6parser17ignore_whitespaceNtBL_8SelectorNvBJ_13name_selectorNtNtBL_5error18InternalParseErrorE0NCIBH_B1G_NvBJ_17wildcard_selectorB2e_E0NCIBH_B1G_NvBJ_14slice_selectorB2e_E0NCIBH_B1G_NvBJ_14index_selectorB2e_E0NCIBH_B1G_NCNvBJ_8selector0B2e_E0NvBJ_15failed_selectorEEINtNtB7_8internal6ParserReE5parseBL_:
  412|  51.1k|  fn parse(&mut self, input: Input) -> IResult<Input, Self::Output, Self::Error> {
  413|  51.1k|    self.process::<OutputM<Emit, Emit, Streaming>>(input)
  414|  51.1k|  }
_RNvYINtNtCshuHlpjMNnjS_3nom6branch6ChoiceTNCNvNtCsd77JCpXvqG6_15rsonpath_syntax6parser12filter_query0NCBG_s_0NCINvBI_28failed_segment_within_filterNtBK_7SegmentE0EEINtNtB7_8internal6ParserReE5parseBK_:
  412|  19.0k|  fn parse(&mut self, input: Input) -> IResult<Input, Self::Output, Self::Error> {
  413|  19.0k|    self.process::<OutputM<Emit, Emit, Streaming>>(input)
  414|  19.0k|  }
_RNvYINtNtCshuHlpjMNnjS_3nom6branch6ChoiceTNCNvNtCsd77JCpXvqG6_15rsonpath_syntax6parser7segment0NCBG_s_0NCINvBI_14failed_segmentNtBK_7SegmentE0EEINtNtB7_8internal6ParserReE5parseBK_:
  412|  25.8k|  fn parse(&mut self, input: Input) -> IResult<Input, Self::Output, Self::Error> {
  413|  25.8k|    self.process::<OutputM<Emit, Emit, Streaming>>(input)
  414|  25.8k|  }
_RNvYINtNtCshuHlpjMNnjS_3nom6branch6ChoiceTNvNvNtCsd77JCpXvqG6_15rsonpath_syntax6parser21member_name_shorthand10name_firstNCINvNtNtB7_9character8complete7satisfyNCNvBG_9name_char0ReNtNtBK_5error18InternalParseErrorE0EEINtNtB7_8internal6ParserB2Q_E5parseBK_:
  412|  15.0k|  fn parse(&mut self, input: Input) -> IResult<Input, Self::Output, Self::Error> {
  413|  15.0k|    self.process::<OutputM<Emit, Emit, Streaming>>(input)
  414|  15.0k|  }

_RINvNtCshuHlpjMNnjS_3nom5multi10fold_many0ReNtNtCsd77JCpXvqG6_15rsonpath_syntax5error18InternalParseErrorNvNvNtBK_6parser21member_name_shorthand9name_charNCB1H_0NvMs_NtBK_3strNtB2E_17JsonStringBuilder3newB2N_EBK_:
 1044|  13.4k|pub fn fold_many0<I, E, F, G, H, R>(
 1045|  13.4k|  parser: F,
 1046|  13.4k|  init: H,
 1047|  13.4k|  g: G,
 1048|  13.4k|) -> impl Parser<I, Output = R, Error = E>
 1049|  13.4k|where
 1050|  13.4k|  I: Clone + Input,
 1051|  13.4k|  F: Parser<I, Error = E>,
 1052|  13.4k|  G: FnMut(R, <F as Parser<I>>::Output) -> R,
 1053|  13.4k|  H: FnMut() -> R,
 1054|  13.4k|  E: ParseError<I>,
 1055|       |{
 1056|  13.4k|  FoldMany0 {
 1057|  13.4k|    parser,
 1058|  13.4k|    g,
 1059|  13.4k|    init,
 1060|  13.4k|    r: PhantomData,
 1061|  13.4k|  }
 1062|  13.4k|}
_RINvXs8_NtCshuHlpjMNnjS_3nom5multiINtB6_9FoldMany0NvNvNtCsd77JCpXvqG6_15rsonpath_syntax6parser21member_name_shorthand9name_charNCBO_0NvMs_NtBS_3strNtB2c_17JsonStringBuilder3newB2l_EINtNtB8_8internal6ParserReE7processINtB2W_7OutputMNtB2W_4EmitB3H_NtB2W_9StreamingEEBS_:
 1082|  6.16k|  fn process<OM: OutputMode>(&mut self, i: I) -> crate::PResult<OM, I, Self::Output, Self::Error> {
 1083|  6.16k|    let mut res = OM::Output::bind(|| (self.init)());
 1084|  6.16k|    let mut input = i;
 1085|       |
 1086|       |    loop {
 1087|  15.0k|      let i_ = input.clone();
 1088|  15.0k|      let len = input.input_len();
 1089|  15.0k|      match self.parser.process::<OM>(i_) {
 1090|  8.92k|        Ok((i, o)) => {
 1091|       |          // infinite loop check: the parser must always consume
 1092|  8.92k|          if i.input_len() == len {
 1093|      0|            return Err(Err::Error(OM::Error::bind(|| {
 1094|       |              <F as Parser<I>>::Error::from_error_kind(input, ErrorKind::Many0)
 1095|       |            })));
 1096|  8.92k|          }
 1097|       |
 1098|  8.92k|          res = OM::Output::combine(res, o, |res, o| (self.g)(res, o));
 1099|  8.92k|          input = i;
 1100|       |        }
 1101|       |        Err(Err::Error(_)) => {
 1102|  6.16k|          return Ok((input, res));
 1103|       |        }
 1104|      0|        Err(e) => {
 1105|      0|          return Err(e);
 1106|       |        }
 1107|       |      }
 1108|       |    }
 1109|  6.16k|  }
_RNCINvXs8_NtCshuHlpjMNnjS_3nom5multiINtB8_9FoldMany0NvNvNtCsd77JCpXvqG6_15rsonpath_syntax6parser21member_name_shorthand9name_charNCBQ_0NvMs_NtBU_3strNtB2e_17JsonStringBuilder3newB2n_EINtNtBa_8internal6ParserReE7processINtB2Y_7OutputMNtB2Y_4EmitB3J_NtB2Y_9StreamingEE0BU_:
 1083|  6.16k|    let mut res = OM::Output::bind(|| (self.init)());
_RNCINvXs8_NtCshuHlpjMNnjS_3nom5multiINtB8_9FoldMany0NvNvNtCsd77JCpXvqG6_15rsonpath_syntax6parser21member_name_shorthand9name_charNCBQ_0NvMs_NtBU_3strNtB2e_17JsonStringBuilder3newB2n_EINtNtBa_8internal6ParserReE7processINtB2Y_7OutputMNtB2Y_4EmitB3J_NtB2Y_9StreamingEEs0_0BU_:
 1098|  8.92k|          res = OM::Output::combine(res, o, |res, o| (self.g)(res, o));

_RINvXNtCshuHlpjMNnjS_3nom8sequenceINtB3_8PrecededINtNtB5_10combinator3OptINtNtB5_6branch6ChoiceTNCINvNtNtB5_9character8complete4charReNtNtCsd77JCpXvqG6_15rsonpath_syntax5error18InternalParseErrorE0B1w_EEEINvB1B_6digit1B26_B28_EEINtNtB5_8internal6ParserB26_E7processINtB3H_7OutputMNtB3H_4EmitNtB3H_5CheckNtB3H_9StreamingEEB2c_:
   88|  1.59k|  fn process<OM: OutputMode>(&mut self, i: I) -> PResult<OM, I, Self::Output, Self::Error> {
   89|  1.59k|    let (i, _) = self
   90|  1.59k|      .f
   91|  1.59k|      .process::<OutputM<Check, OM::Error, OM::Incomplete>>(i)?;
   92|  1.59k|    let (i, o2) = self.g.process::<OM>(i)?;
   93|       |
   94|  1.05k|    Ok((i, o2))
   95|  1.59k|  }
_RINvXNtCshuHlpjMNnjS_3nom8sequenceINtB3_8PrecededNCINvNtNtB5_5bytes8complete11tag_no_caseReB1p_NtNtCsd77JCpXvqG6_15rsonpath_syntax5error18InternalParseErrorE0IBx_INtNtB5_10combinator3OptINtNtB5_6branch6ChoiceTNCINvNtNtB5_9character8complete4charB1p_B1v_E0B3l_EEEINvB3q_6digit1B1p_B1v_EEEINtNtB5_8internal6ParserB1p_E7processINtB4E_7OutputMNtB4E_4EmitNtB4E_5CheckNtB4E_9StreamingEEB1z_:
   88|  9.80k|  fn process<OM: OutputMode>(&mut self, i: I) -> PResult<OM, I, Self::Output, Self::Error> {
   89|  9.80k|    let (i, _) = self
   90|  9.80k|      .f
   91|  9.80k|      .process::<OutputM<Check, OM::Error, OM::Incomplete>>(i)?;
   92|  1.59k|    let (i, o2) = self.g.process::<OM>(i)?;
   93|       |
   94|  1.05k|    Ok((i, o2))
   95|  9.80k|  }
_RINvXNtCshuHlpjMNnjS_3nom8sequenceINtB3_8PrecededNCINvNtNtB5_9character8complete4charReNtNtCsd77JCpXvqG6_15rsonpath_syntax5error18InternalParseErrorE0INvBQ_6digit1B1l_B1n_EEINtNtB5_8internal6ParserB1l_E7processINtB2O_7OutputMNtB2O_4EmitNtB2O_5CheckNtB2O_9StreamingEEB1r_:
   88|  9.80k|  fn process<OM: OutputMode>(&mut self, i: I) -> PResult<OM, I, Self::Output, Self::Error> {
   89|  9.80k|    let (i, _) = self
   90|  9.80k|      .f
   91|  9.80k|      .process::<OutputM<Check, OM::Error, OM::Incomplete>>(i)?;
   92|  1.71k|    let (i, o2) = self.g.process::<OM>(i)?;
   93|       |
   94|  1.35k|    Ok((i, o2))
   95|  9.80k|  }
_RINvXNtCshuHlpjMNnjS_3nom8sequenceINtB3_8PrecededNCINvNtNtB5_9character8complete4charReNtNtCsd77JCpXvqG6_15rsonpath_syntax5error18InternalParseErrorE0INvBQ_6digit1B1l_B1n_EEINtNtB5_8internal6ParserB1l_E7processINtB2O_7OutputMNtB2O_5CheckNtB2O_4EmitNtB2O_9StreamingEEB1r_:
   88|  95.4k|  fn process<OM: OutputMode>(&mut self, i: I) -> PResult<OM, I, Self::Output, Self::Error> {
   89|  95.4k|    let (i, _) = self
   90|  95.4k|      .f
   91|  95.4k|      .process::<OutputM<Check, OM::Error, OM::Incomplete>>(i)?;
   92|  4.12k|    let (i, o2) = self.g.process::<OM>(i)?;
   93|       |
   94|  3.28k|    Ok((i, o2))
   95|  95.4k|  }
_RINvXNtCshuHlpjMNnjS_3nom8sequenceINtB3_8PrecededNCINvNtNtB5_9character8complete4charReNtNtCsd77JCpXvqG6_15rsonpath_syntax5error18InternalParseErrorE0NvNvNtB1r_6parser5float10base_floatEINtNtB5_8internal6ParserB1l_E7processINtB31_7OutputMNtB31_5CheckNtB31_4EmitNtB31_9StreamingEEB1r_:
   88|  39.3k|  fn process<OM: OutputMode>(&mut self, i: I) -> PResult<OM, I, Self::Output, Self::Error> {
   89|  39.3k|    let (i, _) = self
   90|  39.3k|      .f
   91|  39.3k|      .process::<OutputM<Check, OM::Error, OM::Incomplete>>(i)?;
   92|  1.44k|    let (i, o2) = self.g.process::<OM>(i)?;
   93|       |
   94|  1.22k|    Ok((i, o2))
   95|  39.3k|  }
_RINvXNtCshuHlpjMNnjS_3nom8sequenceINtB3_8PrecededINtNtB5_10combinator4PeekNvNvNtCsd77JCpXvqG6_15rsonpath_syntax6parser21member_name_shorthand10name_firstEINtNtB5_5multi9FoldMany0NvB1c_9name_charNCB1c_0NvMs_NtB1g_3strNtB3i_17JsonStringBuilder3newB3s_EEINtNtB5_8internal6ParserReE7processINtB44_7OutputMNtB44_4EmitB4P_NtB44_9StreamingEEB1g_:
   88|  13.4k|  fn process<OM: OutputMode>(&mut self, i: I) -> PResult<OM, I, Self::Output, Self::Error> {
   89|  13.4k|    let (i, _) = self
   90|  13.4k|      .f
   91|  13.4k|      .process::<OutputM<Check, OM::Error, OM::Incomplete>>(i)?;
   92|  6.16k|    let (i, o2) = self.g.process::<OM>(i)?;
   93|       |
   94|  6.16k|    Ok((i, o2))
   95|  13.4k|  }
_RINvXNtCshuHlpjMNnjS_3nom8sequenceINtB3_8PrecededNCINvNtNtB5_5bytes8complete3tagReB1g_NtNtCsd77JCpXvqG6_15rsonpath_syntax5error18InternalParseErrorE0INtNtB5_10combinator3CutINtNtB5_6branch6ChoiceTNCNvNtB1q_6parser18descendant_segment0INtNtB5_8internal3MapNvB3c_17wildcard_selectorNvMsq_B1q_NtB1q_9Selectors3oneENvB3c_21member_name_shorthandNCINvB3c_14failed_segmentB4E_E0EEEEINtB3N_6ParserB1g_E7processINtB3N_7OutputMNtB3N_4EmitB6H_NtB3N_9StreamingEEB1q_:
   88|  44.9k|  fn process<OM: OutputMode>(&mut self, i: I) -> PResult<OM, I, Self::Output, Self::Error> {
   89|  44.9k|    let (i, _) = self
   90|  44.9k|      .f
   91|  44.9k|      .process::<OutputM<Check, OM::Error, OM::Incomplete>>(i)?;
   92|  5.62k|    let (i, o2) = self.g.process::<OM>(i)?;
   93|       |
   94|  1.84k|    Ok((i, o2))
   95|  44.9k|  }
_RINvXNtCshuHlpjMNnjS_3nom8sequenceINtB3_8PrecededNCINvNtNtB5_9character8complete4charReNtNtCsd77JCpXvqG6_15rsonpath_syntax5error18InternalParseErrorE0INtNtB5_10combinator3CutINtNtB5_6branch6ChoiceTINtNtB5_8internal3MapNvNtB1r_6parser17wildcard_selectorNvMsq_B1r_NtB1r_9Selectors3oneENvB3w_21member_name_shorthandNCINvB3w_14failed_segmentB4c_E0EEEEINtB3c_6ParserB1l_E7processINtB3c_7OutputMNtB3c_4EmitB6f_NtB3c_9StreamingEEB1r_:
   88|  15.5k|  fn process<OM: OutputMode>(&mut self, i: I) -> PResult<OM, I, Self::Output, Self::Error> {
   89|  15.5k|    let (i, _) = self
   90|  15.5k|      .f
   91|  15.5k|      .process::<OutputM<Check, OM::Error, OM::Incomplete>>(i)?;
   92|  11.9k|    let (i, o2) = self.g.process::<OM>(i)?;
   93|       |
   94|  7.56k|    Ok((i, o2))
   95|  15.5k|  }
_RINvXNtCshuHlpjMNnjS_3nom8sequenceINtB3_8PrecededNCINvNtNtB5_9character8complete4charReNtNtCsd77JCpXvqG6_15rsonpath_syntax5error18InternalParseErrorE0NCINvNtB1r_6parser17ignore_whitespaceNtB1r_11LogicalExprNCNvB2t_15filter_selector0B1n_E0EINtNtB5_8internal6ParserB1l_E7processINtB3S_7OutputMNtB3S_4EmitB4F_NtB3S_9StreamingEEB1r_:
   88|  33.5k|  fn process<OM: OutputMode>(&mut self, i: I) -> PResult<OM, I, Self::Output, Self::Error> {
   89|  33.5k|    let (i, _) = self
   90|  33.5k|      .f
   91|  33.5k|      .process::<OutputM<Check, OM::Error, OM::Incomplete>>(i)?;
   92|  26.5k|    let (i, o2) = self.g.process::<OM>(i)?;
   93|       |
   94|  8.40k|    Ok((i, o2))
   95|  33.5k|  }
_RINvNtCshuHlpjMNnjS_3nom8sequence10terminatedReINtNtCs6SNw0SRvItZ_4core6option6OptionBH_ENtNtCsd77JCpXvqG6_15rsonpath_syntax5error18InternalParseErrorINtNtB4_10combinator3OptNvNtB1t_6parser3intENCINvB2O_17ignore_whitespacecNCINvNtNtB4_9character8complete4charBH_B1p_E0B1p_E0EB1t_:
  118|  47.5k|pub fn terminated<I, O, E: ParseError<I>, F, G>(
  119|  47.5k|  first: F,
  120|  47.5k|  second: G,
  121|  47.5k|) -> impl Parser<I, Output = O, Error = E>
  122|  47.5k|where
  123|  47.5k|  F: Parser<I, Output = O, Error = E>,
  124|  47.5k|  G: Parser<I, Error = E>,
  125|       |{
  126|  47.5k|  Terminated {
  127|  47.5k|    f: first,
  128|  47.5k|    g: second,
  129|  47.5k|  }
  130|  47.5k|}
_RINvNtCshuHlpjMNnjS_3nom8sequence8precededReBE_NtNtCsd77JCpXvqG6_15rsonpath_syntax5error18InternalParseErrorINtNtB4_10combinator3OptINtNtB4_6branch6ChoiceTNCINvNtNtB4_9character8complete4charBE_BJ_E0B2t_EEEINvB2y_6digit1BE_BJ_EEBN_:
   61|  39.5k|pub fn preceded<I, O, E: ParseError<I>, F, G>(
   62|  39.5k|  first: F,
   63|  39.5k|  second: G,
   64|  39.5k|) -> impl Parser<I, Output = O, Error = E>
   65|  39.5k|where
   66|  39.5k|  F: Parser<I, Error = E>,
   67|  39.5k|  G: Parser<I, Output = O, Error = E>,
   68|       |{
   69|  39.5k|  Preceded {
   70|  39.5k|    f: first,
   71|  39.5k|    g: second,
   72|  39.5k|  }
   73|  39.5k|}
_RINvNtCshuHlpjMNnjS_3nom8sequence8precededReBE_NtNtCsd77JCpXvqG6_15rsonpath_syntax5error18InternalParseErrorNCINvNtNtB4_5bytes8complete11tag_no_caseBE_BE_BJ_E0INtB2_8PrecededINtNtB4_10combinator3OptINtNtB4_6branch6ChoiceTNCINvNtNtB4_9character8complete4charBE_BJ_E0B3x_EEEINvB3C_6digit1BE_BJ_EEEBN_:
   61|  39.5k|pub fn preceded<I, O, E: ParseError<I>, F, G>(
   62|  39.5k|  first: F,
   63|  39.5k|  second: G,
   64|  39.5k|) -> impl Parser<I, Output = O, Error = E>
   65|  39.5k|where
   66|  39.5k|  F: Parser<I, Error = E>,
   67|  39.5k|  G: Parser<I, Output = O, Error = E>,
   68|       |{
   69|  39.5k|  Preceded {
   70|  39.5k|    f: first,
   71|  39.5k|    g: second,
   72|  39.5k|  }
   73|  39.5k|}
_RINvNtCshuHlpjMNnjS_3nom8sequence8precededReBE_NtNtCsd77JCpXvqG6_15rsonpath_syntax5error18InternalParseErrorNCINvNtNtB4_9character8complete4charBE_BJ_E0INvB1N_6digit1BE_BJ_EEBN_:
   61|   134k|pub fn preceded<I, O, E: ParseError<I>, F, G>(
   62|   134k|  first: F,
   63|   134k|  second: G,
   64|   134k|) -> impl Parser<I, Output = O, Error = E>
   65|   134k|where
   66|   134k|  F: Parser<I, Error = E>,
   67|   134k|  G: Parser<I, Output = O, Error = E>,
   68|       |{
   69|   134k|  Preceded {
   70|   134k|    f: first,
   71|   134k|    g: second,
   72|   134k|  }
   73|   134k|}
_RINvNtCshuHlpjMNnjS_3nom8sequence8precededReBE_NtNtCsd77JCpXvqG6_15rsonpath_syntax5error18InternalParseErrorNCINvNtNtB4_9character8complete4charBE_BJ_E0NvNvNtBN_6parser5float10base_floatEBN_:
   61|  39.3k|pub fn preceded<I, O, E: ParseError<I>, F, G>(
   62|  39.3k|  first: F,
   63|  39.3k|  second: G,
   64|  39.3k|) -> impl Parser<I, Output = O, Error = E>
   65|  39.3k|where
   66|  39.3k|  F: Parser<I, Error = E>,
   67|  39.3k|  G: Parser<I, Output = O, Error = E>,
   68|       |{
   69|  39.3k|  Preceded {
   70|  39.3k|    f: first,
   71|  39.3k|    g: second,
   72|  39.3k|  }
   73|  39.3k|}
_RINvNtCshuHlpjMNnjS_3nom8sequence8precededReINtNtCs6SNw0SRvItZ_4core6option6OptionBE_ENtNtCsd77JCpXvqG6_15rsonpath_syntax5error18InternalParseErrorNCINvNtNtB4_9character8complete4charBE_B1m_E0INtNtB4_10combinator3OptNCINvNtB1q_6parser17ignore_whitespaceBE_NvB3x_3intB1m_E0EEB1q_:
   61|  4.97k|pub fn preceded<I, O, E: ParseError<I>, F, G>(
   62|  4.97k|  first: F,
   63|  4.97k|  second: G,
   64|  4.97k|) -> impl Parser<I, Output = O, Error = E>
   65|  4.97k|where
   66|  4.97k|  F: Parser<I, Error = E>,
   67|  4.97k|  G: Parser<I, Output = O, Error = E>,
   68|       |{
   69|  4.97k|  Preceded {
   70|  4.97k|    f: first,
   71|  4.97k|    g: second,
   72|  4.97k|  }
   73|  4.97k|}
_RINvNtCshuHlpjMNnjS_3nom8sequence8precededReNtCsd77JCpXvqG6_15rsonpath_syntax11LogicalExprNtNtBI_5error18InternalParseErrorNCINvNtNtB4_9character8complete4charBE_B1q_E0NCINvNtBI_6parser17ignore_whitespaceBG_NCNvB2L_15filter_selector0B1q_E0EBI_:
   61|  33.5k|pub fn preceded<I, O, E: ParseError<I>, F, G>(
   62|  33.5k|  first: F,
   63|  33.5k|  second: G,
   64|  33.5k|) -> impl Parser<I, Output = O, Error = E>
   65|  33.5k|where
   66|  33.5k|  F: Parser<I, Error = E>,
   67|  33.5k|  G: Parser<I, Output = O, Error = E>,
   68|       |{
   69|  33.5k|  Preceded {
   70|  33.5k|    f: first,
   71|  33.5k|    g: second,
   72|  33.5k|  }
   73|  33.5k|}
_RINvNtCshuHlpjMNnjS_3nom8sequence8precededReNtCsd77JCpXvqG6_15rsonpath_syntax9SelectorsNtNtBI_5error18InternalParseErrorNCINvNtNtB4_5bytes8complete3tagBE_BE_B1n_E0INtNtB4_10combinator3CutINtNtB4_6branch6ChoiceTNCNvNtBI_6parser18descendant_segment0INtNtB4_8internal3MapNvB3q_17wildcard_selectorNvMsq_BI_BG_3oneENvB3q_21member_name_shorthandNCINvB3q_14failed_segmentBG_E0EEEEBI_:
   61|  44.9k|pub fn preceded<I, O, E: ParseError<I>, F, G>(
   62|  44.9k|  first: F,
   63|  44.9k|  second: G,
   64|  44.9k|) -> impl Parser<I, Output = O, Error = E>
   65|  44.9k|where
   66|  44.9k|  F: Parser<I, Error = E>,
   67|  44.9k|  G: Parser<I, Output = O, Error = E>,
   68|       |{
   69|  44.9k|  Preceded {
   70|  44.9k|    f: first,
   71|  44.9k|    g: second,
   72|  44.9k|  }
   73|  44.9k|}
_RINvNtCshuHlpjMNnjS_3nom8sequence8precededReNtCsd77JCpXvqG6_15rsonpath_syntax9SelectorsNtNtBI_5error18InternalParseErrorNCINvNtNtB4_9character8complete4charBE_B1n_E0INtNtB4_10combinator3CutINtNtB4_6branch6ChoiceTINtNtB4_8internal3MapNvNtBI_6parser17wildcard_selectorNvMsq_BI_BG_3oneENvB3L_21member_name_shorthandNCINvB3L_14failed_segmentBG_E0EEEEBI_:
   61|  39.3k|pub fn preceded<I, O, E: ParseError<I>, F, G>(
   62|  39.3k|  first: F,
   63|  39.3k|  second: G,
   64|  39.3k|) -> impl Parser<I, Output = O, Error = E>
   65|  39.3k|where
   66|  39.3k|  F: Parser<I, Error = E>,
   67|  39.3k|  G: Parser<I, Output = O, Error = E>,
   68|       |{
   69|  39.3k|  Preceded {
   70|  39.3k|    f: first,
   71|  39.3k|    g: second,
   72|  39.3k|  }
   73|  39.3k|}
_RINvNtCshuHlpjMNnjS_3nom8sequence8precededReNtNtCsd77JCpXvqG6_15rsonpath_syntax3str10JsonStringNtNtBK_5error18InternalParseErrorNCINvNtNtB4_9character8complete4charBE_B1v_E0NCNvNtBK_6parser6string0EBK_:
   61|   161k|pub fn preceded<I, O, E: ParseError<I>, F, G>(
   62|   161k|  first: F,
   63|   161k|  second: G,
   64|   161k|) -> impl Parser<I, Output = O, Error = E>
   65|   161k|where
   66|   161k|  F: Parser<I, Error = E>,
   67|   161k|  G: Parser<I, Output = O, Error = E>,
   68|       |{
   69|   161k|  Preceded {
   70|   161k|    f: first,
   71|   161k|    g: second,
   72|   161k|  }
   73|   161k|}
_RINvNtCshuHlpjMNnjS_3nom8sequence8precededReNtNtCsd77JCpXvqG6_15rsonpath_syntax3str17JsonStringBuilderNtNtBK_5error18InternalParseErrorINtNtB4_10combinator4PeekNvNvNtBK_6parser21member_name_shorthand10name_firstEINtNtB4_5multi9FoldMany0NvB2A_9name_charNCB2A_0NvMs_BI_BG_3newBG_EEBK_:
   61|  13.4k|pub fn preceded<I, O, E: ParseError<I>, F, G>(
   62|  13.4k|  first: F,
   63|  13.4k|  second: G,
   64|  13.4k|) -> impl Parser<I, Output = O, Error = E>
   65|  13.4k|where
   66|  13.4k|  F: Parser<I, Error = E>,
   67|  13.4k|  G: Parser<I, Output = O, Error = E>,
   68|       |{
   69|  13.4k|  Preceded {
   70|  13.4k|    f: first,
   71|  13.4k|    g: second,
   72|  13.4k|  }
   73|  13.4k|}
_RINvXNtCshuHlpjMNnjS_3nom8sequenceINtB3_8PrecededNCINvNtNtB5_9character8complete4charReNtNtCsd77JCpXvqG6_15rsonpath_syntax5error18InternalParseErrorE0INtNtB5_10combinator3OptNCINvNtB1r_6parser17ignore_whitespaceB1l_NvB2R_3intB1n_E0EEINtNtB5_8internal6ParserB1l_E7processINtB3M_7OutputMNtB3M_4EmitB4z_NtB3M_9StreamingEEB1r_:
   88|  4.97k|  fn process<OM: OutputMode>(&mut self, i: I) -> PResult<OM, I, Self::Output, Self::Error> {
   89|  4.97k|    let (i, _) = self
   90|  4.97k|      .f
   91|  4.97k|      .process::<OutputM<Check, OM::Error, OM::Incomplete>>(i)?;
   92|  2.33k|    let (i, o2) = self.g.process::<OM>(i)?;
   93|       |
   94|  2.12k|    Ok((i, o2))
   95|  4.97k|  }
_RINvXs_NtCshuHlpjMNnjS_3nom8sequenceINtB5_10TerminatedINtNtB7_10combinator3OptNvNtCsd77JCpXvqG6_15rsonpath_syntax6parser3intENCINvB1g_17ignore_whitespacecNCINvNtNtB7_9character8complete4charReNtNtB1i_5error18InternalParseErrorE0B34_E0EINtNtB7_8internal6ParserB32_E7processINtB3O_7OutputMNtB3O_4EmitB4B_NtB3O_9StreamingEEB1i_:
  145|  47.5k|  fn process<OM: OutputMode>(&mut self, i: I) -> PResult<OM, I, Self::Output, Self::Error> {
  146|  47.5k|    let (i, o1) = self.f.process::<OM>(i)?;
  147|  46.0k|    let (i, _) = self
  148|  46.0k|      .g
  149|  46.0k|      .process::<OutputM<Check, OM::Error, OM::Incomplete>>(i)?;
  150|       |
  151|  6.31k|    Ok((i, o1))
  152|  47.5k|  }
_RINvXNtCshuHlpjMNnjS_3nom8sequenceINtB3_8PrecededNCINvNtNtB5_9character8complete4charReNtNtCsd77JCpXvqG6_15rsonpath_syntax5error18InternalParseErrorE0NCNvNtB1r_6parser6string0EINtNtB5_8internal6ParserB1l_E7processINtB2R_7OutputMNtB2R_4EmitB3E_NtB2R_9StreamingEEB1r_:
   88|   160k|  fn process<OM: OutputMode>(&mut self, i: I) -> PResult<OM, I, Self::Output, Self::Error> {
   89|   160k|    let (i, _) = self
   90|   160k|      .f
   91|   160k|      .process::<OutputM<Check, OM::Error, OM::Incomplete>>(i)?;
   92|  3.28k|    let (i, o2) = self.g.process::<OM>(i)?;
   93|       |
   94|  1.95k|    Ok((i, o2))
   95|   160k|  }

_RNvXs_NtCshuHlpjMNnjS_3nom6traitsReNtB4_5Input13iter_elementsCsd77JCpXvqG6_15rsonpath_syntax:
  392|   789k|  fn iter_elements(&self) -> Self::Iter {
  393|   789k|    self.chars()
  394|   789k|  }
_RNvXs_NtCshuHlpjMNnjS_3nom6traitsReNtB4_5Input4takeCsd77JCpXvqG6_15rsonpath_syntax:
  368|  54.6k|  fn take(&self, index: usize) -> Self {
  369|  54.6k|    &self[..index]
  370|  54.6k|  }
_RNvXs_NtCshuHlpjMNnjS_3nom6traitsReNtB4_5Input9take_fromCsd77JCpXvqG6_15rsonpath_syntax:
  373|   206k|  fn take_from(&self, index: usize) -> Self {
  374|   206k|    &self[index..]
  375|   206k|  }
_RNvXsc_NtCshuHlpjMNnjS_3nom6traitscNtB5_6AsChar12is_dec_digitCsd77JCpXvqG6_15rsonpath_syntax:
  788|   244k|  fn is_dec_digit(self) -> bool {
  789|   244k|    self.is_ascii_digit()
  790|   244k|  }
_RNvXsc_NtCshuHlpjMNnjS_3nom6traitscNtB5_6AsChar3lenCsd77JCpXvqG6_15rsonpath_syntax:
  804|  34.1k|  fn len(self) -> usize {
  805|  34.1k|    self.len_utf8()
  806|  34.1k|  }
_RNvXsc_NtCshuHlpjMNnjS_3nom6traitscNtB5_6AsChar7as_charCsd77JCpXvqG6_15rsonpath_syntax:
  776|   796k|  fn as_char(self) -> char {
  777|   796k|    self
  778|   796k|  }
_RNvXsd_NtCshuHlpjMNnjS_3nom6traitsRcNtB5_6AsChar3lenCsd77JCpXvqG6_15rsonpath_syntax:
  846|   154k|  fn len(self) -> usize {
  847|   154k|    self.len_utf8()
  848|   154k|  }
_RNvXsd_NtCshuHlpjMNnjS_3nom6traitsRcNtB5_6AsChar7as_charCsd77JCpXvqG6_15rsonpath_syntax:
  818|   154k|  fn as_char(self) -> char {
  819|   154k|    *self
  820|   154k|  }
_RINvXs_NtCshuHlpjMNnjS_3nom6traitsReNtB5_5Input27split_at_position1_completeNCINvNtNtB7_9character8complete6digit1Bw_NtNtCsd77JCpXvqG6_15rsonpath_syntax5error18InternalParseErrorE0B1R_EB1V_:
  470|   139k|  fn split_at_position1_complete<P, E: ParseError<Self>>(
  471|   139k|    &self,
  472|   139k|    predicate: P,
  473|   139k|    e: ErrorKind,
  474|   139k|  ) -> IResult<Self, Self, E>
  475|   139k|  where
  476|   139k|    P: Fn(Self::Item) -> bool,
  477|       |  {
  478|   139k|    match self.find(predicate) {
  479|   108k|      Some(0) => Err(Err::Error(E::from_error_kind(self, e))),
  480|       |      // The position i is returned from str::find() which means it is within the bounds of the string
  481|  29.9k|      Some(i) => {
  482|  29.9k|        let (str1, str2) = self.split_at(i);
  483|  29.9k|        Ok((str2, str1))
  484|       |      }
  485|       |      None => {
  486|    885|        if self.is_empty() {
  487|    497|          Err(Err::Error(E::from_error_kind(self, e)))
  488|       |        } else {
  489|       |          // the end of slice is a char boundary
  490|    388|          let (str1, str2) = self.split_at(self.len());
  491|    388|          Ok((str2, str1))
  492|       |        }
  493|       |      }
  494|       |    }
  495|   139k|  }
_RNvXs4_NtCshuHlpjMNnjS_3nom6traitsReNtB5_7AsBytes8as_bytes:
  620|   306k|  fn as_bytes(&self) -> &[u8] {
  621|   306k|    (*self).as_bytes()
  622|   306k|  }
_RNvXse_NtCshuHlpjMNnjS_3nom6traitsRShINtB5_7CompareBw_E7compare:
  893|   306k|  fn compare(&self, t: &'b [u8]) -> CompareResult {
  894|   306k|    let pos = self.iter().zip(t.iter()).position(|(a, b)| a != b);
  895|       |
  896|   306k|    match pos {
  897|   288k|      Some(_) => CompareResult::Error,
  898|       |      None => {
  899|  18.0k|        if self.len() >= t.len() {
  900|  15.2k|          CompareResult::Ok
  901|       |        } else {
  902|  2.79k|          CompareResult::Incomplete
  903|       |        }
  904|       |      }
  905|       |    }
  906|   306k|  }
_RNvXsg_NtCshuHlpjMNnjS_3nom6traitsReINtB5_7CompareBw_E15compare_no_case:
  943|  9.80k|  fn compare_no_case(&self, t: &'b str) -> CompareResult {
  944|  9.80k|    let pos = self
  945|  9.80k|      .chars()
  946|  9.80k|      .zip(t.chars())
  947|  9.80k|      .position(|(a, b)| a.to_lowercase().ne(b.to_lowercase()));
  948|       |
  949|  9.80k|    match pos {
  950|  8.12k|      Some(_) => CompareResult::Error,
  951|       |      None => {
  952|  1.68k|        if self.len() >= t.len() {
  953|  1.59k|          CompareResult::Ok
  954|       |        } else {
  955|     85|          CompareResult::Incomplete
  956|       |        }
  957|       |      }
  958|       |    }
  959|  9.80k|  }
_RNvXsg_NtCshuHlpjMNnjS_3nom6traitsReINtB5_7CompareBw_E7compare:
  937|   306k|  fn compare(&self, t: &'b str) -> CompareResult {
  938|   306k|    self.as_bytes().compare(t.as_bytes())
  939|   306k|  }
_RNCNvXse_NtCshuHlpjMNnjS_3nom6traitsRShINtB7_7CompareBy_E7compare0Csd77JCpXvqG6_15rsonpath_syntax:
  894|   337k|    let pos = self.iter().zip(t.iter()).position(|(a, b)| a != b);
_RNCNvXsg_NtCshuHlpjMNnjS_3nom6traitsReINtB7_7CompareBy_E15compare_no_case0Csd77JCpXvqG6_15rsonpath_syntax:
  947|  9.72k|      .position(|(a, b)| a.to_lowercase().ne(b.to_lowercase()));
_RNCNvXsn_NtCshuHlpjMNnjS_3nom6traitsReINtB7_9FindTokencE10find_token0B9_:
 1011|  65.3k|    self.chars().any(|i| i == token)
_RNvXs3_NtCshuHlpjMNnjS_3nom6traitsReNtB5_6Offset6offset:
  604|  37.7k|  fn offset(&self, second: &Self) -> usize {
  605|  37.7k|    let fst = self.as_ptr();
  606|  37.7k|    let snd = second.as_ptr();
  607|       |
  608|  37.7k|    snd as usize - fst as usize
  609|  37.7k|  }
_RNvXs_NtCshuHlpjMNnjS_3nom6traitsReNtB4_5Input9input_len:
  363|   340k|  fn input_len(&self) -> usize {
  364|   340k|    self.len()
  365|   340k|  }
_RNvXsn_NtCshuHlpjMNnjS_3nom6traitsReINtB5_9FindTokencE10find_token:
 1010|  36.4k|  fn find_token(&self, token: char) -> bool {
 1011|  36.4k|    self.chars().any(|i| i == token)
 1012|  36.4k|  }

_RNvMs0_NtCsd77JCpXvqG6_15rsonpath_syntax5errorNtB5_17ParseErrorBuilder24recursion_limit_exceeded:
   80|     72|    pub(crate) fn recursion_limit_exceeded(str: String, recursion_limit: usize) -> ParseError {
   81|     72|        ParseError {
   82|     72|            input: str,
   83|     72|            inner: InnerParseError::RecursionLimit(recursion_limit),
   84|     72|        }
   85|     72|    }
_RNvMs0_NtCsd77JCpXvqG6_15rsonpath_syntax5errorNtB5_17ParseErrorBuilder3add:
   61|  10.8k|    pub(crate) fn add(&mut self, syntax_error: SyntaxError) {
   62|  10.8k|        self.syntax_errors.push(syntax_error)
   63|  10.8k|    }
_RNvMs0_NtCsd77JCpXvqG6_15rsonpath_syntax5errorNtB5_17ParseErrorBuilder3new:
   57|  2.42k|    pub(crate) fn new() -> Self {
   58|  2.42k|        Self { syntax_errors: vec![] }
   59|  2.42k|    }
_RNvMs0_NtCsd77JCpXvqG6_15rsonpath_syntax5errorNtB5_17ParseErrorBuilder5build:
   73|  2.15k|    pub(crate) fn build(self, str: String) -> ParseError {
   74|  2.15k|        ParseError {
   75|  2.15k|            input: str,
   76|  2.15k|            inner: InnerParseError::Syntax(self.syntax_errors),
   77|  2.15k|        }
   78|  2.15k|    }
_RNvMs0_NtCsd77JCpXvqG6_15rsonpath_syntax5errorNtB5_17ParseErrorBuilder8add_many:
   65|  10.6k|    pub(crate) fn add_many(&mut self, mut syntax_errors: Vec<SyntaxError>) {
   66|  10.6k|        self.syntax_errors.append(&mut syntax_errors)
   67|  10.6k|    }
_RNvMs0_NtCsd77JCpXvqG6_15rsonpath_syntax5errorNtB5_17ParseErrorBuilder8is_empty:
   69|  2.35k|    pub(crate) fn is_empty(&self) -> bool {
   70|  2.35k|        self.syntax_errors.is_empty()
   71|  2.35k|    }
_RNvMs1_NtCsd77JCpXvqG6_15rsonpath_syntax5errorNtB5_11SyntaxError3new:
  141|   110k|    pub(crate) fn new(kind: SyntaxErrorKind, rev_idx: usize, len: usize) -> Self {
  142|   110k|        Self { kind, rev_idx, len }
  143|   110k|    }
_RNvXs2_NtCsd77JCpXvqG6_15rsonpath_syntax5errorNtB5_18InternalParseErrorINtNtCshuHlpjMNnjS_3nom5error10ParseErrorReE15from_error_kind:
  155|   875k|    fn from_error_kind(input: &'a str, kind: nom::error::ErrorKind) -> Self {
  156|   875k|        Self::NomError(nom::error::Error::from_error_kind(input, kind))
  157|   875k|    }
_RNvXs2_NtCsd77JCpXvqG6_15rsonpath_syntax5errorNtB5_18InternalParseErrorINtNtCshuHlpjMNnjS_3nom5error10ParseErrorReE6append:
  159|   249k|    fn append(input: &'a str, kind: nom::error::ErrorKind, other: Self) -> Self {
  160|   249k|        match other {
  161|   249k|            Self::NomError(e) => Self::NomError(nom::error::Error::append(input, kind, e)),
  162|      0|            _ => other,
  163|       |        }
  164|   249k|    }

_RNvCsd77JCpXvqG6_15rsonpath_syntax5parseCse3WhcHaD37j_26query_fuzz_arbitrary_bytes:
  296|  2.42k|pub fn parse(str: &str) -> Result<JsonPathQuery> {
  297|  2.42k|    Parser::default().parse(str)
  298|  2.42k|}
_RNvMs2_Csd77JCpXvqG6_15rsonpath_syntaxNtB5_6Parser5parseCse3WhcHaD37j_26query_fuzz_arbitrary_bytes:
  320|  2.42k|    pub fn parse(&self, str: &str) -> Result<JsonPathQuery> {
  321|  2.42k|        crate::parser::parse_with_options(str, &self.options)
  322|  2.42k|    }
_RNvXs0_Csd77JCpXvqG6_15rsonpath_syntaxNtB5_13ParserOptionsNtNtCs6SNw0SRvItZ_4core7default7Default7default:
  245|  2.42k|    fn default() -> Self {
  246|  2.42k|        Self {
  247|  2.42k|            recursion_limit: Some(Parser::RECURSION_LIMIT_DEFAULT),
  248|  2.42k|            relaxed_whitespace: false,
  249|  2.42k|        }
  250|  2.42k|    }
_RNvMsq_Csd77JCpXvqG6_15rsonpath_syntaxNtB5_9Selectors3one:
  901|  9.06k|    pub fn one(selector: Selector) -> Self {
  902|  9.06k|        Self { inner: vec![selector] }
  903|  9.06k|    }
_RNvXsi_Csd77JCpXvqG6_15rsonpath_syntaxNtB5_10ComparableINtNtCs6SNw0SRvItZ_4core7convert4FromNtB5_7LiteralE4from:
  728|  3.05k|    fn from(value: Literal) -> Self {
  729|  3.05k|        Self::Literal(value)
  730|  3.05k|    }
_RNvMs_Csd77JCpXvqG6_15rsonpath_syntaxNtB4_13ParserOptions29is_leading_whitespace_allowed:
  234|     71|    fn is_leading_whitespace_allowed(&self) -> bool {
  235|     71|        self.relaxed_whitespace
  236|     71|    }
_RNvMs_Csd77JCpXvqG6_15rsonpath_syntaxNtB4_13ParserOptions30is_trailing_whitespace_allowed:
  238|  2.35k|    fn is_trailing_whitespace_allowed(&self) -> bool {
  239|  2.35k|        self.relaxed_whitespace
  240|  2.35k|    }
_RNvMsn_Csd77JCpXvqG6_15rsonpath_syntaxNtB5_13JsonPathQuery15try_to_singular:
  815|  6.87k|    fn try_to_singular(self) -> std::result::Result<SingularJsonPathQuery, Self> {
  816|  6.87k|        if self.segments.iter().all(Segment::is_singular) {
  817|  5.68k|            let mut singular_segments = Vec::with_capacity(self.segments.len());
  818|  8.33k|            for segment in self.segments {
  819|  2.64k|                singular_segments.push(segment.into_singular());
  820|  2.64k|            }
  821|  5.68k|            Ok(SingularJsonPathQuery {
  822|  5.68k|                segments: singular_segments,
  823|  5.68k|            })
  824|       |        } else {
  825|  1.18k|            Err(self)
  826|       |        }
  827|  6.87k|    }
_RNvMsp_Csd77JCpXvqG6_15rsonpath_syntaxNtB5_7Segment11is_singular:
  877|  6.47k|    fn is_singular(&self) -> bool {
  878|  6.47k|        match self {
  879|  6.22k|            Self::Child(s) => s.len() == 1 && s.first().is_singular(),
  880|    256|            Self::Descendant(_) => false,
  881|       |        }
  882|  6.47k|    }
_RNvMsp_Csd77JCpXvqG6_15rsonpath_syntaxNtB5_7Segment13into_singular:
  884|  2.64k|    fn into_singular(self) -> SingularSegment {
  885|  2.64k|        assert!(self.is_singular(), "forcing a non-singular segment, this is a bug");
  886|  2.64k|        match self {
  887|  2.64k|            Self::Child(mut s) => match s.inner.drain(..).next().expect("is_singular") {
  888|  1.45k|                Selector::Name(n) => SingularSegment::Name(n),
  889|  1.18k|                Selector::Index(i) => SingularSegment::Index(i),
  890|      0|                _ => unreachable!(),
  891|       |            },
  892|      0|            Self::Descendant(_) => unreachable!(),
  893|       |        }
  894|  2.64k|    }
_RNvMsq_Csd77JCpXvqG6_15rsonpath_syntaxNtB5_9Selectors4manyB5_:
  916|  5.12k|    pub fn many(vec: Vec<Selector>) -> Self {
  917|  5.12k|        assert!(!vec.is_empty(), "cannot create an empty Selectors collection");
  918|  5.12k|        Self { inner: vec }
  919|  5.12k|    }
_RNvMsq_Csd77JCpXvqG6_15rsonpath_syntaxNtB5_9Selectors5firstB5_:
  924|  6.10k|    pub fn first(&self) -> &Selector {
  925|  6.10k|        &self.inner[0]
  926|  6.10k|    }
_RNvMsr_Csd77JCpXvqG6_15rsonpath_syntaxNtB5_8Selector11is_singular:
 1008|  6.10k|    fn is_singular(&self) -> bool {
 1009|  6.10k|        matches!(self, Self::Name(_) | Self::Index(_))
 1010|  6.10k|    }
_RNvXs6_Csd77JCpXvqG6_15rsonpath_syntaxNtB5_8SelectorINtNtCs6SNw0SRvItZ_4core7convert4FromNtB5_11LogicalExprE4fromB5_:
  394|  8.40k|    fn from(value: LogicalExpr) -> Self {
  395|  8.40k|        Self::Filter(value)
  396|  8.40k|    }
_RNvXsa_Csd77JCpXvqG6_15rsonpath_syntaxNtB5_5SliceNtNtCs6SNw0SRvItZ_4core7default7Default7defaultB5_:
  519|  6.31k|    fn default() -> Self {
  520|  6.31k|        Self {
  521|  6.31k|            start: Index::FromStart(0.into()),
  522|  6.31k|            end: None,
  523|  6.31k|            step: Step::Forward(1.into()),
  524|  6.31k|        }
  525|  6.31k|    }
_RNvXsu_Csd77JCpXvqG6_15rsonpath_syntaxNtB5_9SelectorsNtNtNtCs6SNw0SRvItZ_4core3ops5deref5Deref5deref:
 1077|  6.22k|    fn deref(&self) -> &Self::Target {
 1078|  6.22k|        &self.inner
 1079|  6.22k|    }
_RNvMs9_Csd77JCpXvqG6_15rsonpath_syntaxNtB5_5Slice23default_start_backwards:
  476|    376|    pub(crate) fn default_start_backwards() -> Index {
  477|    376|        Index::FromEnd(1.try_into().expect("const 1 is nonzero"))
  478|    376|    }
_RNvMst_Csd77JCpXvqG6_15rsonpath_syntaxNtB5_4Step11is_backward:
 1068|  4.04k|    pub const fn is_backward(&self) -> bool {
 1069|  4.04k|        matches!(self, Self::Backward(_))
 1070|  4.04k|    }
_RNvXse_Csd77JCpXvqG6_15rsonpath_syntaxNtB5_7LiteralINtNtCs6SNw0SRvItZ_4core7convert4FromNtNtB5_3num10JsonNumberE4from:
  569|  8.44k|    fn from(value: num::JsonNumber) -> Self {
  570|  8.44k|        Self::Number(value)
  571|  8.44k|    }
_RNvXsb_Csd77JCpXvqG6_15rsonpath_syntaxNtB5_7LiteralINtNtCs6SNw0SRvItZ_4core7convert4FromNtNtB5_3str10JsonStringE4fromB5_:
  548|    828|    fn from(value: S) -> Self {
  549|    828|        Self::String(value.into())
  550|    828|    }

_RNvMs7_NtCsd77JCpXvqG6_15rsonpath_syntax3numNtB5_7JsonInt3abs:
  366|    969|    pub const fn abs(&self) -> JsonUInt {
  367|    969|        JsonUInt(self.0.unsigned_abs())
  368|    969|    }
_RNCNvXsi_NtCsd77JCpXvqG6_15rsonpath_syntax3numNtB7_7JsonIntNtNtNtCs6SNw0SRvItZ_4core3str6traits7FromStr8from_str0B9_:
  688|  1.73k|            Ok(x) => x.try_into().map_err(|e| Self::Err::parse_conversion_err(s, &e)),
_RNvMs7_NtCsd77JCpXvqG6_15rsonpath_syntax3numNtB5_7JsonInt3new:
  290|  7.48k|    const fn new(index: i64) -> Self {
  291|  7.48k|        Self(index)
  292|  7.48k|    }
_RNvMs8_NtCsd77JCpXvqG6_15rsonpath_syntax3numNtB5_8JsonUInt3new:
  404|  19.1k|    const fn new(index: u64) -> Self {
  405|  19.1k|        Self(index)
  406|  19.1k|    }
_RNvMsb_NtCsd77JCpXvqG6_15rsonpath_syntax3numNtB5_10JsonNumber9normalizeB7_:
  612|  8.44k|    pub fn normalize(&self) -> Self {
  613|  8.44k|        match *self {
  614|      0|            Self::Int(x) => Self::Int(x),
  615|  8.44k|            Self::Float(x) => match JsonInt::try_from(x) {
  616|  6.49k|                Ok(int) => Self::Int(int),
  617|  1.95k|                Err(_) => Self::Float(x),
  618|       |            },
  619|       |        }
  620|  8.44k|    }
_RNvXsA_NtCsd77JCpXvqG6_15rsonpath_syntax3numNtB5_7JsonIntINtNtCs6SNw0SRvItZ_4core7convert7TryFromNtB5_9JsonFloatE8try_fromB7_:
  877|  8.44k|    fn try_from(value: JsonFloat) -> Result<Self, Self::Error> {
  878|  8.44k|        if value.0.fract() != 0.0 {
  879|  1.47k|            return Err(JsonIntOverflowError::fractional(value.0));
  880|  6.97k|        }
  881|       |        // At this point the fractional part must be 0.0, so the value is *an* integer.
  882|       |        // We need to check that it is within bounds of JsonInt. This is correct
  883|       |        // only because JsonInt bounds are guaranteed to be interoperable with f64,
  884|       |        // so every value within is exactly representable as a f64.
  885|  6.97k|        let int_value = value.0.trunc();
  886|  6.97k|        if int_value < JSON_INT_LOWER_LIMIT as f64 {
  887|    210|            return Err(JsonIntOverflowError::int_float_neg_overflow(value.0));
  888|  6.76k|        }
  889|  6.76k|        if int_value > JSON_INT_UPPER_LIMIT as f64 {
  890|    269|            return Err(JsonIntOverflowError::int_float_pos_overflow(value.0));
  891|  6.49k|        }
  892|       |
  893|       |        // This conversion is now guaranteed to be lossless.
  894|  6.49k|        Ok(Self(int_value as i64))
  895|  8.44k|    }
_RNvXsE_NtCsd77JCpXvqG6_15rsonpath_syntax3numNtB5_9JsonFloatNtNtNtCs6SNw0SRvItZ_4core3str6traits7FromStr8from_strB7_:
  987|  9.80k|    fn from_str(s: &str) -> Result<Self, Self::Err> {
  988|  9.80k|        match f64::from_str(s) {
  989|  9.80k|            Ok(x) => {
  990|  9.80k|                assert!(
  991|  9.80k|                    !s.is_empty(),
  992|      0|                    "empty strings are not accepted by f64::from_str, this is impossible"
  993|       |                );
  994|       |                // Rule 1.
  995|  9.80k|                if x.is_nan() || x.is_infinite() {
  996|    455|                    return Err(Self::Err::infinite_or_nan(s));
  997|  9.35k|                }
  998|  9.35k|                if let Some((before, after)) = s.split_once('.') {
  999|       |                    // Rule 3. The case `before == "+"` is checked later.
 1000|  1.35k|                    if before.is_empty() || before == "-" {
 1001|      0|                        return Err(Self::Err::nothing_before_decimal_point(s));
 1002|  1.35k|                    }
 1003|       |                    // Rule 4.
 1004|  1.35k|                    if after.is_empty() || after.starts_with(['e', 'E']) {
 1005|      0|                        return Err(Self::Err::nothing_after_decimal_point(s));
 1006|  1.35k|                    }
 1007|  8.00k|                }
 1008|  9.35k|                let mut chars = s.chars();
 1009|  9.35k|                let first_c = chars.next().expect("s is non-empty");
 1010|       |                // Rule 2.
 1011|  9.35k|                if first_c == '+' {
 1012|      0|                    return Err(Self::Err::leading_plus_sign(s));
 1013|  9.35k|                }
 1014|       |                // Skip the leading minus if it exists.
 1015|  9.35k|                let s_no_sign = if first_c == '-' { chars.as_str() } else { s };
 1016|       |                // Rule 5.
 1017|       |                // Check for leading zeroes. We strip the first zero from the front and check what's left.
 1018|       |                // The only acceptable case is that the next character is not a digit.
 1019|  9.35k|                if let Some(rest) = s_no_sign.strip_prefix('0') {
 1020|  2.45k|                    if matches!(rest.chars().next(), Some('0'..='9')) {
 1021|    902|                        return Err(Self::Err::leading_zeros(s));
 1022|  1.55k|                    }
 1023|  6.89k|                }
 1024|  8.44k|                Ok(Self(x))
 1025|       |            }
 1026|       |            // Remember that all floats valid in JSON are also accepted by Rust,
 1027|       |            // so this is *definitely* not a valid JSON float.
 1028|      0|            Err(_) => Err(Self::Err::f64_parse_error(s)),
 1029|       |        }
 1030|  9.80k|    }
_RNvXsG_NtCsd77JCpXvqG6_15rsonpath_syntax3numNtB5_10JsonNumberINtNtCs6SNw0SRvItZ_4core7convert4FromNtB5_9JsonFloatE4fromB7_:
 1042|  8.44k|    fn from(value: JsonFloat) -> Self {
 1043|  8.44k|        Self::Float(value)
 1044|  8.44k|    }
_RNvXsc_NtCsd77JCpXvqG6_15rsonpath_syntax3numNtB5_7JsonIntINtNtCs6SNw0SRvItZ_4core7convert7TryFromxE8try_fromB7_:
  627|  9.22k|    fn try_from(value: i64) -> Result<Self, Self::Error> {
  628|  9.22k|        if value > JSON_INT_UPPER_LIMIT {
  629|  1.41k|            Err(JsonIntOverflowError::int_pos_overflow(value))
  630|  7.80k|        } else if value < JSON_INT_LOWER_LIMIT {
  631|    321|            Err(JsonIntOverflowError::int_neg_overflow(value))
  632|       |        } else {
  633|  7.48k|            Ok(Self::new(value))
  634|       |        }
  635|  9.22k|    }
_RNvXsi_NtCsd77JCpXvqG6_15rsonpath_syntax3numNtB5_7JsonIntNtNtNtCs6SNw0SRvItZ_4core3str6traits7FromStr8from_strB7_:
  686|  9.87k|    fn from_str(s: &str) -> Result<Self, Self::Err> {
  687|  9.87k|        match i64::from_str(s) {
  688|  9.22k|            Ok(x) => x.try_into().map_err(|e| Self::Err::parse_conversion_err(s, &e)),
  689|    656|            Err(err) => Err(Self::Err::int_parse_error(s, err.kind())),
  690|       |        }
  691|  9.87k|    }
_RNvXsl_NtCsd77JCpXvqG6_15rsonpath_syntax3numNtB5_8JsonUIntINtNtCs6SNw0SRvItZ_4core7convert4FrommE4fromB7_:
  723|  12.6k|    fn from(value: u32) -> Self {
  724|  12.6k|        Self::new(u64::from(value))
  725|  12.6k|    }
_RNvXsp_NtCsd77JCpXvqG6_15rsonpath_syntax3numNtB5_8JsonUIntINtNtCs6SNw0SRvItZ_4core7convert7TryFromNtB5_7JsonIntE8try_fromB7_:
  760|  7.48k|    fn try_from(value: JsonInt) -> Result<Self, Self::Error> {
  761|  7.48k|        if value.0 < 0 {
  762|    969|            Err(JsonIntOverflowError::negative_uint(value.0))
  763|       |        } else {
  764|  6.51k|            Ok(Self::new(value.0 as u64))
  765|       |        }
  766|  7.48k|    }
_RNvXsu_NtCsd77JCpXvqG6_15rsonpath_syntax3numNtB5_15JsonNonZeroUIntINtNtCs6SNw0SRvItZ_4core7convert7TryFromlE8try_fromB7_:
  811|    376|    fn try_from(value: i32) -> Result<Self, Self::Error> {
  812|    376|        Self::try_from(i64::from(value))
  813|    376|    }
_RNvXsv_NtCsd77JCpXvqG6_15rsonpath_syntax3numNtB5_15JsonNonZeroUIntINtNtCs6SNw0SRvItZ_4core7convert7TryFromyE8try_fromB7_:
  820|  1.34k|    fn try_from(value: u64) -> Result<Self, Self::Error> {
  821|  1.34k|        if value > JSON_UINT_UPPER_LIMIT {
  822|      0|            Err(JsonIntOverflowError::uint_pos_overflow(value))
  823|  1.34k|        } else if let Some(x) = NonZeroU64::new(value) {
  824|  1.34k|            Ok(Self(x))
  825|       |        } else {
  826|      0|            Err(JsonIntOverflowError::zero_non_zero_uint())
  827|       |        }
  828|  1.34k|    }
_RNvXsw_NtCsd77JCpXvqG6_15rsonpath_syntax3numNtB5_15JsonNonZeroUIntINtNtCs6SNw0SRvItZ_4core7convert7TryFromxE8try_fromB7_:
  835|    376|    fn try_from(value: i64) -> Result<Self, Self::Error> {
  836|    376|        if value < 0 {
  837|      0|            Err(JsonIntOverflowError::negative_uint(value))
  838|       |        } else {
  839|    376|            Self::try_from(value as u64)
  840|       |        }
  841|    376|    }
_RNvXsx_NtCsd77JCpXvqG6_15rsonpath_syntax3numNtB5_15JsonNonZeroUIntINtNtCs6SNw0SRvItZ_4core7convert7TryFromNtB5_8JsonUIntE8try_fromB7_:
  848|    969|    fn try_from(value: JsonUInt) -> Result<Self, Self::Error> {
  849|    969|        Self::try_from(value.0)
  850|    969|    }

_RNvMNtNtCsd77JCpXvqG6_15rsonpath_syntax3num5errorNtB2_20JsonIntOverflowError10fractional:
   75|  1.47k|    pub(crate) fn fractional(src: f64) -> Self {
   76|  1.47k|        Self {
   77|  1.47k|            kind: JsonIntOverflowKind::Fractional(src),
   78|  1.47k|        }
   79|  1.47k|    }
_RNvMNtNtCsd77JCpXvqG6_15rsonpath_syntax3num5errorNtB2_20JsonIntOverflowError13negative_uint:
   63|    969|    pub(crate) fn negative_uint(src: i64) -> Self {
   64|    969|        Self {
   65|    969|            kind: JsonIntOverflowKind::UIntNeg(src),
   66|    969|        }
   67|    969|    }
_RNvMNtNtCsd77JCpXvqG6_15rsonpath_syntax3num5errorNtB2_20JsonIntOverflowError16int_neg_overflow:
   51|    321|    pub(crate) fn int_neg_overflow(src: i64) -> Self {
   52|    321|        Self {
   53|    321|            kind: JsonIntOverflowKind::IntNeg(src),
   54|    321|        }
   55|    321|    }
_RNvMNtNtCsd77JCpXvqG6_15rsonpath_syntax3num5errorNtB2_20JsonIntOverflowError16int_pos_overflow:
   39|  1.41k|    pub(crate) fn int_pos_overflow(src: i64) -> Self {
   40|  1.41k|        Self {
   41|  1.41k|            kind: JsonIntOverflowKind::IntPos(src),
   42|  1.41k|        }
   43|  1.41k|    }
_RNvMNtNtCsd77JCpXvqG6_15rsonpath_syntax3num5errorNtB2_20JsonIntOverflowError22int_float_neg_overflow:
   87|    210|    pub(crate) fn int_float_neg_overflow(src: f64) -> Self {
   88|    210|        Self {
   89|    210|            kind: JsonIntOverflowKind::FloatNeg(src),
   90|    210|        }
   91|    210|    }
_RNvMNtNtCsd77JCpXvqG6_15rsonpath_syntax3num5errorNtB2_20JsonIntOverflowError22int_float_pos_overflow:
   81|    269|    pub(crate) fn int_float_pos_overflow(src: f64) -> Self {
   82|    269|        Self {
   83|    269|            kind: JsonIntOverflowKind::FloatPos(src),
   84|    269|        }
   85|    269|    }
_RNvMs1_NtNtCsd77JCpXvqG6_15rsonpath_syntax3num5errorNtB5_19JsonFloatParseError13leading_zeros:
  167|    902|    pub(crate) fn leading_zeros(src: &str) -> Self {
  168|    902|        Self {
  169|    902|            kind: JsonFloatParseErrorKind::LeadingZeros(src.to_string()),
  170|    902|        }
  171|    902|    }
_RNvMs1_NtNtCsd77JCpXvqG6_15rsonpath_syntax3num5errorNtB5_19JsonFloatParseError15infinite_or_nan:
  155|    455|    pub(crate) fn infinite_or_nan(src: &str) -> Self {
  156|    455|        Self {
  157|    455|            kind: JsonFloatParseErrorKind::InfinityOrNaN(src.to_string()),
  158|    455|        }
  159|    455|    }
_RNvMs_NtNtCsd77JCpXvqG6_15rsonpath_syntax3num5errorNtB4_17JsonIntParseError15int_parse_error:
   95|    656|    pub(crate) fn int_parse_error(src: &str, err: &IntErrorKind) -> Self {
   96|       |        Self {
   97|    656|            kind: match err {
   98|    350|                IntErrorKind::PosOverflow => JsonIntParseErrorKind::IntPosOverflow(src.to_string()),
   99|    306|                IntErrorKind::NegOverflow => JsonIntParseErrorKind::IntNegOverflow(src.to_string()),
  100|      0|                IntErrorKind::Zero => unreachable!(), // Zero is always a valid JsonInt value.
  101|      0|                _ => JsonIntParseErrorKind::InvalidFormat(src.to_string()),
  102|       |            },
  103|       |        }
  104|    656|    }
_RNvMs_NtNtCsd77JCpXvqG6_15rsonpath_syntax3num5errorNtB4_17JsonIntParseError20parse_conversion_err:
  106|  1.73k|    pub(crate) fn parse_conversion_err(src: &str, err: &JsonIntOverflowError) -> Self {
  107|       |        Self {
  108|  1.73k|            kind: match err.kind {
  109|       |                JsonIntOverflowKind::IntPosU(_) | JsonIntOverflowKind::IntPos(_) => {
  110|  1.41k|                    JsonIntParseErrorKind::IntPosOverflow(src.to_string())
  111|       |                }
  112|    321|                JsonIntOverflowKind::IntNeg(_) => JsonIntParseErrorKind::IntNegOverflow(src.to_string()),
  113|      0|                JsonIntOverflowKind::UIntPos(_) => JsonIntParseErrorKind::UIntPosOverflow(src.to_string()),
  114|      0|                JsonIntOverflowKind::UIntNeg(_) => JsonIntParseErrorKind::UIntNegOverflow(src.to_string()),
  115|      0|                JsonIntOverflowKind::NonZeroUIntZero => JsonIntParseErrorKind::NonZeroUIntZero(src.to_string()),
  116|       |                JsonIntOverflowKind::Fractional(_)
  117|       |                | JsonIntOverflowKind::FloatPos(_)
  118|      0|                | JsonIntOverflowKind::FloatNeg(_) => JsonIntParseErrorKind::InvalidFormat(src.to_string()),
  119|       |            },
  120|       |        }
  121|  1.73k|    }

_RNvMNtCsd77JCpXvqG6_15rsonpath_syntax6parserNtB2_8ParseCtx16increase_nesting:
   49|  43.9k|    fn increase_nesting(&self) -> Option<Self> {
   50|  43.9k|        match self.options.recursion_limit {
   51|  43.9k|            Some(limit) if limit <= self.current_nesting => None,
   52|  43.8k|            _ => Some(Self {
   53|  43.8k|                options: self.options,
   54|  43.8k|                current_nesting: self.current_nesting + 1,
   55|  43.8k|            }),
   56|       |        }
   57|  43.9k|    }
_RNvMNtCsd77JCpXvqG6_15rsonpath_syntax6parserNtB2_8ParseCtx3new:
   42|  2.42k|    fn new(options: &'a ParserOptions) -> Self {
   43|  2.42k|        Self {
   44|  2.42k|            options,
   45|  2.42k|            current_nesting: 0,
   46|  2.42k|        }
   47|  2.42k|    }
_RNvMs_NtCsd77JCpXvqG6_15rsonpath_syntax6parserNtB4_11FilterQuery15into_test_query:
  574|  8.18k|    fn into_test_query(self) -> TestExpr {
  575|  8.18k|        match self {
  576|    734|            Self::Relative(q) => TestExpr::Relative(q),
  577|  7.45k|            Self::Absolute(q) => TestExpr::Absolute(q),
  578|       |        }
  579|  8.18k|    }
_RNvMs_NtCsd77JCpXvqG6_15rsonpath_syntax6parserNtB4_11FilterQuery17try_to_comparable:
  581|  6.87k|    fn try_to_comparable(self) -> Option<Comparable> {
  582|  6.87k|        match self {
  583|  3.18k|            Self::Relative(q) => q.try_to_singular().ok().map(Comparable::RelativeSingularQuery),
  584|  3.69k|            Self::Absolute(q) => q.try_to_singular().ok().map(Comparable::AbsoluteSingularQuery),
  585|       |        }
  586|  6.87k|    }
_RNvNtCsd77JCpXvqG6_15rsonpath_syntax6parser10comparable:
  680|  8.96k|fn comparable<'q>(q: &'q str, ctx: ParseCtx) -> IResult<&'q str, Comparable, InternalParseError<'q>> {
  681|  8.96k|    return alt((
  682|  8.96k|        into(literal),
  683|       |        |q| singular_query(q, ctx),
  684|  8.96k|        failed_filter_expression(SyntaxErrorKind::InvalidComparable),
  685|       |    ))
  686|  8.96k|    .parse(q);
  687|       |
  688|       |    fn singular_query<'q>(q: &'q str, ctx: ParseCtx) -> IResult<&'q str, Comparable, InternalParseError<'q>> {
  689|       |        let (rest, query) = filter_query(q, ctx)?;
  690|       |        let Some(cmp) = query.try_to_comparable() else {
  691|       |            let query_len = q.len() - rest.len();
  692|       |            return fail(SyntaxErrorKind::NonSingularQueryInComparison, q.len(), query_len, rest);
  693|       |        };
  694|       |        Ok((rest, cmp))
  695|       |    }
  696|  8.96k|}
_RNvNtCsd77JCpXvqG6_15rsonpath_syntax6parser12filter_query:
  589|  28.2k|fn filter_query<'q>(q: &'q str, ctx: ParseCtx) -> IResult<&'q str, FilterQuery, InternalParseError<'q>> {
  590|  28.2k|    let (rest, root_type) = alt((
  591|  28.2k|        value(RootSelectorType::Absolute, char('$')),
  592|  28.2k|        value(RootSelectorType::Relative, char('@')),
  593|  28.2k|    ))
  594|  28.2k|    .parse(q)?;
  595|  25.1k|    let rest = skip_whitespace(rest);
  596|  25.1k|    let mut segments = vec![];
  597|  25.1k|    let mut syntax_errors = vec![];
  598|       |
  599|  25.1k|    let mut q = rest;
  600|       |
  601|       |    loop {
  602|  43.4k|        if peek(one_of::<_, _, ()>(".[")).parse(q).is_err() {
  603|  24.3k|            break;
  604|  19.0k|        }
  605|       |
  606|  19.0k|        q = match alt((
  607|       |            |q| descendant_segment(q, ctx),
  608|       |            |q| child_segment(q, ctx),
  609|  19.0k|            failed_segment_within_filter(SyntaxErrorKind::InvalidSegmentStart),
  610|       |        ))
  611|  19.0k|        .parse(q)
  612|  19.0k|        .finish()
  613|       |        {
  614|  7.35k|            Ok((rest, segment)) => {
  615|  7.35k|                segments.push(segment);
  616|  7.35k|                rest
  617|       |            }
  618|  2.57k|            Err(InternalParseError::SyntaxError(err, rest)) => {
  619|  2.57k|                syntax_errors.push(err);
  620|  2.57k|                rest
  621|       |            }
  622|  8.42k|            Err(InternalParseError::SyntaxErrors(mut errs, rest)) => {
  623|  8.42k|                syntax_errors.append(&mut errs);
  624|  8.42k|                rest
  625|       |            }
  626|       |            Err(InternalParseError::RecursionLimitExceeded) => {
  627|    731|                return Err(Err::Failure(InternalParseError::RecursionLimitExceeded));
  628|       |            }
  629|      0|            Err(InternalParseError::NomError(err)) => panic!(
  630|      0|                "unexpected parser error; raw nom errors should never be produced; this is a bug\ncontext:\n{err}"
  631|       |            ),
  632|       |        };
  633|  18.3k|        q = skip_whitespace(q);
  634|       |    }
  635|       |
  636|  24.3k|    if !syntax_errors.is_empty() {
  637|  7.05k|        Err(Err::Failure(InternalParseError::SyntaxErrors(syntax_errors, q)))
  638|       |    } else {
  639|  17.3k|        let query = JsonPathQuery { segments };
  640|  17.3k|        let query = match root_type {
  641|  4.28k|            RootSelectorType::Relative => FilterQuery::Relative(query),
  642|  13.0k|            RootSelectorType::Absolute => FilterQuery::Absolute(query),
  643|       |        };
  644|  17.3k|        Ok((q, query))
  645|       |    }
  646|  28.2k|}
_RNvNtCsd77JCpXvqG6_15rsonpath_syntax6parser12logical_expr:
  412|  43.9k|fn logical_expr<'q>(q: &'q str, ctx: ParseCtx) -> IResult<&'q str, LogicalExpr, InternalParseError<'q>> {
  413|       |    // This is the most involved part of the parser, as it is inherently recursive.
  414|       |    //
  415|       |    // There are two sources of recursion here: parentheses introduce recursion,
  416|       |    // since the rule is simply '(' filter_expression ')'; and the boolean combinations
  417|       |    // require checking for an operator, and if any is present recursively parsing
  418|       |    // another filter and wrapping the result in an appropriate node type.
  419|       |    //
  420|       |    // In total, we handle the negation operator at the start and then apply the rules:
  421|       |    // - '(' |=> filter_expression, ')'
  422|       |    // - literal |=> comp_op, comparable
  423|       |    // - query, comp_op |=> comparable
  424|       |    // - query
  425|       |    // where |=> means a cut. We separately apply two additional restrictions:
  426|       |    // - negation cannot immediately precede a comparison,
  427|       |    // - query in a comparison must be singular.
  428|       |    // It would be possible to directly disallow them by the rules, but if the parser understands
  429|       |    // these two special cases it can give much clearer error messages about them.
  430|       |    //
  431|       |    // At the end, we check for `&&` and `||``, recurse and wrap if needed; if not, we end parsing
  432|       |    // and leave the rest to the parsers higher up the stack. They might accept the next
  433|       |    // character (e.g. it's `)` called from a recursive filter call, `,` chaining selectors,
  434|       |    // `]` ending a segment...) and are responsible for error handling otherwise.
  435|       |    #[derive(Debug, Clone, Copy)]
  436|       |    enum BooleanOp {
  437|       |        And,
  438|       |        Or,
  439|       |    }
  440|       |
  441|  43.9k|    let Some(ctx) = ctx.increase_nesting() else {
  442|     72|        return Err(Err::Failure(InternalParseError::RecursionLimitExceeded));
  443|       |    };
  444|       |
  445|  43.8k|    let (rest, this_expr) = ignore_whitespace(|q| parse_single(q, ctx))(q)?;
  446|  13.1k|    let mut loop_rest = skip_whitespace(rest);
  447|  13.1k|    let mut final_expr = this_expr;
  448|       |
  449|       |    loop {
  450|  16.1k|        let (rest, mb_boolean_op) = opt(ignore_whitespace(alt((
  451|  16.1k|            value(BooleanOp::And, tag("&&")),
  452|  16.1k|            value(BooleanOp::Or, tag("||")),
  453|  16.1k|        ))))
  454|  16.1k|        .parse(loop_rest)?;
  455|  16.1k|        loop_rest = rest;
  456|       |
  457|  3.82k|        match mb_boolean_op {
  458|       |            Some(BooleanOp::And) => {
  459|    499|                let (rest, rhs_expr) = ignore_whitespace(|q| parse_single(q, ctx))(loop_rest)?;
  460|    268|                loop_rest = rest;
  461|    268|                final_expr = LogicalExpr::And(Box::new(final_expr), Box::new(rhs_expr));
  462|       |            }
  463|       |            Some(BooleanOp::Or) => {
  464|  3.32k|                let (rest, rhs_expr) = ignore_whitespace(|q| logical_expr(q, ctx))(loop_rest)?;
  465|  2.75k|                loop_rest = rest;
  466|  2.75k|                final_expr = LogicalExpr::Or(Box::new(final_expr), Box::new(rhs_expr));
  467|       |            }
  468|  12.3k|            None => break,
  469|       |        }
  470|       |    }
  471|       |
  472|  12.3k|    return Ok((loop_rest, final_expr));
  473|       |
  474|       |    fn parse_single<'q>(q: &'q str, ctx: ParseCtx) -> IResult<&'q str, LogicalExpr, InternalParseError<'q>> {
  475|       |        let (rest, opt_neg) = ignore_whitespace(opt(char('!')))(q)?;
  476|       |        let negated = opt_neg.is_some();
  477|       |        if let Ok((rest, _)) = char::<_, ()>('(')(rest) {
  478|       |            let (rest, nested_filter) = cut(|q| logical_expr(q, ctx)).parse(skip_whitespace(rest))?;
  479|       |            let rest = skip_whitespace(rest);
  480|       |            let Ok((rest, _)) = char::<_, ()>(')')(rest) else {
  481|       |                return failed_filter_expression(SyntaxErrorKind::MissingClosingParenthesis)(rest);
  482|       |            };
  483|       |            let selector = if negated {
  484|       |                LogicalExpr::Not(Box::new(nested_filter))
  485|       |            } else {
  486|       |                nested_filter
  487|       |            };
  488|       |            return Ok((rest, selector));
  489|       |        }
  490|       |
  491|       |        match literal(rest) {
  492|       |            Ok((rest, lhs)) => {
  493|       |                let rest = skip_whitespace(rest);
  494|       |                let (rest, comp_op) = match comparison_operator(rest) {
  495|       |                    Ok((rest, comp_op)) => (rest, comp_op),
  496|       |                    Err(Err::Failure(err)) => return Err(Err::Failure(err)),
  497|       |                    _ => {
  498|       |                        if peek(char::<_, ()>(']')).parse(rest).is_ok() {
  499|       |                            return fail(SyntaxErrorKind::MissingComparisonOperator, rest.len(), 1, rest);
  500|       |                        } else {
  501|       |                            return failed_filter_expression(SyntaxErrorKind::InvalidComparisonOperator)(rest);
  502|       |                        };
  503|       |                    }
  504|       |                };
  505|       |                let rest = skip_whitespace(rest);
  506|       |                let (rest, rhs) = comparable(rest, ctx)?;
  507|       |                if negated {
  508|       |                    return fail(SyntaxErrorKind::InvalidNegation, q.len(), 1, rest);
  509|       |                } else {
  510|       |                    return Ok((
  511|       |                        rest,
  512|       |                        LogicalExpr::Comparison(ComparisonExpr {
  513|       |                            lhs: Comparable::Literal(lhs),
  514|       |                            op: comp_op,
  515|       |                            rhs,
  516|       |                        }),
  517|       |                    ));
  518|       |                }
  519|       |            }
  520|       |            Err(Err::Failure(err)) => return Err(Err::Failure(err)),
  521|       |            _ => (),
  522|       |        }
  523|       |
  524|       |        match filter_query(rest, ctx) {
  525|       |            Ok((rest, query)) => {
  526|       |                let query_len = q.len() - rest.len();
  527|       |                let rest = skip_whitespace(rest);
  528|       |                if let Ok((rest, comp_op)) = comparison_operator(rest) {
  529|       |                    let rest = skip_whitespace(rest);
  530|       |                    let (rest, rhs) = comparable(rest, ctx)?;
  531|       |                    let Some(singular_query) = query.try_to_comparable() else {
  532|       |                        return fail(SyntaxErrorKind::NonSingularQueryInComparison, q.len(), query_len, rest);
  533|       |                    };
  534|       |                    if negated {
  535|       |                        fail(SyntaxErrorKind::InvalidNegation, q.len(), 1, rest)
  536|       |                    } else {
  537|       |                        Ok((
  538|       |                            rest,
  539|       |                            LogicalExpr::Comparison(ComparisonExpr {
  540|       |                                lhs: singular_query,
  541|       |                                rhs,
  542|       |                                op: comp_op,
  543|       |                            }),
  544|       |                        ))
  545|       |                    }
  546|       |                } else {
  547|       |                    let test_expr = LogicalExpr::Test(query.into_test_query());
  548|       |                    let expr = if negated {
  549|       |                        LogicalExpr::Not(Box::new(test_expr))
  550|       |                    } else {
  551|       |                        test_expr
  552|       |                    };
  553|       |                    Ok((rest, expr))
  554|       |                }
  555|       |            }
  556|       |            Err(Err::Failure(err)) => Err(Err::Failure(err)),
  557|       |            _ => failed_filter_expression(SyntaxErrorKind::InvalidFilter)(rest),
  558|       |        }
  559|       |    }
  560|  43.9k|}
_RNvNtCsd77JCpXvqG6_15rsonpath_syntax6parser13child_segment:
  166|  39.3k|fn child_segment<'q>(q: &'q str, ctx: ParseCtx) -> IResult<&'q str, Segment, InternalParseError<'q>> {
  167|  39.3k|    map(
  168|  39.3k|        alt((
  169|       |            |q| bracketed_selection(q, ctx),
  170|       |            // This cut is only correct because we try parsing descendant_segment first.
  171|  39.3k|            preceded(
  172|  39.3k|                char('.'),
  173|  39.3k|                cut(alt((
  174|  39.3k|                    map(wildcard_selector, Selectors::one),
  175|  39.3k|                    member_name_shorthand,
  176|  39.3k|                    failed_segment(SyntaxErrorKind::InvalidNameShorthandAfterOnePeriod),
  177|  39.3k|                ))),
  178|       |            ),
  179|       |        )),
  180|       |        Segment::Child,
  181|       |    )
  182|  39.3k|    .parse(q)
  183|  39.3k|}
_RNvNtCsd77JCpXvqG6_15rsonpath_syntax6parser13name_selector:
  303|  51.1k|fn name_selector(q: &str) -> IResult<&str, Selector, InternalParseError<'_>> {
  304|  51.1k|    map(string_literal, Selector::Name).parse(q)
  305|  51.1k|}
_RNvNtCsd77JCpXvqG6_15rsonpath_syntax6parser14index_selector:
  372|  39.6k|fn index_selector(q: &str) -> IResult<&str, Selector, InternalParseError<'_>> {
  373|       |    // This has to be called after the slice selector.
  374|       |    // Thanks to that we can make a hard cut if we parsed an integer but it doesn't work as an index.
  375|  39.6k|    let (rest, int) = int(q)?;
  376|  6.17k|    match parse_directional_int(int) {
  377|  5.05k|        DirectionalInt::Plus(int) => Ok((rest, Selector::Index(Index::FromStart(int)))),
  378|    398|        DirectionalInt::Minus(int) => Ok((rest, Selector::Index(Index::FromEnd(int)))),
  379|    719|        DirectionalInt::Error(err) => Err(Err::Failure(InternalParseError::SyntaxError(
  380|    719|            SyntaxError::new(SyntaxErrorKind::IndexParseError(err), q.len(), int.len()),
  381|    719|            rest,
  382|    719|        ))),
  383|       |    }
  384|  39.6k|}
_RNvNtCsd77JCpXvqG6_15rsonpath_syntax6parser14slice_selector:
  319|  47.5k|fn slice_selector(q: &str) -> IResult<&str, Selector, InternalParseError<'_>> {
  320|  47.5k|    let (rest, opt_start) = terminated(opt(int), ignore_whitespace(char(':'))).parse(q)?;
  321|       |    // We have parsed a ':', so this *must* be a slice selector. Any errors after here are fatal.
  322|  6.31k|    let mut slice = crate::Slice::default();
  323|       |
  324|  6.31k|    if let Some(start_str) = opt_start {
  325|  1.11k|        match parse_directional_int(start_str) {
  326|    490|            DirectionalInt::Plus(int) => slice.start = Index::FromStart(int),
  327|    183|            DirectionalInt::Minus(int) => slice.start = Index::FromEnd(int),
  328|    441|            DirectionalInt::Error(err) => {
  329|    441|                return fail(
  330|    441|                    SyntaxErrorKind::SliceStartParseError(err),
  331|    441|                    q.len(),
  332|    441|                    start_str.len(),
  333|    441|                    rest,
  334|       |                );
  335|       |            }
  336|       |        }
  337|  5.19k|    }
  338|  5.87k|    let q = rest;
  339|  5.87k|    let (rest, opt_end) = opt(ignore_whitespace(int)).parse(q)?;
  340|       |
  341|  5.48k|    if let Some(end_str) = opt_end {
  342|  1.16k|        match parse_directional_int(end_str) {
  343|    649|            DirectionalInt::Plus(int) => slice.end = Some(Index::FromStart(int)),
  344|      2|            DirectionalInt::Minus(int) => slice.end = Some(Index::FromEnd(int)),
  345|    509|            DirectionalInt::Error(err) => {
  346|    509|                return fail(SyntaxErrorKind::SliceEndParseError(err), q.len(), end_str.len(), rest);
  347|       |            }
  348|       |        }
  349|  4.32k|    }
  350|       |
  351|  4.97k|    let q = rest;
  352|  4.97k|    let (rest, opt_step) = opt(ignore_whitespace(preceded(char(':'), opt(ignore_whitespace(int))))).parse(q)?;
  353|       |
  354|  2.12k|    if let Some(Some(step_str)) = opt_step {
  355|  1.43k|        match parse_directional_int(step_str) {
  356|    324|            DirectionalInt::Plus(int) => slice.step = Step::Forward(int),
  357|    386|            DirectionalInt::Minus(int) => slice.step = Step::Backward(int),
  358|    723|            DirectionalInt::Error(err) => {
  359|    723|                return fail(SyntaxErrorKind::SliceStepParseError(err), q.len(), step_str.len(), rest);
  360|       |            }
  361|       |        }
  362|  3.33k|    }
  363|       |
  364|       |    // Fixup the bounds - if start was not given and step is negative, the default must be reversed.
  365|  4.04k|    if slice.step.is_backward() && opt_start.is_none() {
  366|    376|        slice.start = crate::Slice::default_start_backwards();
  367|  3.67k|    }
  368|       |
  369|  4.04k|    Ok((rest, Selector::Slice(slice)))
  370|  47.5k|}
_RNvNtCsd77JCpXvqG6_15rsonpath_syntax6parser14string_literal:
  307|  80.6k|fn string_literal(q: &str) -> IResult<&str, JsonString, InternalParseError<'_>> {
  308|  80.6k|    alt((
  309|  80.6k|        preceded(char('\''), string(StringParseMode::SingleQuoted)),
  310|  80.6k|        preceded(char('"'), string(StringParseMode::DoubleQuoted)),
  311|  80.6k|    ))
  312|  80.6k|    .parse(q)
  313|  80.6k|}
_RNvNtCsd77JCpXvqG6_15rsonpath_syntax6parser15failed_selector:
  386|  6.93k|fn failed_selector(q: &str) -> IResult<&str, Selector, InternalParseError<'_>> {
  387|  6.93k|    let rest = q.trim_start_matches(|x| x != ',' && x != ']');
  388|  6.93k|    let error_len = q.len() - rest.len();
  389|  6.93k|    let error_span = &q[..error_len];
  390|       |
  391|  6.93k|    if error_span.chars().all(|x| [' ', '\n', '\r', '\t'].contains(&x)) {
  392|       |        // Special case for a completely empty selector where we don't want to ignore whitespace.
  393|  2.77k|        fail(SyntaxErrorKind::EmptySelector, q.len() + 1, error_len + 2, rest)
  394|       |    } else {
  395|       |        // Don't highlight leading whitespace in an error.
  396|  4.15k|        let meaningful_span = skip_whitespace(error_span);
  397|  4.15k|        let skipped_whitespace_len = error_span.len() - meaningful_span.len();
  398|  4.15k|        let trimmed_span = meaningful_span.trim_end_matches(JSONPATH_WHITESPACE);
  399|  4.15k|        fail(
  400|  4.15k|            SyntaxErrorKind::InvalidSelector,
  401|  4.15k|            q.len() - skipped_whitespace_len,
  402|  4.15k|            trimmed_span.len(),
  403|  4.15k|            rest,
  404|       |        )
  405|       |    }
  406|  6.93k|}
_RNvNtCsd77JCpXvqG6_15rsonpath_syntax6parser15filter_selector:
  408|  33.5k|fn filter_selector<'q>(q: &'q str, ctx: ParseCtx) -> IResult<&'q str, Selector, InternalParseError<'q>> {
  409|  33.5k|    into(preceded(char('?'), ignore_whitespace(|q| logical_expr(q, ctx)))).parse(q)
  410|  33.5k|}
_RNvNtCsd77JCpXvqG6_15rsonpath_syntax6parser15skip_whitespace:
   11|   712k|fn skip_whitespace(q: &str) -> &str {
   12|   712k|    q.trim_start_matches(JSONPATH_WHITESPACE)
   13|   712k|}
_RNvNtCsd77JCpXvqG6_15rsonpath_syntax6parser17wildcard_selector:
  315|  65.2k|fn wildcard_selector(q: &str) -> IResult<&str, Selector, InternalParseError<'_>> {
  316|  65.2k|    map(tag("*"), |_| Selector::Wildcard).parse(q)
  317|  65.2k|}
_RNvNtCsd77JCpXvqG6_15rsonpath_syntax6parser18descendant_segment:
  150|  44.9k|fn descendant_segment<'q>(q: &'q str, ctx: ParseCtx) -> IResult<&'q str, Segment, InternalParseError<'q>> {
  151|  44.9k|    map(
  152|  44.9k|        preceded(
  153|  44.9k|            tag(".."),
  154|  44.9k|            cut(alt((
  155|       |                |q| bracketed_selection(q, ctx),
  156|  44.9k|                map(wildcard_selector, Selectors::one),
  157|       |                member_name_shorthand,
  158|  44.9k|                failed_segment(SyntaxErrorKind::InvalidSegmentAfterTwoPeriods),
  159|       |            ))),
  160|       |        ),
  161|       |        Segment::Descendant,
  162|       |    )
  163|  44.9k|    .parse(q)
  164|  44.9k|}
_RNvNtCsd77JCpXvqG6_15rsonpath_syntax6parser18parse_with_options:
   60|  2.42k|pub(crate) fn parse_with_options(q: &str, options: &ParserOptions) -> Result<JsonPathQuery> {
   61|  2.42k|    parse_json_path_query(q, ParseCtx::new(options))
   62|  2.42k|}
_RNvNtCsd77JCpXvqG6_15rsonpath_syntax6parser19bracketed_selection:
  215|  44.9k|fn bracketed_selection<'q>(q: &'q str, ctx: ParseCtx) -> IResult<&'q str, Selectors, InternalParseError<'q>> {
  216|  44.9k|    let (mut q, _) = char('[')(q)?;
  217|  24.9k|    let mut selectors = vec![];
  218|  24.9k|    let mut syntax_errors = vec![];
  219|       |
  220|       |    loop {
  221|  51.1k|        match selector(q, ctx).finish() {
  222|  20.4k|            Ok((rest, selector)) => {
  223|  20.4k|                selectors.push(selector);
  224|  20.4k|                q = rest;
  225|  20.4k|            }
  226|  21.5k|            Err(InternalParseError::SyntaxError(err, rest)) => {
  227|  21.5k|                syntax_errors.push(err);
  228|  21.5k|                q = rest;
  229|  21.5k|            }
  230|  8.38k|            Err(InternalParseError::SyntaxErrors(mut errs, rest)) => {
  231|  8.38k|                syntax_errors.append(&mut errs);
  232|  8.38k|                q = rest;
  233|  8.38k|            }
  234|    803|            Err(err) => return Err(Err::Failure(err)),
  235|       |        }
  236|  50.3k|        q = skip_whitespace(q);
  237|       |
  238|  50.3k|        match char::<_, nom::error::Error<_>>(',')(q) {
  239|  5.69k|            Ok((rest, _)) => q = rest,
  240|       |            Err(_) => {
  241|  44.6k|                if let Ok((rest, _)) = char::<_, nom::error::Error<_>>(']')(q) {
  242|  15.7k|                    q = rest;
  243|  15.7k|                    break;
  244|  28.9k|                } else if q.is_empty() {
  245|  8.46k|                    syntax_errors.push(SyntaxError::new(SyntaxErrorKind::MissingClosingBracket, 0, 1));
  246|  8.46k|                    break;
  247|       |                } else {
  248|  20.5k|                    syntax_errors.push(SyntaxError::new(SyntaxErrorKind::MissingSelectorSeparator, q.len(), 1))
  249|       |                }
  250|       |            }
  251|       |        }
  252|       |    }
  253|       |
  254|  24.1k|    if syntax_errors.is_empty() {
  255|  5.12k|        Ok((q, Selectors::many(selectors)))
  256|       |    } else {
  257|  19.0k|        Err(Err::Failure(InternalParseError::SyntaxErrors(syntax_errors, q)))
  258|       |    }
  259|  44.9k|}
_RNvNtCsd77JCpXvqG6_15rsonpath_syntax6parser19comparison_operator:
  668|  20.3k|fn comparison_operator(q: &str) -> IResult<&str, ComparisonOp, InternalParseError<'_>> {
  669|  20.3k|    alt((
  670|  20.3k|        value(ComparisonOp::EqualTo, tag("==")),
  671|  20.3k|        value(ComparisonOp::NotEqualTo, tag("!=")),
  672|  20.3k|        value(ComparisonOp::LesserOrEqualTo, tag("<=")),
  673|  20.3k|        value(ComparisonOp::GreaterOrEqualTo, tag(">=")),
  674|  20.3k|        value(ComparisonOp::LessThan, char('<')),
  675|  20.3k|        value(ComparisonOp::GreaterThan, char('>')),
  676|  20.3k|    ))
  677|  20.3k|    .parse(q)
  678|  20.3k|}
_RNvNtCsd77JCpXvqG6_15rsonpath_syntax6parser21member_name_shorthand:
  261|  13.4k|fn member_name_shorthand(q: &str) -> IResult<&str, Selectors, InternalParseError<'_>> {
  262|  13.4k|    return map(
  263|  13.4k|        preceded(
  264|  13.4k|            peek(name_first),
  265|  13.4k|            fold_many0(name_char, JsonStringBuilder::new, |mut acc, x| {
  266|       |                acc.push(x);
  267|       |                acc
  268|       |            }),
  269|       |        ),
  270|       |        |x| Selectors::one(Selector::Name(x.into())),
  271|       |    )
  272|  13.4k|    .parse(q);
  273|       |
  274|       |    fn name_first(q: &str) -> IResult<&str, char, InternalParseError<'_>> {
  275|       |        satisfy(|x| x.is_ascii_alphabetic() || matches!(x, '_' | '\u{0080}'..='\u{D7FF}' | '\u{E000}'..='\u{10FFFF}'))(
  276|       |            q,
  277|       |        )
  278|       |    }
  279|       |
  280|       |    fn name_char(q: &str) -> IResult<&str, char, InternalParseError<'_>> {
  281|       |        alt((name_first, satisfy(|x| x.is_ascii_digit()))).parse(q)
  282|       |    }
  283|  13.4k|}
_RNvNtCsd77JCpXvqG6_15rsonpath_syntax6parser21parse_directional_int:
  743|  9.87k|fn parse_directional_int(int_str: &str) -> DirectionalInt {
  744|  9.87k|    match JsonInt::from_str(int_str) {
  745|  7.48k|        Ok(int) => {
  746|  7.48k|            if let Ok(uint) = JsonUInt::try_from(int) {
  747|  6.51k|                DirectionalInt::Plus(uint)
  748|       |            } else {
  749|    969|                DirectionalInt::Minus(int.abs().try_into().expect("zero would convert to JsonUInt above"))
  750|       |            }
  751|       |        }
  752|  2.39k|        Err(err) => DirectionalInt::Error(err),
  753|       |    }
  754|  9.87k|}
_RNvNtCsd77JCpXvqG6_15rsonpath_syntax6parser21parse_json_path_query:
   64|  2.42k|fn parse_json_path_query(q: &str, ctx: ParseCtx) -> Result<JsonPathQuery> {
   65|  2.42k|    let original_input = q;
   66|  2.42k|    let mut parse_error = ParseErrorBuilder::new();
   67|  2.42k|    let mut segments = vec![];
   68|  2.42k|    let q = skip_whitespace(q);
   69|  2.42k|    let leading_whitespace_len = original_input.len() - q.len();
   70|  2.42k|    if leading_whitespace_len > 0 && !ctx.options.is_leading_whitespace_allowed() {
   71|     71|        parse_error.add(SyntaxError::new(
   72|     71|            SyntaxErrorKind::DisallowedLeadingWhitespace,
   73|     71|            original_input.len(),
   74|     71|            leading_whitespace_len,
   75|     71|        ));
   76|  2.35k|    }
   77|  2.42k|    let q = match char::<_, nom::error::Error<_>>('$')(q).finish() {
   78|    242|        Ok((q, _)) => skip_whitespace(q),
   79|  2.18k|        Err(e) => {
   80|  2.18k|            parse_error.add(SyntaxError::new(
   81|  2.18k|                SyntaxErrorKind::MissingRootIdentifier,
   82|  2.18k|                e.input.len(),
   83|  2.18k|                q.chars().next().map_or(1, char::len_utf8),
   84|       |            ));
   85|  2.18k|            e.input
   86|       |        }
   87|       |    };
   88|       |
   89|  2.42k|    let mut q = q;
   90|  28.2k|    while !q.is_empty() {
   91|  25.8k|        q = match segment(q, ctx).finish() {
   92|  6.82k|            Ok((rest, segment)) => {
   93|  6.82k|                segments.push(segment);
   94|  6.82k|                rest
   95|       |            }
   96|  8.36k|            Err(InternalParseError::SyntaxError(err, rest)) => {
   97|  8.36k|                parse_error.add(err);
   98|  8.36k|                rest
   99|       |            }
  100|  10.6k|            Err(InternalParseError::SyntaxErrors(errs, rest)) => {
  101|  10.6k|                parse_error.add_many(errs);
  102|  10.6k|                rest
  103|       |            }
  104|       |            Err(InternalParseError::RecursionLimitExceeded) => {
  105|     72|                return Err(ParseErrorBuilder::recursion_limit_exceeded(
  106|     72|                    original_input.to_owned(),
  107|     72|                    ctx.options
  108|     72|                        .recursion_limit
  109|     72|                        .expect("recursion limit should exists when exceeded"),
  110|     72|                ));
  111|       |            }
  112|      0|            Err(InternalParseError::NomError(err)) => panic!(
  113|      0|                "unexpected parser error; raw nom errors should never be produced; this is a bug\ncontext:\n{err}"
  114|       |            ),
  115|       |        };
  116|  25.8k|        q = skip_whitespace(q);
  117|       |    }
  118|       |
  119|       |    // For strict RFC compliance trailing whitespace has to be disallowed.
  120|       |    // This is hard to organically obtain from the parsing above, so we insert this awkward direct check if needed.
  121|  2.35k|    if !ctx.options.is_trailing_whitespace_allowed() {
  122|  2.35k|        let trimmed = original_input.trim_end_matches(JSONPATH_WHITESPACE);
  123|  2.35k|        let trailing_whitespace_len = original_input.len() - trimmed.len();
  124|  2.35k|        if trailing_whitespace_len > 0 {
  125|    204|            parse_error.add(SyntaxError::new(
  126|    204|                SyntaxErrorKind::DisallowedTrailingWhitespace,
  127|    204|                trailing_whitespace_len,
  128|    204|                trailing_whitespace_len,
  129|    204|            ));
  130|  2.14k|        }
  131|      0|    }
  132|       |
  133|  2.35k|    if parse_error.is_empty() {
  134|    196|        Ok(JsonPathQuery { segments })
  135|       |    } else {
  136|  2.15k|        Err(parse_error.build(original_input.to_owned()))
  137|       |    }
  138|  2.42k|}
_RNvNtCsd77JCpXvqG6_15rsonpath_syntax6parser3int:
  756|  95.4k|fn int(q: &str) -> IResult<&str, &str, InternalParseError<'_>> {
  757|  95.4k|    let (rest, int) = recognize(alt((preceded(char('-'), digit1), digit1))).parse(q)?;
  758|       |
  759|  18.1k|    if int != "0" {
  760|  16.5k|        if int == "-0" {
  761|    647|            return fail(SyntaxErrorKind::NegativeZeroInteger, q.len(), int.len(), rest);
  762|  15.8k|        }
  763|  15.8k|        let without_minus = int.strip_prefix('-').unwrap_or(int);
  764|  15.8k|        if without_minus.strip_prefix(['0']).is_some() {
  765|  1.44k|            return fail(SyntaxErrorKind::LeadingZeros, q.len(), int.len(), rest);
  766|  14.4k|        }
  767|  1.62k|    }
  768|       |
  769|  16.0k|    Ok((rest, int))
  770|  95.4k|}
_RNvNtCsd77JCpXvqG6_15rsonpath_syntax6parser5float:
  714|  39.3k|fn float(q: &str) -> IResult<&str, JsonFloat, InternalParseError<'_>> {
  715|       |    // Look ahead to verify that this has a chance to be a number.
  716|  39.3k|    let (rest, valid_str) = recognize(alt((preceded(char('-'), base_float), base_float))).parse(q)?;
  717|       |
  718|       |    // It is a number, so after here we can hard cut.
  719|  9.80k|    return match JsonFloat::from_str(valid_str) {
  720|  8.44k|        Ok(n) => Ok((rest, n)),
  721|  1.35k|        Err(e) => fail(SyntaxErrorKind::NumberParseError(e), rest.len(), valid_str.len(), q),
  722|       |    };
  723|       |
  724|       |    fn base_float(q: &str) -> IResult<&str, &str, InternalParseError<'_>> {
  725|       |        recognize((
  726|       |            digit1,
  727|       |            opt(preceded(char('.'), digit1)),
  728|       |            opt(preceded(
  729|       |                tag_no_case("e"),
  730|       |                preceded(opt(alt((char('+'), char('-')))), digit1),
  731|       |            )),
  732|       |        ))
  733|       |        .parse(q)
  734|       |    }
  735|  39.3k|}
_RNvNtCsd77JCpXvqG6_15rsonpath_syntax6parser6number:
  709|  39.3k|fn number(q: &str) -> IResult<&str, JsonNumber, InternalParseError<'_>> {
  710|  39.3k|    map(float, |f| JsonNumber::from(f).normalize()).parse(q)
  711|  39.3k|}
_RNvNtCsd77JCpXvqG6_15rsonpath_syntax6parser6string:
  772|   161k|fn string(mode: StringParseMode) -> impl FnMut(&str) -> IResult<&str, JsonString, InternalParseError<'_>> {
  773|       |    move |q: &str| {
  774|       |        let mut builder = JsonStringBuilder::new();
  775|       |        let mut syntax_errors = vec![];
  776|       |        let mut stream = q.char_indices().peekable();
  777|       |
  778|       |        while let Some((c_idx, c)) = stream.next() {
  779|       |            match (c, mode) {
  780|       |                ('\\', _) => match read_escape_sequence(q.len(), c_idx, &mut stream, mode) {
  781|       |                    Ok(r) => {
  782|       |                        builder.push(r);
  783|       |                    }
  784|       |                    Err(err) => {
  785|       |                        syntax_errors.push(err);
  786|       |                    }
  787|       |                },
  788|       |                ('"', StringParseMode::DoubleQuoted) | ('\'', StringParseMode::SingleQuoted) => {
  789|       |                    let rest = stream.next().map_or("", |(i, _)| &q[i..]);
  790|       |                    return if syntax_errors.is_empty() {
  791|       |                        Ok((rest, builder.finish()))
  792|       |                    } else {
  793|       |                        Err(nom::Err::Failure(InternalParseError::SyntaxErrors(syntax_errors, rest)))
  794|       |                    };
  795|       |                }
  796|       |                (..='\u{001F}', _) => {
  797|       |                    let rest = stream.peek().map_or("", |(i, _)| &q[*i..]);
  798|       |                    syntax_errors.push(SyntaxError::new(
  799|       |                        SyntaxErrorKind::InvalidUnescapedCharacter,
  800|       |                        rest.len() + 1,
  801|       |                        1,
  802|       |                    ))
  803|       |                }
  804|       |                _ => {
  805|       |                    builder.push(c);
  806|       |                }
  807|       |            }
  808|       |        }
  809|       |
  810|       |        let err_kind = if mode == StringParseMode::SingleQuoted {
  811|       |            SyntaxErrorKind::MissingClosingSingleQuote
  812|       |        } else {
  813|       |            SyntaxErrorKind::MissingClosingDoubleQuote
  814|       |        };
  815|       |        syntax_errors.push(SyntaxError::new(err_kind, 0, 1));
  816|       |        return Err(nom::Err::Failure(InternalParseError::SyntaxErrors(syntax_errors, "")));
  817|       |
  818|       |        fn read_escape_sequence<I>(
  819|       |            q_len: usize,
  820|       |            c_idx: usize,
  821|       |            chars: &mut Peekable<I>,
  822|       |            mode: StringParseMode,
  823|       |        ) -> std::result::Result<char, SyntaxError>
  824|       |        where
  825|       |            I: Iterator<Item = (usize, char)>,
  826|       |        {
  827|       |            let (i, ctrl) = chars.next().ok_or(SyntaxError::new(
  828|       |                SyntaxErrorKind::InvalidUnescapedCharacter,
  829|       |                q_len - c_idx,
  830|       |                1,
  831|       |            ))?;
  832|       |            match ctrl {
  833|       |                'u' => {
  834|       |                    let raw_c = read_hexadecimal_escape(q_len, i, chars)?;
  835|       |                    match raw_c {
  836|       |                        // High surrogate, start of a UTF-16 pair.
  837|       |                        0xD800..=0xDBFF => {
  838|       |                            let &(_, next) = chars.peek().ok_or(SyntaxError::new(
  839|       |                                SyntaxErrorKind::UnpairedHighSurrogate,
  840|       |                                q_len - c_idx,
  841|       |                                6,
  842|       |                            ))?;
  843|       |                            if next != '\\' {
  844|       |                                return Err(SyntaxError::new(
  845|       |                                    SyntaxErrorKind::UnpairedHighSurrogate,
  846|       |                                    q_len - c_idx,
  847|       |                                    6,
  848|       |                                ));
  849|       |                            }
  850|       |                            chars.next();
  851|       |                            let (i, next) = chars.next().ok_or(SyntaxError::new(
  852|       |                                SyntaxErrorKind::UnpairedHighSurrogate,
  853|       |                                q_len - c_idx,
  854|       |                                6,
  855|       |                            ))?;
  856|       |                            if next != 'u' {
  857|       |                                return Err(SyntaxError::new(
  858|       |                                    SyntaxErrorKind::UnpairedHighSurrogate,
  859|       |                                    q_len - c_idx,
  860|       |                                    6,
  861|       |                                ));
  862|       |                            }
  863|       |                            let low = read_hexadecimal_escape(q_len, i, chars)?;
  864|       |                            match low {
  865|       |                                0xDC00..=0xDFFF => {
  866|       |                                    let n = (((raw_c - 0xD800) << 10) | (low - 0xDC00)) + 0x10000;
  867|       |                                    Ok(char::from_u32(n).expect("high and low surrogate pair is always a valid char"))
  868|       |                                }
  869|       |                                _ => Err(SyntaxError::new(
  870|       |                                    SyntaxErrorKind::UnpairedHighSurrogate,
  871|       |                                    q_len - c_idx,
  872|       |                                    6,
  873|       |                                )),
  874|       |                            }
  875|       |                        }
  876|       |                        // Low surrogate, invalid escape sequence.
  877|       |                        0xDC00..=0xDFFF => Err(SyntaxError::new(
  878|       |                            SyntaxErrorKind::UnpairedLowSurrogate,
  879|       |                            q_len - c_idx,
  880|       |                            6,
  881|       |                        )),
  882|       |                        _ => Ok(char::from_u32(raw_c).expect("invalid values are handled above")),
  883|       |                    }
  884|       |                }
  885|       |                'b' => Ok('\u{0008}'), // U+0008 BS backspace
  886|       |                't' => Ok('\t'),       // U+0009 HT horizontal tab
  887|       |                'n' => Ok('\n'),       // U+000A LF line feed
  888|       |                'f' => Ok('\u{000C}'), // U+000C FF form feed
  889|       |                'r' => Ok('\r'),       // U+000D CR carriage return
  890|       |                '"' if mode == StringParseMode::DoubleQuoted => Ok(ctrl),
  891|       |                '\'' if mode == StringParseMode::SingleQuoted => Ok(ctrl),
  892|       |                '/' | '\\' => Ok(ctrl), // " ' / \ are passed as is
  893|       |                _ => Err(SyntaxError::new(
  894|       |                    SyntaxErrorKind::InvalidEscapeSequence,
  895|       |                    q_len - c_idx,
  896|       |                    2,
  897|       |                )), // no other escape sequences are allowed
  898|       |            }
  899|       |        }
  900|       |
  901|       |        fn read_hexadecimal_escape<I>(
  902|       |            q_len: usize,
  903|       |            c_idx: usize,
  904|       |            chars: &mut Peekable<I>,
  905|       |        ) -> std::result::Result<u32, SyntaxError>
  906|       |        where
  907|       |            I: Iterator<Item = (usize, char)>,
  908|       |        {
  909|       |            let mut x = 0;
  910|       |            for i in 0..4 {
  911|       |                let &(_, c) = chars.peek().ok_or(SyntaxError::new(
  912|       |                    SyntaxErrorKind::InvalidEscapeSequence,
  913|       |                    q_len - c_idx + 1,
  914|       |                    2 + i,
  915|       |                ))?;
  916|       |                let v = match c {
  917|       |                    '0'..='9' => c as u32 - '0' as u32,
  918|       |                    // RFC8259.7-2 The hexadecimal letters A through F can be uppercase or lowercase.
  919|       |                    'a'..='f' => c as u32 - 'a' as u32 + 10,
  920|       |                    'A'..='F' => c as u32 - 'A' as u32 + 10,
  921|       |                    _ => {
  922|       |                        return Err(SyntaxError::new(
  923|       |                            SyntaxErrorKind::InvalidHexDigitInUnicodeEscape,
  924|       |                            q_len - c_idx - i - 1,
  925|       |                            1,
  926|       |                        ))
  927|       |                    }
  928|       |                };
  929|       |                x <<= 4;
  930|       |                x += v;
  931|       |                chars.next();
  932|       |            }
  933|       |            Ok(x)
  934|       |        }
  935|       |    }
  936|   161k|}
_RNvNtCsd77JCpXvqG6_15rsonpath_syntax6parser7literal:
  698|  39.3k|fn literal(q: &str) -> IResult<&str, Literal, InternalParseError<'_>> {
  699|  39.3k|    alt((
  700|  39.3k|        into(number),
  701|  39.3k|        into(string_literal),
  702|  39.3k|        value(Literal::Bool(true), tag("true")),
  703|  39.3k|        value(Literal::Bool(false), tag("false")),
  704|  39.3k|        value(Literal::Null, tag("null")),
  705|  39.3k|    ))
  706|  39.3k|    .parse(q)
  707|  39.3k|}
_RNvNtCsd77JCpXvqG6_15rsonpath_syntax6parser7segment:
  140|  25.8k|fn segment<'q>(q: &'q str, ctx: ParseCtx) -> IResult<&'q str, Segment, InternalParseError<'q>> {
  141|       |    // It's important to check descendant first, since we can always cut based on whether the prefix is ".." or not.
  142|  25.8k|    alt((
  143|       |        |q| descendant_segment(q, ctx),
  144|       |        |q| child_segment(q, ctx),
  145|  25.8k|        failed_segment(SyntaxErrorKind::InvalidSegmentStart),
  146|       |    ))
  147|  25.8k|    .parse(q)
  148|  25.8k|}
_RNvNtCsd77JCpXvqG6_15rsonpath_syntax6parser8selector:
  285|  51.1k|fn selector<'q>(q: &'q str, ctx: ParseCtx) -> IResult<&'q str, Selector, InternalParseError<'q>> {
  286|  51.1k|    alt((
  287|  51.1k|        ignore_whitespace(name_selector),
  288|  51.1k|        ignore_whitespace(wildcard_selector),
  289|  51.1k|        ignore_whitespace(slice_selector),
  290|  51.1k|        ignore_whitespace(index_selector),
  291|  51.1k|        ignore_whitespace(|q| filter_selector(q, ctx)),
  292|       |        failed_selector,
  293|       |    ))
  294|  51.1k|    .parse(q)
  295|  51.1k|}
_RNvNtCsd77JCpXvqG6_15rsonpath_syntax6parser8skip_one:
   15|  15.0k|fn skip_one(q: &str) -> &str {
   16|  15.0k|    let mut chars = q.chars();
   17|  15.0k|    chars.next();
   18|  15.0k|    chars.as_str()
   19|  15.0k|}
_RNvNvNtCsd77JCpXvqG6_15rsonpath_syntax6parser10comparable14singular_query:
  688|  5.64k|    fn singular_query<'q>(q: &'q str, ctx: ParseCtx) -> IResult<&'q str, Comparable, InternalParseError<'q>> {
  689|  5.64k|        let (rest, query) = filter_query(q, ctx)?;
  690|  3.36k|        let Some(cmp) = query.try_to_comparable() else {
  691|    373|            let query_len = q.len() - rest.len();
  692|    373|            return fail(SyntaxErrorKind::NonSingularQueryInComparison, q.len(), query_len, rest);
  693|       |        };
  694|  2.98k|        Ok((rest, cmp))
  695|  5.64k|    }
_RNvNvNtCsd77JCpXvqG6_15rsonpath_syntax6parser12logical_expr12parse_single:
  474|  44.3k|    fn parse_single<'q>(q: &'q str, ctx: ParseCtx) -> IResult<&'q str, LogicalExpr, InternalParseError<'q>> {
  475|  44.3k|        let (rest, opt_neg) = ignore_whitespace(opt(char('!')))(q)?;
  476|  44.3k|        let negated = opt_neg.is_some();
  477|  44.3k|        if let Ok((rest, _)) = char::<_, ()>('(')(rest) {
  478|  14.0k|            let (rest, nested_filter) = cut(|q| logical_expr(q, ctx)).parse(skip_whitespace(rest))?;
  479|  1.16k|            let rest = skip_whitespace(rest);
  480|  1.16k|            let Ok((rest, _)) = char::<_, ()>(')')(rest) else {
  481|    475|                return failed_filter_expression(SyntaxErrorKind::MissingClosingParenthesis)(rest);
  482|       |            };
  483|    686|            let selector = if negated {
  484|    194|                LogicalExpr::Not(Box::new(nested_filter))
  485|       |            } else {
  486|    492|                nested_filter
  487|       |            };
  488|    686|            return Ok((rest, selector));
  489|  30.3k|        }
  490|       |
  491|  30.3k|        match literal(rest) {
  492|  6.42k|            Ok((rest, lhs)) => {
  493|  6.42k|                let rest = skip_whitespace(rest);
  494|  6.42k|                let (rest, comp_op) = match comparison_operator(rest) {
  495|  3.19k|                    Ok((rest, comp_op)) => (rest, comp_op),
  496|      0|                    Err(Err::Failure(err)) => return Err(Err::Failure(err)),
  497|       |                    _ => {
  498|  3.23k|                        if peek(char::<_, ()>(']')).parse(rest).is_ok() {
  499|    998|                            return fail(SyntaxErrorKind::MissingComparisonOperator, rest.len(), 1, rest);
  500|       |                        } else {
  501|  2.23k|                            return failed_filter_expression(SyntaxErrorKind::InvalidComparisonOperator)(rest);
  502|       |                        };
  503|       |                    }
  504|       |                };
  505|  3.19k|                let rest = skip_whitespace(rest);
  506|  3.19k|                let (rest, rhs) = comparable(rest, ctx)?;
  507|  2.52k|                if negated {
  508|    352|                    return fail(SyntaxErrorKind::InvalidNegation, q.len(), 1, rest);
  509|       |                } else {
  510|  2.17k|                    return Ok((
  511|  2.17k|                        rest,
  512|  2.17k|                        LogicalExpr::Comparison(ComparisonExpr {
  513|  2.17k|                            lhs: Comparable::Literal(lhs),
  514|  2.17k|                            op: comp_op,
  515|  2.17k|                            rhs,
  516|  2.17k|                        }),
  517|  2.17k|                    ));
  518|       |                }
  519|       |            }
  520|  1.28k|            Err(Err::Failure(err)) => return Err(Err::Failure(err)),
  521|  22.6k|            _ => (),
  522|       |        }
  523|       |
  524|  22.6k|        match filter_query(rest, ctx) {
  525|  13.9k|            Ok((rest, query)) => {
  526|  13.9k|                let query_len = q.len() - rest.len();
  527|  13.9k|                let rest = skip_whitespace(rest);
  528|  13.9k|                if let Ok((rest, comp_op)) = comparison_operator(rest) {
  529|  5.77k|                    let rest = skip_whitespace(rest);
  530|  5.77k|                    let (rest, rhs) = comparable(rest, ctx)?;
  531|  3.51k|                    let Some(singular_query) = query.try_to_comparable() else {
  532|    812|                        return fail(SyntaxErrorKind::NonSingularQueryInComparison, q.len(), query_len, rest);
  533|       |                    };
  534|  2.69k|                    if negated {
  535|    353|                        fail(SyntaxErrorKind::InvalidNegation, q.len(), 1, rest)
  536|       |                    } else {
  537|  2.34k|                        Ok((
  538|  2.34k|                            rest,
  539|  2.34k|                            LogicalExpr::Comparison(ComparisonExpr {
  540|  2.34k|                                lhs: singular_query,
  541|  2.34k|                                rhs,
  542|  2.34k|                                op: comp_op,
  543|  2.34k|                            }),
  544|  2.34k|                        ))
  545|       |                    }
  546|       |                } else {
  547|  8.18k|                    let test_expr = LogicalExpr::Test(query.into_test_query());
  548|  8.18k|                    let expr = if negated {
  549|    518|                        LogicalExpr::Not(Box::new(test_expr))
  550|       |                    } else {
  551|  7.67k|                        test_expr
  552|       |                    };
  553|  8.18k|                    Ok((rest, expr))
  554|       |                }
  555|       |            }
  556|  6.48k|            Err(Err::Failure(err)) => Err(Err::Failure(err)),
  557|  2.19k|            _ => failed_filter_expression(SyntaxErrorKind::InvalidFilter)(rest),
  558|       |        }
  559|  44.3k|    }
_RNvNvNtCsd77JCpXvqG6_15rsonpath_syntax6parser21member_name_shorthand10name_first:
  274|  28.5k|    fn name_first(q: &str) -> IResult<&str, char, InternalParseError<'_>> {
  275|  28.5k|        satisfy(|x| x.is_ascii_alphabetic() || matches!(x, '_' | '\u{0080}'..='\u{D7FF}' | '\u{E000}'..='\u{10FFFF}'))(
  276|  28.5k|            q,
  277|       |        )
  278|  28.5k|    }
_RNvNvNtCsd77JCpXvqG6_15rsonpath_syntax6parser21member_name_shorthand9name_char:
  280|  15.0k|    fn name_char(q: &str) -> IResult<&str, char, InternalParseError<'_>> {
  281|  15.0k|        alt((name_first, satisfy(|x| x.is_ascii_digit()))).parse(q)
  282|  15.0k|    }
_RNvNvNtCsd77JCpXvqG6_15rsonpath_syntax6parser5float10base_float:
  724|  39.5k|    fn base_float(q: &str) -> IResult<&str, &str, InternalParseError<'_>> {
  725|  39.5k|        recognize((
  726|  39.5k|            digit1,
  727|  39.5k|            opt(preceded(char('.'), digit1)),
  728|  39.5k|            opt(preceded(
  729|  39.5k|                tag_no_case("e"),
  730|  39.5k|                preceded(opt(alt((char('+'), char('-')))), digit1),
  731|  39.5k|            )),
  732|  39.5k|        ))
  733|  39.5k|        .parse(q)
  734|  39.5k|    }
_RINvNCNvNtCsd77JCpXvqG6_15rsonpath_syntax6parser6string020read_escape_sequenceNtNtNtCs6SNw0SRvItZ_4core3str4iter11CharIndicesEB8_:
  818|  10.0k|        fn read_escape_sequence<I>(
  819|  10.0k|            q_len: usize,
  820|  10.0k|            c_idx: usize,
  821|  10.0k|            chars: &mut Peekable<I>,
  822|  10.0k|            mode: StringParseMode,
  823|  10.0k|        ) -> std::result::Result<char, SyntaxError>
  824|  10.0k|        where
  825|  10.0k|            I: Iterator<Item = (usize, char)>,
  826|       |        {
  827|  10.0k|            let (i, ctrl) = chars.next().ok_or(SyntaxError::new(
  828|  10.0k|                SyntaxErrorKind::InvalidUnescapedCharacter,
  829|  10.0k|                q_len - c_idx,
  830|       |                1,
  831|     41|            ))?;
  832|    398|            match ctrl {
  833|       |                'u' => {
  834|  7.04k|                    let raw_c = read_hexadecimal_escape(q_len, i, chars)?;
  835|  2.33k|                    match raw_c {
  836|       |                        // High surrogate, start of a UTF-16 pair.
  837|  2.09k|                        0xD800..=0xDBFF => {
  838|  1.46k|                            let &(_, next) = chars.peek().ok_or(SyntaxError::new(
  839|  1.46k|                                SyntaxErrorKind::UnpairedHighSurrogate,
  840|  1.46k|                                q_len - c_idx,
  841|       |                                6,
  842|      1|                            ))?;
  843|  1.46k|                            if next != '\\' {
  844|    209|                                return Err(SyntaxError::new(
  845|    209|                                    SyntaxErrorKind::UnpairedHighSurrogate,
  846|    209|                                    q_len - c_idx,
  847|    209|                                    6,
  848|    209|                                ));
  849|  1.25k|                            }
  850|  1.25k|                            chars.next();
  851|  1.25k|                            let (i, next) = chars.next().ok_or(SyntaxError::new(
  852|  1.25k|                                SyntaxErrorKind::UnpairedHighSurrogate,
  853|  1.25k|                                q_len - c_idx,
  854|       |                                6,
  855|      1|                            ))?;
  856|  1.25k|                            if next != 'u' {
  857|    328|                                return Err(SyntaxError::new(
  858|    328|                                    SyntaxErrorKind::UnpairedHighSurrogate,
  859|    328|                                    q_len - c_idx,
  860|    328|                                    6,
  861|    328|                                ));
  862|    928|                            }
  863|    928|                            let low = read_hexadecimal_escape(q_len, i, chars)?;
  864|    708|                            match low {
  865|    512|                                0xDC00..=0xDFFF => {
  866|    310|                                    let n = (((raw_c - 0xD800) << 10) | (low - 0xDC00)) + 0x10000;
  867|    310|                                    Ok(char::from_u32(n).expect("high and low surrogate pair is always a valid char"))
  868|       |                                }
  869|    398|                                _ => Err(SyntaxError::new(
  870|    398|                                    SyntaxErrorKind::UnpairedHighSurrogate,
  871|    398|                                    q_len - c_idx,
  872|    398|                                    6,
  873|    398|                                )),
  874|       |                            }
  875|       |                        }
  876|       |                        // Low surrogate, invalid escape sequence.
  877|    631|                        0xDC00..=0xDFFF => Err(SyntaxError::new(
  878|    365|                            SyntaxErrorKind::UnpairedLowSurrogate,
  879|    365|                            q_len - c_idx,
  880|    365|                            6,
  881|    365|                        )),
  882|    500|                        _ => Ok(char::from_u32(raw_c).expect("invalid values are handled above")),
  883|       |                    }
  884|       |                }
  885|    194|                'b' => Ok('\u{0008}'), // U+0008 BS backspace
  886|    271|                't' => Ok('\t'),       // U+0009 HT horizontal tab
  887|    194|                'n' => Ok('\n'),       // U+000A LF line feed
  888|    199|                'f' => Ok('\u{000C}'), // U+000C FF form feed
  889|    194|                'r' => Ok('\r'),       // U+000D CR carriage return
  890|    398|                '"' if mode == StringParseMode::DoubleQuoted => Ok(ctrl),
  891|    405|                '\'' if mode == StringParseMode::SingleQuoted => Ok(ctrl),
  892|    460|                '/' | '\\' => Ok(ctrl), // " ' / \ are passed as is
  893|  1.02k|                _ => Err(SyntaxError::new(
  894|  1.02k|                    SyntaxErrorKind::InvalidEscapeSequence,
  895|  1.02k|                    q_len - c_idx,
  896|  1.02k|                    2,
  897|  1.02k|                )), // no other escape sequences are allowed
  898|       |            }
  899|  10.0k|        }
_RINvNCNvNtCsd77JCpXvqG6_15rsonpath_syntax6parser6string023read_hexadecimal_escapeNtNtNtCs6SNw0SRvItZ_4core3str4iter11CharIndicesEB8_:
  901|  7.97k|        fn read_hexadecimal_escape<I>(
  902|  7.97k|            q_len: usize,
  903|  7.97k|            c_idx: usize,
  904|  7.97k|            chars: &mut Peekable<I>,
  905|  7.97k|        ) -> std::result::Result<u32, SyntaxError>
  906|  7.97k|        where
  907|  7.97k|            I: Iterator<Item = (usize, char)>,
  908|       |        {
  909|  7.97k|            let mut x = 0;
  910|  26.3k|            for i in 0..4 {
  911|  23.3k|                let &(_, c) = chars.peek().ok_or(SyntaxError::new(
  912|  23.3k|                    SyntaxErrorKind::InvalidEscapeSequence,
  913|  23.3k|                    q_len - c_idx + 1,
  914|  23.3k|                    2 + i,
  915|     31|                ))?;
  916|  23.3k|                let v = match c {
  917|  22.3k|                    '0'..='9' => c as u32 - '0' as u32,
  918|       |                    // RFC8259.7-2 The hexadecimal letters A through F can be uppercase or lowercase.
  919|  7.20k|                    'a'..='f' => c as u32 - 'a' as u32 + 10,
  920|  5.66k|                    'A'..='F' => c as u32 - 'A' as u32 + 10,
  921|       |                    _ => {
  922|  4.90k|                        return Err(SyntaxError::new(
  923|  4.90k|                            SyntaxErrorKind::InvalidHexDigitInUnicodeEscape,
  924|  4.90k|                            q_len - c_idx - i - 1,
  925|  4.90k|                            1,
  926|  4.90k|                        ))
  927|       |                    }
  928|       |                };
  929|  18.4k|                x <<= 4;
  930|  18.4k|                x += v;
  931|  18.4k|                chars.next();
  932|       |            }
  933|  3.04k|            Ok(x)
  934|  7.97k|        }
_RINvNtCsd77JCpXvqG6_15rsonpath_syntax6parser14failed_segmentNtB4_7SegmentEB4_:
  185|  25.8k|fn failed_segment<T>(kind: SyntaxErrorKind) -> impl FnMut(&str) -> IResult<&str, T, InternalParseError<'_>> {
  186|       |    move |q: &str| {
  187|       |        // Special case when the error span starts with a bunch of periods.
  188|       |        // The best error message to display is to skip all those periods and try to recover after.
  189|       |        // This handles cases like e.g. `$....a`, where we will highlight `..a` as the error and
  190|       |        // try to continue from there. We also handle this as a separate suggestion to remove extraneous periods.
  191|       |        let rest = if q.starts_with('.') {
  192|       |            q.trim_start_matches('.')
  193|       |        } else {
  194|       |            skip_one(q)
  195|       |        }
  196|       |        .trim_start_matches(|x| x != '.' && x != '[');
  197|       |        // Don't highlight leading whitespace in an error.
  198|       |        // This logic is duplicated with failed_selector, but I didn't find a way to extract this logic that wouldn't
  199|       |        // make it actually *harder* to follow wtf is happening in the code, so...
  200|       |        let error_len = q.len() - rest.len();
  201|       |        let error_span = &q[..error_len];
  202|       |        if error_span.chars().all(|x| [' ', '\n', '\r', '\t'].contains(&x)) {
  203|       |            // Special case for a completely empty selector where we don't want to ignore whitespace.
  204|       |            fail(SyntaxErrorKind::EmptySelector, q.len() + 1, error_len + 2, rest)
  205|       |        } else {
  206|       |            // Don't highlight leading whitespace in an error.
  207|       |            let meaningful_span = skip_whitespace(error_span);
  208|       |            let skipped_whitespace_len = error_span.len() - meaningful_span.len();
  209|       |            let trimmed_span = meaningful_span.trim_end_matches(JSONPATH_WHITESPACE);
  210|       |            fail(kind.clone(), q.len() - skipped_whitespace_len, trimmed_span.len(), rest)
  211|       |        }
  212|       |    }
  213|  25.8k|}
_RINvNtCsd77JCpXvqG6_15rsonpath_syntax6parser14failed_segmentNtB4_9SelectorsEB4_:
  185|  84.3k|fn failed_segment<T>(kind: SyntaxErrorKind) -> impl FnMut(&str) -> IResult<&str, T, InternalParseError<'_>> {
  186|       |    move |q: &str| {
  187|       |        // Special case when the error span starts with a bunch of periods.
  188|       |        // The best error message to display is to skip all those periods and try to recover after.
  189|       |        // This handles cases like e.g. `$....a`, where we will highlight `..a` as the error and
  190|       |        // try to continue from there. We also handle this as a separate suggestion to remove extraneous periods.
  191|       |        let rest = if q.starts_with('.') {
  192|       |            q.trim_start_matches('.')
  193|       |        } else {
  194|       |            skip_one(q)
  195|       |        }
  196|       |        .trim_start_matches(|x| x != '.' && x != '[');
  197|       |        // Don't highlight leading whitespace in an error.
  198|       |        // This logic is duplicated with failed_selector, but I didn't find a way to extract this logic that wouldn't
  199|       |        // make it actually *harder* to follow wtf is happening in the code, so...
  200|       |        let error_len = q.len() - rest.len();
  201|       |        let error_span = &q[..error_len];
  202|       |        if error_span.chars().all(|x| [' ', '\n', '\r', '\t'].contains(&x)) {
  203|       |            // Special case for a completely empty selector where we don't want to ignore whitespace.
  204|       |            fail(SyntaxErrorKind::EmptySelector, q.len() + 1, error_len + 2, rest)
  205|       |        } else {
  206|       |            // Don't highlight leading whitespace in an error.
  207|       |            let meaningful_span = skip_whitespace(error_span);
  208|       |            let skipped_whitespace_len = error_span.len() - meaningful_span.len();
  209|       |            let trimmed_span = meaningful_span.trim_end_matches(JSONPATH_WHITESPACE);
  210|       |            fail(kind.clone(), q.len() - skipped_whitespace_len, trimmed_span.len(), rest)
  211|       |        }
  212|       |    }
  213|  84.3k|}
_RINvNtCsd77JCpXvqG6_15rsonpath_syntax6parser17ignore_whitespaceINtNtCs6SNw0SRvItZ_4core6option6OptionReEINtNtCshuHlpjMNnjS_3nom8sequence8PrecededNCINvNtNtB1J_9character8complete4charB1B_NtNtB4_5error18InternalParseErrorE0INtNtB1J_10combinator3OptNCIB0_B1B_NvB2_3intB2Y_E0EEB2Y_EB4_:
   21|  4.97k|fn ignore_whitespace<'a, T, F, E>(mut inner: F) -> impl FnMut(&'a str) -> IResult<&'a str, T, E>
   22|  4.97k|where
   23|  4.97k|    F: nom::Parser<&'a str, Output = T, Error = E>,
   24|       |{
   25|       |    move |q: &'a str| {
   26|       |        inner
   27|       |            .parse(skip_whitespace(q))
   28|       |            .map(|(rest, res)| (skip_whitespace(rest), res))
   29|       |    }
   30|  4.97k|}
_RINvNtCsd77JCpXvqG6_15rsonpath_syntax6parser17ignore_whitespaceINtNtCs6SNw0SRvItZ_4core6option6OptioncEINtNtCshuHlpjMNnjS_3nom10combinator3OptNCINvNtNtB1I_9character8complete4charReNtNtB4_5error18InternalParseErrorE0EB2T_EB4_:
   21|  44.3k|fn ignore_whitespace<'a, T, F, E>(mut inner: F) -> impl FnMut(&'a str) -> IResult<&'a str, T, E>
   22|  44.3k|where
   23|  44.3k|    F: nom::Parser<&'a str, Output = T, Error = E>,
   24|       |{
   25|       |    move |q: &'a str| {
   26|       |        inner
   27|       |            .parse(skip_whitespace(q))
   28|       |            .map(|(rest, res)| (skip_whitespace(rest), res))
   29|       |    }
   30|  44.3k|}
_RINvNtCsd77JCpXvqG6_15rsonpath_syntax6parser17ignore_whitespaceNtB4_11LogicalExprNCNvB2_12logical_expr0NtNtB4_5error18InternalParseErrorEB4_:
   21|  43.8k|fn ignore_whitespace<'a, T, F, E>(mut inner: F) -> impl FnMut(&'a str) -> IResult<&'a str, T, E>
   22|  43.8k|where
   23|  43.8k|    F: nom::Parser<&'a str, Output = T, Error = E>,
   24|       |{
   25|       |    move |q: &'a str| {
   26|       |        inner
   27|       |            .parse(skip_whitespace(q))
   28|       |            .map(|(rest, res)| (skip_whitespace(rest), res))
   29|       |    }
   30|  43.8k|}
_RINvNtCsd77JCpXvqG6_15rsonpath_syntax6parser17ignore_whitespaceNtB4_11LogicalExprNCNvB2_12logical_exprs0_0NtNtB4_5error18InternalParseErrorEB4_:
   21|  3.32k|fn ignore_whitespace<'a, T, F, E>(mut inner: F) -> impl FnMut(&'a str) -> IResult<&'a str, T, E>
   22|  3.32k|where
   23|  3.32k|    F: nom::Parser<&'a str, Output = T, Error = E>,
   24|       |{
   25|       |    move |q: &'a str| {
   26|       |        inner
   27|       |            .parse(skip_whitespace(q))
   28|       |            .map(|(rest, res)| (skip_whitespace(rest), res))
   29|       |    }
   30|  3.32k|}
_RINvNtCsd77JCpXvqG6_15rsonpath_syntax6parser17ignore_whitespaceNtB4_11LogicalExprNCNvB2_12logical_exprs_0NtNtB4_5error18InternalParseErrorEB4_:
   21|    499|fn ignore_whitespace<'a, T, F, E>(mut inner: F) -> impl FnMut(&'a str) -> IResult<&'a str, T, E>
   22|    499|where
   23|    499|    F: nom::Parser<&'a str, Output = T, Error = E>,
   24|       |{
   25|       |    move |q: &'a str| {
   26|       |        inner
   27|       |            .parse(skip_whitespace(q))
   28|       |            .map(|(rest, res)| (skip_whitespace(rest), res))
   29|       |    }
   30|    499|}
_RINvNtCsd77JCpXvqG6_15rsonpath_syntax6parser17ignore_whitespaceNtB4_11LogicalExprNCNvB2_15filter_selector0NtNtB4_5error18InternalParseErrorEB4_:
   21|  33.5k|fn ignore_whitespace<'a, T, F, E>(mut inner: F) -> impl FnMut(&'a str) -> IResult<&'a str, T, E>
   22|  33.5k|where
   23|  33.5k|    F: nom::Parser<&'a str, Output = T, Error = E>,
   24|       |{
   25|       |    move |q: &'a str| {
   26|       |        inner
   27|       |            .parse(skip_whitespace(q))
   28|       |            .map(|(rest, res)| (skip_whitespace(rest), res))
   29|       |    }
   30|  33.5k|}
_RINvNtCsd77JCpXvqG6_15rsonpath_syntax6parser17ignore_whitespaceNtB4_8SelectorNCNvB2_8selector0NtNtB4_5error18InternalParseErrorEB4_:
   21|  51.1k|fn ignore_whitespace<'a, T, F, E>(mut inner: F) -> impl FnMut(&'a str) -> IResult<&'a str, T, E>
   22|  51.1k|where
   23|  51.1k|    F: nom::Parser<&'a str, Output = T, Error = E>,
   24|       |{
   25|       |    move |q: &'a str| {
   26|       |        inner
   27|       |            .parse(skip_whitespace(q))
   28|       |            .map(|(rest, res)| (skip_whitespace(rest), res))
   29|       |    }
   30|  51.1k|}
_RINvNtCsd77JCpXvqG6_15rsonpath_syntax6parser17ignore_whitespaceNtB4_8SelectorNvB2_13name_selectorNtNtB4_5error18InternalParseErrorEB4_:
   21|  51.1k|fn ignore_whitespace<'a, T, F, E>(mut inner: F) -> impl FnMut(&'a str) -> IResult<&'a str, T, E>
   22|  51.1k|where
   23|  51.1k|    F: nom::Parser<&'a str, Output = T, Error = E>,
   24|       |{
   25|       |    move |q: &'a str| {
   26|       |        inner
   27|       |            .parse(skip_whitespace(q))
   28|       |            .map(|(rest, res)| (skip_whitespace(rest), res))
   29|       |    }
   30|  51.1k|}
_RINvNtCsd77JCpXvqG6_15rsonpath_syntax6parser17ignore_whitespaceNtB4_8SelectorNvB2_14index_selectorNtNtB4_5error18InternalParseErrorEB4_:
   21|  51.1k|fn ignore_whitespace<'a, T, F, E>(mut inner: F) -> impl FnMut(&'a str) -> IResult<&'a str, T, E>
   22|  51.1k|where
   23|  51.1k|    F: nom::Parser<&'a str, Output = T, Error = E>,
   24|       |{
   25|       |    move |q: &'a str| {
   26|       |        inner
   27|       |            .parse(skip_whitespace(q))
   28|       |            .map(|(rest, res)| (skip_whitespace(rest), res))
   29|       |    }
   30|  51.1k|}
_RINvNtCsd77JCpXvqG6_15rsonpath_syntax6parser17ignore_whitespaceNtB4_8SelectorNvB2_14slice_selectorNtNtB4_5error18InternalParseErrorEB4_:
   21|  51.1k|fn ignore_whitespace<'a, T, F, E>(mut inner: F) -> impl FnMut(&'a str) -> IResult<&'a str, T, E>
   22|  51.1k|where
   23|  51.1k|    F: nom::Parser<&'a str, Output = T, Error = E>,
   24|       |{
   25|       |    move |q: &'a str| {
   26|       |        inner
   27|       |            .parse(skip_whitespace(q))
   28|       |            .map(|(rest, res)| (skip_whitespace(rest), res))
   29|       |    }
   30|  51.1k|}
_RINvNtCsd77JCpXvqG6_15rsonpath_syntax6parser17ignore_whitespaceNtB4_8SelectorNvB2_17wildcard_selectorNtNtB4_5error18InternalParseErrorEB4_:
   21|  51.1k|fn ignore_whitespace<'a, T, F, E>(mut inner: F) -> impl FnMut(&'a str) -> IResult<&'a str, T, E>
   22|  51.1k|where
   23|  51.1k|    F: nom::Parser<&'a str, Output = T, Error = E>,
   24|       |{
   25|       |    move |q: &'a str| {
   26|       |        inner
   27|       |            .parse(skip_whitespace(q))
   28|       |            .map(|(rest, res)| (skip_whitespace(rest), res))
   29|       |    }
   30|  51.1k|}
_RINvNtCsd77JCpXvqG6_15rsonpath_syntax6parser17ignore_whitespaceNtNvB2_12logical_expr9BooleanOpINtNtCshuHlpjMNnjS_3nom6branch6ChoiceTINtNtB1z_8internal3MapNCINvNtNtB1z_5bytes8complete3tagReB2Y_NtNtB4_5error18InternalParseErrorE0NCINvNtB1z_10combinator5valueB2Y_BZ_B34_B2s_E0EB26_EEB34_EB4_:
   21|  16.1k|fn ignore_whitespace<'a, T, F, E>(mut inner: F) -> impl FnMut(&'a str) -> IResult<&'a str, T, E>
   22|  16.1k|where
   23|  16.1k|    F: nom::Parser<&'a str, Output = T, Error = E>,
   24|       |{
   25|       |    move |q: &'a str| {
   26|       |        inner
   27|       |            .parse(skip_whitespace(q))
   28|       |            .map(|(rest, res)| (skip_whitespace(rest), res))
   29|       |    }
   30|  16.1k|}
_RINvNtCsd77JCpXvqG6_15rsonpath_syntax6parser17ignore_whitespaceReNvB2_3intNtNtB4_5error18InternalParseErrorEB4_:
   21|  10.8k|fn ignore_whitespace<'a, T, F, E>(mut inner: F) -> impl FnMut(&'a str) -> IResult<&'a str, T, E>
   22|  10.8k|where
   23|  10.8k|    F: nom::Parser<&'a str, Output = T, Error = E>,
   24|       |{
   25|       |    move |q: &'a str| {
   26|       |        inner
   27|       |            .parse(skip_whitespace(q))
   28|       |            .map(|(rest, res)| (skip_whitespace(rest), res))
   29|       |    }
   30|  10.8k|}
_RINvNtCsd77JCpXvqG6_15rsonpath_syntax6parser17ignore_whitespacecNCINvNtNtCshuHlpjMNnjS_3nom9character8complete4charReNtNtB4_5error18InternalParseErrorE0B1R_EB4_:
   21|  47.5k|fn ignore_whitespace<'a, T, F, E>(mut inner: F) -> impl FnMut(&'a str) -> IResult<&'a str, T, E>
   22|  47.5k|where
   23|  47.5k|    F: nom::Parser<&'a str, Output = T, Error = E>,
   24|       |{
   25|       |    move |q: &'a str| {
   26|       |        inner
   27|       |            .parse(skip_whitespace(q))
   28|       |            .map(|(rest, res)| (skip_whitespace(rest), res))
   29|       |    }
   30|  47.5k|}
_RINvNtCsd77JCpXvqG6_15rsonpath_syntax6parser24failed_filter_expressionNtB4_10ComparableEB4_:
  660|  8.96k|fn failed_filter_expression<T>(kind: SyntaxErrorKind) -> impl FnMut(&str) -> IResult<&str, T, InternalParseError<'_>> {
  661|       |    move |q: &str| {
  662|       |        // We want to close the filter, so just try to find the next ']' or ','
  663|       |        let rest = skip_one(q).trim_start_matches(|x| x != ',' && x != ']');
  664|       |        fail(kind.clone(), q.len(), q.len() - rest.len(), rest)
  665|       |    }
  666|  8.96k|}
_RINvNtCsd77JCpXvqG6_15rsonpath_syntax6parser24failed_filter_expressionNtB4_11LogicalExprEB4_:
  660|  4.90k|fn failed_filter_expression<T>(kind: SyntaxErrorKind) -> impl FnMut(&str) -> IResult<&str, T, InternalParseError<'_>> {
  661|       |    move |q: &str| {
  662|       |        // We want to close the filter, so just try to find the next ']' or ','
  663|       |        let rest = skip_one(q).trim_start_matches(|x| x != ',' && x != ']');
  664|       |        fail(kind.clone(), q.len(), q.len() - rest.len(), rest)
  665|       |    }
  666|  4.90k|}
_RINvNtCsd77JCpXvqG6_15rsonpath_syntax6parser28failed_segment_within_filterNtB4_7SegmentEB4_:
  648|  19.0k|fn failed_segment_within_filter<T>(
  649|  19.0k|    kind: SyntaxErrorKind,
  650|  19.0k|) -> impl FnMut(&str) -> IResult<&str, T, InternalParseError<'_>> {
  651|       |    move |q: &str| {
  652|       |        // We want to find the next segment or close the filter.
  653|       |        let rest = skip_one(q)
  654|       |            .trim_start_matches('.')
  655|       |            .trim_start_matches(|x| x != ',' && x != ']' && x != '.' && x != '[');
  656|       |        fail(kind.clone(), q.len(), q.len() - rest.len(), rest)
  657|       |    }
  658|  19.0k|}
_RINvNtCsd77JCpXvqG6_15rsonpath_syntax6parser4failNtB4_10ComparableEB4_:
  938|  1.35k|fn fail<T>(
  939|  1.35k|    kind: SyntaxErrorKind,
  940|  1.35k|    rev_idx: usize,
  941|  1.35k|    err_len: usize,
  942|  1.35k|    rest: &str,
  943|  1.35k|) -> IResult<&str, T, InternalParseError<'_>> {
  944|  1.35k|    Err(Err::Failure(InternalParseError::SyntaxError(
  945|  1.35k|        SyntaxError::new(kind, rev_idx, err_len),
  946|  1.35k|        rest,
  947|  1.35k|    )))
  948|  1.35k|}
_RINvNtCsd77JCpXvqG6_15rsonpath_syntax6parser4failNtB4_11LogicalExprEB4_:
  938|  7.41k|fn fail<T>(
  939|  7.41k|    kind: SyntaxErrorKind,
  940|  7.41k|    rev_idx: usize,
  941|  7.41k|    err_len: usize,
  942|  7.41k|    rest: &str,
  943|  7.41k|) -> IResult<&str, T, InternalParseError<'_>> {
  944|  7.41k|    Err(Err::Failure(InternalParseError::SyntaxError(
  945|  7.41k|        SyntaxError::new(kind, rev_idx, err_len),
  946|  7.41k|        rest,
  947|  7.41k|    )))
  948|  7.41k|}
_RINvNtCsd77JCpXvqG6_15rsonpath_syntax6parser4failNtB4_7SegmentEB4_:
  938|  3.62k|fn fail<T>(
  939|  3.62k|    kind: SyntaxErrorKind,
  940|  3.62k|    rev_idx: usize,
  941|  3.62k|    err_len: usize,
  942|  3.62k|    rest: &str,
  943|  3.62k|) -> IResult<&str, T, InternalParseError<'_>> {
  944|  3.62k|    Err(Err::Failure(InternalParseError::SyntaxError(
  945|  3.62k|        SyntaxError::new(kind, rev_idx, err_len),
  946|  3.62k|        rest,
  947|  3.62k|    )))
  948|  3.62k|}
_RINvNtCsd77JCpXvqG6_15rsonpath_syntax6parser4failNtB4_8SelectorEB4_:
  938|  8.60k|fn fail<T>(
  939|  8.60k|    kind: SyntaxErrorKind,
  940|  8.60k|    rev_idx: usize,
  941|  8.60k|    err_len: usize,
  942|  8.60k|    rest: &str,
  943|  8.60k|) -> IResult<&str, T, InternalParseError<'_>> {
  944|  8.60k|    Err(Err::Failure(InternalParseError::SyntaxError(
  945|  8.60k|        SyntaxError::new(kind, rev_idx, err_len),
  946|  8.60k|        rest,
  947|  8.60k|    )))
  948|  8.60k|}
_RINvNtCsd77JCpXvqG6_15rsonpath_syntax6parser4failNtB4_9SelectorsEB4_:
  938|  7.31k|fn fail<T>(
  939|  7.31k|    kind: SyntaxErrorKind,
  940|  7.31k|    rev_idx: usize,
  941|  7.31k|    err_len: usize,
  942|  7.31k|    rest: &str,
  943|  7.31k|) -> IResult<&str, T, InternalParseError<'_>> {
  944|  7.31k|    Err(Err::Failure(InternalParseError::SyntaxError(
  945|  7.31k|        SyntaxError::new(kind, rev_idx, err_len),
  946|  7.31k|        rest,
  947|  7.31k|    )))
  948|  7.31k|}
_RINvNtCsd77JCpXvqG6_15rsonpath_syntax6parser4failNtNtB4_3num9JsonFloatEB4_:
  938|  1.35k|fn fail<T>(
  939|  1.35k|    kind: SyntaxErrorKind,
  940|  1.35k|    rev_idx: usize,
  941|  1.35k|    err_len: usize,
  942|  1.35k|    rest: &str,
  943|  1.35k|) -> IResult<&str, T, InternalParseError<'_>> {
  944|  1.35k|    Err(Err::Failure(InternalParseError::SyntaxError(
  945|  1.35k|        SyntaxError::new(kind, rev_idx, err_len),
  946|  1.35k|        rest,
  947|  1.35k|    )))
  948|  1.35k|}
_RINvNtCsd77JCpXvqG6_15rsonpath_syntax6parser4failReEB4_:
  938|  2.09k|fn fail<T>(
  939|  2.09k|    kind: SyntaxErrorKind,
  940|  2.09k|    rev_idx: usize,
  941|  2.09k|    err_len: usize,
  942|  2.09k|    rest: &str,
  943|  2.09k|) -> IResult<&str, T, InternalParseError<'_>> {
  944|  2.09k|    Err(Err::Failure(InternalParseError::SyntaxError(
  945|  2.09k|        SyntaxError::new(kind, rev_idx, err_len),
  946|  2.09k|        rest,
  947|  2.09k|    )))
  948|  2.09k|}
_RNCINvNtCsd77JCpXvqG6_15rsonpath_syntax6parser14failed_segmentNtB6_7SegmentE0B6_:
  186|  3.62k|    move |q: &str| {
  187|       |        // Special case when the error span starts with a bunch of periods.
  188|       |        // The best error message to display is to skip all those periods and try to recover after.
  189|       |        // This handles cases like e.g. `$....a`, where we will highlight `..a` as the error and
  190|       |        // try to continue from there. We also handle this as a separate suggestion to remove extraneous periods.
  191|  3.62k|        let rest = if q.starts_with('.') {
  192|      0|            q.trim_start_matches('.')
  193|       |        } else {
  194|  3.62k|            skip_one(q)
  195|       |        }
  196|  3.62k|        .trim_start_matches(|x| x != '.' && x != '[');
  197|       |        // Don't highlight leading whitespace in an error.
  198|       |        // This logic is duplicated with failed_selector, but I didn't find a way to extract this logic that wouldn't
  199|       |        // make it actually *harder* to follow wtf is happening in the code, so...
  200|  3.62k|        let error_len = q.len() - rest.len();
  201|  3.62k|        let error_span = &q[..error_len];
  202|  3.62k|        if error_span.chars().all(|x| [' ', '\n', '\r', '\t'].contains(&x)) {
  203|       |            // Special case for a completely empty selector where we don't want to ignore whitespace.
  204|      0|            fail(SyntaxErrorKind::EmptySelector, q.len() + 1, error_len + 2, rest)
  205|       |        } else {
  206|       |            // Don't highlight leading whitespace in an error.
  207|  3.62k|            let meaningful_span = skip_whitespace(error_span);
  208|  3.62k|            let skipped_whitespace_len = error_span.len() - meaningful_span.len();
  209|  3.62k|            let trimmed_span = meaningful_span.trim_end_matches(JSONPATH_WHITESPACE);
  210|  3.62k|            fail(kind.clone(), q.len() - skipped_whitespace_len, trimmed_span.len(), rest)
  211|       |        }
  212|  3.62k|    }
_RNCINvNtCsd77JCpXvqG6_15rsonpath_syntax6parser14failed_segmentNtB6_9SelectorsE0B6_:
  186|  7.31k|    move |q: &str| {
  187|       |        // Special case when the error span starts with a bunch of periods.
  188|       |        // The best error message to display is to skip all those periods and try to recover after.
  189|       |        // This handles cases like e.g. `$....a`, where we will highlight `..a` as the error and
  190|       |        // try to continue from there. We also handle this as a separate suggestion to remove extraneous periods.
  191|  7.31k|        let rest = if q.starts_with('.') {
  192|  1.77k|            q.trim_start_matches('.')
  193|       |        } else {
  194|  5.53k|            skip_one(q)
  195|       |        }
  196|  7.31k|        .trim_start_matches(|x| x != '.' && x != '[');
  197|       |        // Don't highlight leading whitespace in an error.
  198|       |        // This logic is duplicated with failed_selector, but I didn't find a way to extract this logic that wouldn't
  199|       |        // make it actually *harder* to follow wtf is happening in the code, so...
  200|  7.31k|        let error_len = q.len() - rest.len();
  201|  7.31k|        let error_span = &q[..error_len];
  202|  7.31k|        if error_span.chars().all(|x| [' ', '\n', '\r', '\t'].contains(&x)) {
  203|       |            // Special case for a completely empty selector where we don't want to ignore whitespace.
  204|  2.20k|            fail(SyntaxErrorKind::EmptySelector, q.len() + 1, error_len + 2, rest)
  205|       |        } else {
  206|       |            // Don't highlight leading whitespace in an error.
  207|  5.10k|            let meaningful_span = skip_whitespace(error_span);
  208|  5.10k|            let skipped_whitespace_len = error_span.len() - meaningful_span.len();
  209|  5.10k|            let trimmed_span = meaningful_span.trim_end_matches(JSONPATH_WHITESPACE);
  210|  5.10k|            fail(kind.clone(), q.len() - skipped_whitespace_len, trimmed_span.len(), rest)
  211|       |        }
  212|  7.31k|    }
_RNCINvNtCsd77JCpXvqG6_15rsonpath_syntax6parser17ignore_whitespaceINtNtCs6SNw0SRvItZ_4core6option6OptionReEINtNtCshuHlpjMNnjS_3nom8sequence8PrecededNCINvNtNtB1L_9character8complete4charB1D_NtNtB6_5error18InternalParseErrorE0INtNtB1L_10combinator3OptNCIB2_B1D_NvB4_3intB30_E0EEB30_E0B6_:
   25|  4.97k|    move |q: &'a str| {
   26|  4.97k|        inner
   27|  4.97k|            .parse(skip_whitespace(q))
   28|  4.97k|            .map(|(rest, res)| (skip_whitespace(rest), res))
   29|  4.97k|    }
_RNCINvNtCsd77JCpXvqG6_15rsonpath_syntax6parser17ignore_whitespaceINtNtCs6SNw0SRvItZ_4core6option6OptioncEINtNtCshuHlpjMNnjS_3nom10combinator3OptNCINvNtNtB1K_9character8complete4charReNtNtB6_5error18InternalParseErrorE0EB2V_E0B6_:
   25|  44.3k|    move |q: &'a str| {
   26|  44.3k|        inner
   27|  44.3k|            .parse(skip_whitespace(q))
   28|  44.3k|            .map(|(rest, res)| (skip_whitespace(rest), res))
   29|  44.3k|    }
_RNCINvNtCsd77JCpXvqG6_15rsonpath_syntax6parser17ignore_whitespaceNtB6_11LogicalExprNCNvB4_12logical_expr0NtNtB6_5error18InternalParseErrorE0B6_:
   25|  43.8k|    move |q: &'a str| {
   26|  43.8k|        inner
   27|  43.8k|            .parse(skip_whitespace(q))
   28|  43.8k|            .map(|(rest, res)| (skip_whitespace(rest), res))
   29|  43.8k|    }
_RNCINvNtCsd77JCpXvqG6_15rsonpath_syntax6parser17ignore_whitespaceNtB6_11LogicalExprNCNvB4_12logical_exprs0_0NtNtB6_5error18InternalParseErrorE0B6_:
   25|  3.32k|    move |q: &'a str| {
   26|  3.32k|        inner
   27|  3.32k|            .parse(skip_whitespace(q))
   28|  3.32k|            .map(|(rest, res)| (skip_whitespace(rest), res))
   29|  3.32k|    }
_RNCINvNtCsd77JCpXvqG6_15rsonpath_syntax6parser17ignore_whitespaceNtB6_11LogicalExprNCNvB4_12logical_exprs_0NtNtB6_5error18InternalParseErrorE0B6_:
   25|    499|    move |q: &'a str| {
   26|    499|        inner
   27|    499|            .parse(skip_whitespace(q))
   28|    499|            .map(|(rest, res)| (skip_whitespace(rest), res))
   29|    499|    }
_RNCINvNtCsd77JCpXvqG6_15rsonpath_syntax6parser17ignore_whitespaceNtB6_11LogicalExprNCNvB4_15filter_selector0NtNtB6_5error18InternalParseErrorE0B6_:
   25|  26.5k|    move |q: &'a str| {
   26|  26.5k|        inner
   27|  26.5k|            .parse(skip_whitespace(q))
   28|  26.5k|            .map(|(rest, res)| (skip_whitespace(rest), res))
   29|  26.5k|    }
_RNCINvNtCsd77JCpXvqG6_15rsonpath_syntax6parser17ignore_whitespaceNtB6_8SelectorNCNvB4_8selector0NtNtB6_5error18InternalParseErrorE0B6_:
   25|  33.5k|    move |q: &'a str| {
   26|  33.5k|        inner
   27|  33.5k|            .parse(skip_whitespace(q))
   28|  33.5k|            .map(|(rest, res)| (skip_whitespace(rest), res))
   29|  33.5k|    }
_RNCINvNtCsd77JCpXvqG6_15rsonpath_syntax6parser17ignore_whitespaceNtB6_8SelectorNvB4_13name_selectorNtNtB6_5error18InternalParseErrorE0B6_:
   25|  51.1k|    move |q: &'a str| {
   26|  51.1k|        inner
   27|  51.1k|            .parse(skip_whitespace(q))
   28|  51.1k|            .map(|(rest, res)| (skip_whitespace(rest), res))
   29|  51.1k|    }
_RNCINvNtCsd77JCpXvqG6_15rsonpath_syntax6parser17ignore_whitespaceNtB6_8SelectorNvB4_14index_selectorNtNtB6_5error18InternalParseErrorE0B6_:
   25|  39.6k|    move |q: &'a str| {
   26|  39.6k|        inner
   27|  39.6k|            .parse(skip_whitespace(q))
   28|  39.6k|            .map(|(rest, res)| (skip_whitespace(rest), res))
   29|  39.6k|    }
_RNCINvNtCsd77JCpXvqG6_15rsonpath_syntax6parser17ignore_whitespaceNtB6_8SelectorNvB4_14slice_selectorNtNtB6_5error18InternalParseErrorE0B6_:
   25|  47.5k|    move |q: &'a str| {
   26|  47.5k|        inner
   27|  47.5k|            .parse(skip_whitespace(q))
   28|  47.5k|            .map(|(rest, res)| (skip_whitespace(rest), res))
   29|  47.5k|    }
_RNCINvNtCsd77JCpXvqG6_15rsonpath_syntax6parser17ignore_whitespaceNtB6_8SelectorNvB4_17wildcard_selectorNtNtB6_5error18InternalParseErrorE0B6_:
   25|  48.9k|    move |q: &'a str| {
   26|  48.9k|        inner
   27|  48.9k|            .parse(skip_whitespace(q))
   28|  48.9k|            .map(|(rest, res)| (skip_whitespace(rest), res))
   29|  48.9k|    }
_RNCINvNtCsd77JCpXvqG6_15rsonpath_syntax6parser17ignore_whitespaceNtNvB4_12logical_expr9BooleanOpINtNtCshuHlpjMNnjS_3nom6branch6ChoiceTINtNtB1B_8internal3MapNCINvNtNtB1B_5bytes8complete3tagReB30_NtNtB6_5error18InternalParseErrorE0NCINvNtB1B_10combinator5valueB30_B11_B36_B2u_E0EB28_EEB36_E0B6_:
   25|  16.1k|    move |q: &'a str| {
   26|  16.1k|        inner
   27|  16.1k|            .parse(skip_whitespace(q))
   28|  16.1k|            .map(|(rest, res)| (skip_whitespace(rest), res))
   29|  16.1k|    }
_RNCINvNtCsd77JCpXvqG6_15rsonpath_syntax6parser17ignore_whitespaceReNvB4_3intNtNtB6_5error18InternalParseErrorE0B6_:
   25|  8.20k|    move |q: &'a str| {
   26|  8.20k|        inner
   27|  8.20k|            .parse(skip_whitespace(q))
   28|  8.20k|            .map(|(rest, res)| (skip_whitespace(rest), res))
   29|  8.20k|    }
_RNCINvNtCsd77JCpXvqG6_15rsonpath_syntax6parser17ignore_whitespacecNCINvNtNtCshuHlpjMNnjS_3nom9character8complete4charReNtNtB6_5error18InternalParseErrorE0B1T_E0B6_:
   25|  46.0k|    move |q: &'a str| {
   26|  46.0k|        inner
   27|  46.0k|            .parse(skip_whitespace(q))
   28|  46.0k|            .map(|(rest, res)| (skip_whitespace(rest), res))
   29|  46.0k|    }
_RNCINvNtCsd77JCpXvqG6_15rsonpath_syntax6parser24failed_filter_expressionNtB6_10ComparableE0B6_:
  661|    986|    move |q: &str| {
  662|       |        // We want to close the filter, so just try to find the next ']' or ','
  663|    986|        let rest = skip_one(q).trim_start_matches(|x| x != ',' && x != ']');
  664|    986|        fail(kind.clone(), q.len(), q.len() - rest.len(), rest)
  665|    986|    }
_RNCINvNtCsd77JCpXvqG6_15rsonpath_syntax6parser24failed_filter_expressionNtB6_11LogicalExprE0B6_:
  661|  4.90k|    move |q: &str| {
  662|       |        // We want to close the filter, so just try to find the next ']' or ','
  663|  4.90k|        let rest = skip_one(q).trim_start_matches(|x| x != ',' && x != ']');
  664|  4.90k|        fail(kind.clone(), q.len(), q.len() - rest.len(), rest)
  665|  4.90k|    }
_RNCNCINvNtCsd77JCpXvqG6_15rsonpath_syntax6parser14failed_segmentNtB8_7SegmentE00B8_:
  196|  7.45k|        .trim_start_matches(|x| x != '.' && x != '[');
_RNCNCINvNtCsd77JCpXvqG6_15rsonpath_syntax6parser14failed_segmentNtB8_7SegmentE0s_0B8_:
  202|  3.62k|        if error_span.chars().all(|x| [' ', '\n', '\r', '\t'].contains(&x)) {
_RNCNCINvNtCsd77JCpXvqG6_15rsonpath_syntax6parser14failed_segmentNtB8_9SelectorsE00B8_:
  196|  14.9k|        .trim_start_matches(|x| x != '.' && x != '[');
_RNCNCINvNtCsd77JCpXvqG6_15rsonpath_syntax6parser14failed_segmentNtB8_9SelectorsE0s_0B8_:
  202|  9.44k|        if error_span.chars().all(|x| [' ', '\n', '\r', '\t'].contains(&x)) {
_RNCNCINvNtCsd77JCpXvqG6_15rsonpath_syntax6parser17ignore_whitespaceINtNtCs6SNw0SRvItZ_4core6option6OptionReEINtNtCshuHlpjMNnjS_3nom8sequence8PrecededNCINvNtNtB1N_9character8complete4charB1F_NtNtB8_5error18InternalParseErrorE0INtNtB1N_10combinator3OptNCIB4_B1F_NvB6_3intB32_E0EEB32_E00B8_:
   28|  2.12k|            .map(|(rest, res)| (skip_whitespace(rest), res))
_RNCNCINvNtCsd77JCpXvqG6_15rsonpath_syntax6parser17ignore_whitespaceINtNtCs6SNw0SRvItZ_4core6option6OptioncEINtNtCshuHlpjMNnjS_3nom10combinator3OptNCINvNtNtB1M_9character8complete4charReNtNtB8_5error18InternalParseErrorE0EB2X_E00B8_:
   28|  44.3k|            .map(|(rest, res)| (skip_whitespace(rest), res))
_RNCNCINvNtCsd77JCpXvqG6_15rsonpath_syntax6parser17ignore_whitespaceNtB8_11LogicalExprNCNvB6_12logical_expr0NtNtB8_5error18InternalParseErrorE00B8_:
   28|  13.1k|            .map(|(rest, res)| (skip_whitespace(rest), res))
_RNCNCINvNtCsd77JCpXvqG6_15rsonpath_syntax6parser17ignore_whitespaceNtB8_11LogicalExprNCNvB6_12logical_exprs0_0NtNtB8_5error18InternalParseErrorE00B8_:
   28|  2.75k|            .map(|(rest, res)| (skip_whitespace(rest), res))
_RNCNCINvNtCsd77JCpXvqG6_15rsonpath_syntax6parser17ignore_whitespaceNtB8_11LogicalExprNCNvB6_12logical_exprs_0NtNtB8_5error18InternalParseErrorE00B8_:
   28|    268|            .map(|(rest, res)| (skip_whitespace(rest), res))
_RNCNCINvNtCsd77JCpXvqG6_15rsonpath_syntax6parser17ignore_whitespaceNtB8_11LogicalExprNCNvB6_15filter_selector0NtNtB8_5error18InternalParseErrorE00B8_:
   28|  8.40k|            .map(|(rest, res)| (skip_whitespace(rest), res))
_RNCNCINvNtCsd77JCpXvqG6_15rsonpath_syntax6parser17ignore_whitespaceNtB8_8SelectorNCNvB6_8selector0NtNtB8_5error18InternalParseErrorE00B8_:
   28|  8.40k|            .map(|(rest, res)| (skip_whitespace(rest), res))
_RNCNCINvNtCsd77JCpXvqG6_15rsonpath_syntax6parser17ignore_whitespaceNtB8_8SelectorNvB6_13name_selectorNtNtB8_5error18InternalParseErrorE00B8_:
   28|  1.12k|            .map(|(rest, res)| (skip_whitespace(rest), res))
_RNCNCINvNtCsd77JCpXvqG6_15rsonpath_syntax6parser17ignore_whitespaceNtB8_8SelectorNvB6_14index_selectorNtNtB8_5error18InternalParseErrorE00B8_:
   28|  5.45k|            .map(|(rest, res)| (skip_whitespace(rest), res))
_RNCNCINvNtCsd77JCpXvqG6_15rsonpath_syntax6parser17ignore_whitespaceNtB8_8SelectorNvB6_14slice_selectorNtNtB8_5error18InternalParseErrorE00B8_:
   28|  4.04k|            .map(|(rest, res)| (skip_whitespace(rest), res))
_RNCNCINvNtCsd77JCpXvqG6_15rsonpath_syntax6parser17ignore_whitespaceNtB8_8SelectorNvB6_17wildcard_selectorNtNtB8_5error18InternalParseErrorE00B8_:
   28|  1.41k|            .map(|(rest, res)| (skip_whitespace(rest), res))
_RNCNCINvNtCsd77JCpXvqG6_15rsonpath_syntax6parser17ignore_whitespaceNtNvB6_12logical_expr9BooleanOpINtNtCshuHlpjMNnjS_3nom6branch6ChoiceTINtNtB1D_8internal3MapNCINvNtNtB1D_5bytes8complete3tagReB32_NtNtB8_5error18InternalParseErrorE0NCINvNtB1D_10combinator5valueB32_B13_B38_B2w_E0EB2a_EEB38_E00B8_:
   28|  3.82k|            .map(|(rest, res)| (skip_whitespace(rest), res))
_RNCNCINvNtCsd77JCpXvqG6_15rsonpath_syntax6parser17ignore_whitespaceReNvB6_3intNtNtB8_5error18InternalParseErrorE00B8_:
   28|  2.59k|            .map(|(rest, res)| (skip_whitespace(rest), res))
_RNCNCINvNtCsd77JCpXvqG6_15rsonpath_syntax6parser17ignore_whitespacecNCINvNtNtCshuHlpjMNnjS_3nom9character8complete4charReNtNtB8_5error18InternalParseErrorE0B1V_E00B8_:
   28|  6.31k|            .map(|(rest, res)| (skip_whitespace(rest), res))
_RNCNCINvNtCsd77JCpXvqG6_15rsonpath_syntax6parser24failed_filter_expressionNtB8_10ComparableE00B8_:
  663|  2.86k|        let rest = skip_one(q).trim_start_matches(|x| x != ',' && x != ']');
_RNCNCINvNtCsd77JCpXvqG6_15rsonpath_syntax6parser24failed_filter_expressionNtB8_11LogicalExprE00B8_:
  663|  10.3k|        let rest = skip_one(q).trim_start_matches(|x| x != ',' && x != ']');
_RNCNCNvNtCsd77JCpXvqG6_15rsonpath_syntax6parser6string00B7_:
  789|  2.82k|                    let rest = stream.next().map_or("", |(i, _)| &q[i..]);
_RNCNCNvNtCsd77JCpXvqG6_15rsonpath_syntax6parser6string0s_0B7_:
  797|  3.07k|                    let rest = stream.peek().map_or("", |(i, _)| &q[*i..]);
_RNCNvNtCsd77JCpXvqG6_15rsonpath_syntax6parser10comparable0B5_:
  683|  5.64k|        |q| singular_query(q, ctx),
_RNCNvNtCsd77JCpXvqG6_15rsonpath_syntax6parser12filter_query0B5_:
  607|  19.0k|            |q| descendant_segment(q, ctx),
_RNCNvNtCsd77JCpXvqG6_15rsonpath_syntax6parser12filter_querys_0B5_:
  608|  16.9k|            |q| child_segment(q, ctx),
_RNCNvNtCsd77JCpXvqG6_15rsonpath_syntax6parser12logical_expr0B5_:
  445|  43.8k|    let (rest, this_expr) = ignore_whitespace(|q| parse_single(q, ctx))(q)?;
_RNCNvNtCsd77JCpXvqG6_15rsonpath_syntax6parser12logical_exprs0_0B5_:
  464|  3.32k|                let (rest, rhs_expr) = ignore_whitespace(|q| logical_expr(q, ctx))(loop_rest)?;
_RNCNvNtCsd77JCpXvqG6_15rsonpath_syntax6parser12logical_exprs_0B5_:
  459|    499|                let (rest, rhs_expr) = ignore_whitespace(|q| parse_single(q, ctx))(loop_rest)?;
_RNCNvNtCsd77JCpXvqG6_15rsonpath_syntax6parser13child_segment0B5_:
  169|  39.3k|            |q| bracketed_selection(q, ctx),
_RNCNvNtCsd77JCpXvqG6_15rsonpath_syntax6parser15failed_selector0B5_:
  387|  20.6k|    let rest = q.trim_start_matches(|x| x != ',' && x != ']');
_RNCNvNtCsd77JCpXvqG6_15rsonpath_syntax6parser15failed_selectors_0B5_:
  391|  6.15k|    if error_span.chars().all(|x| [' ', '\n', '\r', '\t'].contains(&x)) {
_RNCNvNtCsd77JCpXvqG6_15rsonpath_syntax6parser15filter_selector0B5_:
  409|  26.5k|    into(preceded(char('?'), ignore_whitespace(|q| logical_expr(q, ctx)))).parse(q)
_RNCNvNtCsd77JCpXvqG6_15rsonpath_syntax6parser18descendant_segment0B5_:
  155|  5.62k|                |q| bracketed_selection(q, ctx),
_RNCNvNtCsd77JCpXvqG6_15rsonpath_syntax6parser21member_name_shorthand0B5_:
  265|  8.92k|            fold_many0(name_char, JsonStringBuilder::new, |mut acc, x| {
  266|  8.92k|                acc.push(x);
  267|  8.92k|                acc
  268|  8.92k|            }),
_RNCNvNtCsd77JCpXvqG6_15rsonpath_syntax6parser21member_name_shorthands_0B5_:
  270|  6.16k|        |x| Selectors::one(Selector::Name(x.into())),
_RNCNvNtCsd77JCpXvqG6_15rsonpath_syntax6parser6number0B5_:
  710|  8.44k|    map(float, |f| JsonNumber::from(f).normalize()).parse(q)
_RNCNvNtCsd77JCpXvqG6_15rsonpath_syntax6parser6string0B5_:
  773|  3.28k|    move |q: &str| {
  774|  3.28k|        let mut builder = JsonStringBuilder::new();
  775|  3.28k|        let mut syntax_errors = vec![];
  776|  3.28k|        let mut stream = q.char_indices().peekable();
  777|       |
  778|  26.5k|        while let Some((c_idx, c)) = stream.next() {
  779|  26.1k|            match (c, mode) {
  780|  10.0k|                ('\\', _) => match read_escape_sequence(q.len(), c_idx, &mut stream, mode) {
  781|  2.71k|                    Ok(r) => {
  782|  2.71k|                        builder.push(r);
  783|  2.71k|                    }
  784|  7.30k|                    Err(err) => {
  785|  7.30k|                        syntax_errors.push(err);
  786|  7.30k|                    }
  787|       |                },
  788|       |                ('"', StringParseMode::DoubleQuoted) | ('\'', StringParseMode::SingleQuoted) => {
  789|  2.86k|                    let rest = stream.next().map_or("", |(i, _)| &q[i..]);
  790|  2.86k|                    return if syntax_errors.is_empty() {
  791|  1.95k|                        Ok((rest, builder.finish()))
  792|       |                    } else {
  793|    916|                        Err(nom::Err::Failure(InternalParseError::SyntaxErrors(syntax_errors, rest)))
  794|       |                    };
  795|       |                }
  796|  12.6k|                (..='\u{001F}', _) => {
  797|  3.11k|                    let rest = stream.peek().map_or("", |(i, _)| &q[*i..]);
  798|  3.11k|                    syntax_errors.push(SyntaxError::new(
  799|  3.11k|                        SyntaxErrorKind::InvalidUnescapedCharacter,
  800|  3.11k|                        rest.len() + 1,
  801|       |                        1,
  802|       |                    ))
  803|       |                }
  804|  10.1k|                _ => {
  805|  10.1k|                    builder.push(c);
  806|  10.1k|                }
  807|       |            }
  808|       |        }
  809|       |
  810|    420|        let err_kind = if mode == StringParseMode::SingleQuoted {
  811|    212|            SyntaxErrorKind::MissingClosingSingleQuote
  812|       |        } else {
  813|    208|            SyntaxErrorKind::MissingClosingDoubleQuote
  814|       |        };
  815|    420|        syntax_errors.push(SyntaxError::new(err_kind, 0, 1));
  816|    420|        return Err(nom::Err::Failure(InternalParseError::SyntaxErrors(syntax_errors, "")));
  817|       |
  818|       |        fn read_escape_sequence<I>(
  819|       |            q_len: usize,
  820|       |            c_idx: usize,
  821|       |            chars: &mut Peekable<I>,
  822|       |            mode: StringParseMode,
  823|       |        ) -> std::result::Result<char, SyntaxError>
  824|       |        where
  825|       |            I: Iterator<Item = (usize, char)>,
  826|       |        {
  827|       |            let (i, ctrl) = chars.next().ok_or(SyntaxError::new(
  828|       |                SyntaxErrorKind::InvalidUnescapedCharacter,
  829|       |                q_len - c_idx,
  830|       |                1,
  831|       |            ))?;
  832|       |            match ctrl {
  833|       |                'u' => {
  834|       |                    let raw_c = read_hexadecimal_escape(q_len, i, chars)?;
  835|       |                    match raw_c {
  836|       |                        // High surrogate, start of a UTF-16 pair.
  837|       |                        0xD800..=0xDBFF => {
  838|       |                            let &(_, next) = chars.peek().ok_or(SyntaxError::new(
  839|       |                                SyntaxErrorKind::UnpairedHighSurrogate,
  840|       |                                q_len - c_idx,
  841|       |                                6,
  842|       |                            ))?;
  843|       |                            if next != '\\' {
  844|       |                                return Err(SyntaxError::new(
  845|       |                                    SyntaxErrorKind::UnpairedHighSurrogate,
  846|       |                                    q_len - c_idx,
  847|       |                                    6,
  848|       |                                ));
  849|       |                            }
  850|       |                            chars.next();
  851|       |                            let (i, next) = chars.next().ok_or(SyntaxError::new(
  852|       |                                SyntaxErrorKind::UnpairedHighSurrogate,
  853|       |                                q_len - c_idx,
  854|       |                                6,
  855|       |                            ))?;
  856|       |                            if next != 'u' {
  857|       |                                return Err(SyntaxError::new(
  858|       |                                    SyntaxErrorKind::UnpairedHighSurrogate,
  859|       |                                    q_len - c_idx,
  860|       |                                    6,
  861|       |                                ));
  862|       |                            }
  863|       |                            let low = read_hexadecimal_escape(q_len, i, chars)?;
  864|       |                            match low {
  865|       |                                0xDC00..=0xDFFF => {
  866|       |                                    let n = (((raw_c - 0xD800) << 10) | (low - 0xDC00)) + 0x10000;
  867|       |                                    Ok(char::from_u32(n).expect("high and low surrogate pair is always a valid char"))
  868|       |                                }
  869|       |                                _ => Err(SyntaxError::new(
  870|       |                                    SyntaxErrorKind::UnpairedHighSurrogate,
  871|       |                                    q_len - c_idx,
  872|       |                                    6,
  873|       |                                )),
  874|       |                            }
  875|       |                        }
  876|       |                        // Low surrogate, invalid escape sequence.
  877|       |                        0xDC00..=0xDFFF => Err(SyntaxError::new(
  878|       |                            SyntaxErrorKind::UnpairedLowSurrogate,
  879|       |                            q_len - c_idx,
  880|       |                            6,
  881|       |                        )),
  882|       |                        _ => Ok(char::from_u32(raw_c).expect("invalid values are handled above")),
  883|       |                    }
  884|       |                }
  885|       |                'b' => Ok('\u{0008}'), // U+0008 BS backspace
  886|       |                't' => Ok('\t'),       // U+0009 HT horizontal tab
  887|       |                'n' => Ok('\n'),       // U+000A LF line feed
  888|       |                'f' => Ok('\u{000C}'), // U+000C FF form feed
  889|       |                'r' => Ok('\r'),       // U+000D CR carriage return
  890|       |                '"' if mode == StringParseMode::DoubleQuoted => Ok(ctrl),
  891|       |                '\'' if mode == StringParseMode::SingleQuoted => Ok(ctrl),
  892|       |                '/' | '\\' => Ok(ctrl), // " ' / \ are passed as is
  893|       |                _ => Err(SyntaxError::new(
  894|       |                    SyntaxErrorKind::InvalidEscapeSequence,
  895|       |                    q_len - c_idx,
  896|       |                    2,
  897|       |                )), // no other escape sequences are allowed
  898|       |            }
  899|       |        }
  900|       |
  901|       |        fn read_hexadecimal_escape<I>(
  902|       |            q_len: usize,
  903|       |            c_idx: usize,
  904|       |            chars: &mut Peekable<I>,
  905|       |        ) -> std::result::Result<u32, SyntaxError>
  906|       |        where
  907|       |            I: Iterator<Item = (usize, char)>,
  908|       |        {
  909|       |            let mut x = 0;
  910|       |            for i in 0..4 {
  911|       |                let &(_, c) = chars.peek().ok_or(SyntaxError::new(
  912|       |                    SyntaxErrorKind::InvalidEscapeSequence,
  913|       |                    q_len - c_idx + 1,
  914|       |                    2 + i,
  915|       |                ))?;
  916|       |                let v = match c {
  917|       |                    '0'..='9' => c as u32 - '0' as u32,
  918|       |                    // RFC8259.7-2 The hexadecimal letters A through F can be uppercase or lowercase.
  919|       |                    'a'..='f' => c as u32 - 'a' as u32 + 10,
  920|       |                    'A'..='F' => c as u32 - 'A' as u32 + 10,
  921|       |                    _ => {
  922|       |                        return Err(SyntaxError::new(
  923|       |                            SyntaxErrorKind::InvalidHexDigitInUnicodeEscape,
  924|       |                            q_len - c_idx - i - 1,
  925|       |                            1,
  926|       |                        ))
  927|       |                    }
  928|       |                };
  929|       |                x <<= 4;
  930|       |                x += v;
  931|       |                chars.next();
  932|       |            }
  933|       |            Ok(x)
  934|       |        }
  935|  3.28k|    }
_RNCNvNtCsd77JCpXvqG6_15rsonpath_syntax6parser7segment0B5_:
  143|  25.8k|        |q| descendant_segment(q, ctx),
_RNCNvNtCsd77JCpXvqG6_15rsonpath_syntax6parser7segments_0B5_:
  144|  22.4k|        |q| child_segment(q, ctx),
_RNCNvNtCsd77JCpXvqG6_15rsonpath_syntax6parser8selector0B5_:
  291|  33.5k|        ignore_whitespace(|q| filter_selector(q, ctx)),
_RNCNvNvNtCsd77JCpXvqG6_15rsonpath_syntax6parser12logical_expr12parse_single0B7_:
  478|  14.0k|            let (rest, nested_filter) = cut(|q| logical_expr(q, ctx)).parse(skip_whitespace(rest))?;
_RNCNvNvNtCsd77JCpXvqG6_15rsonpath_syntax6parser21member_name_shorthand10name_first0B7_:
  275|  28.3k|        satisfy(|x| x.is_ascii_alphabetic() || matches!(x, '_' | '\u{0080}'..='\u{D7FF}' | '\u{E000}'..='\u{10FFFF}'))(
_RNCNvNvNtCsd77JCpXvqG6_15rsonpath_syntax6parser21member_name_shorthand9name_char0B7_:
  281|  6.51k|        alt((name_first, satisfy(|x| x.is_ascii_digit()))).parse(q)

_RNvMs_NtCsd77JCpXvqG6_15rsonpath_syntax3strNtB4_17JsonStringBuilder3new:
   40|  9.45k|    pub(crate) fn new() -> Self {
   41|  9.45k|        Self {
   42|  9.45k|            quoted: String::from('"'),
   43|  9.45k|        }
   44|  9.45k|    }
_RNvMs_NtCsd77JCpXvqG6_15rsonpath_syntax3strNtB4_17JsonStringBuilder4push:
   46|  21.8k|    pub(crate) fn push(&mut self, char: char) -> &mut Self {
   47|  21.8k|        self.quoted.push(char);
   48|  21.8k|        self
   49|  21.8k|    }
_RNvMs_NtCsd77JCpXvqG6_15rsonpath_syntax3strNtB4_17JsonStringBuilder6finish:
   51|  8.11k|    pub(crate) fn finish(mut self) -> JsonString {
   52|  8.11k|        self.quoted.push('"');
   53|  8.11k|        JsonString { quoted: self.quoted }
   54|  8.11k|    }
_RNvXs0_NtCsd77JCpXvqG6_15rsonpath_syntax3strNtB5_10JsonStringINtNtCs6SNw0SRvItZ_4core7convert4FromNtB5_17JsonStringBuilderE4from:
   59|  6.16k|    fn from(value: JsonStringBuilder) -> Self {
   60|  6.16k|        value.finish()
   61|  6.16k|    }

