_RNvXNtNtNtCsdwkGxqAIfJE_9arbitrary7foreign4core4boolbNtB8_9Arbitrary9arbitrary:
    5|  30.5k|    fn arbitrary(u: &mut Unstructured<'a>) -> Result<Self> {
    6|  30.5k|        Ok(<u8 as Arbitrary<'a>>::arbitrary(u)? & 1 == 1)
    7|  30.5k|    }

_RNvXNtNtNtCsdwkGxqAIfJE_9arbitrary7foreign4core4charcNtB8_9Arbitrary9arbitrary:
    5|  12.8k|    fn arbitrary(u: &mut Unstructured<'a>) -> Result<Self> {
    6|       |        // The highest unicode code point is 0x11_FFFF
    7|       |        const CHAR_END: u32 = 0x11_0000;
    8|       |        // The size of the surrogate blocks
    9|       |        const SURROGATES_START: u32 = 0xD800;
   10|  12.8k|        let mut c = <u32 as Arbitrary<'a>>::arbitrary(u)? % CHAR_END;
   11|  12.8k|        if let Some(c) = char::from_u32(c) {
   12|  12.5k|            Ok(c)
   13|       |        } else {
   14|       |            // We found a surrogate, wrap and try again
   15|    245|            c -= SURROGATES_START;
   16|    245|            Ok(char::from_u32(c)
   17|    245|                .expect("Generated character should be valid! This is a bug in arbitrary-rs"))
   18|       |        }
   19|  12.8k|    }

_RNvXs1_NtNtNtCsdwkGxqAIfJE_9arbitrary7foreign4core3numhNtBb_9Arbitrary9arbitrary:
   16|  30.5k|                fn arbitrary(u: &mut Unstructured<'a>) -> Result<Self> {
   17|  30.5k|                    let mut buf = [0; mem::size_of::<$ty>()];
   18|  30.5k|                    u.fill_buffer(&mut buf)?;
   19|  30.5k|                    Ok(Self::from_le_bytes(buf))
   20|  30.5k|                }
_RNvXs3_NtNtNtCsdwkGxqAIfJE_9arbitrary7foreign4core3nummNtBb_9Arbitrary9arbitrary:
   16|  12.8k|                fn arbitrary(u: &mut Unstructured<'a>) -> Result<Self> {
   17|  12.8k|                    let mut buf = [0; mem::size_of::<$ty>()];
   18|  12.8k|                    u.fill_buffer(&mut buf)?;
   19|  12.8k|                    Ok(Self::from_le_bytes(buf))
   20|  12.8k|                }
_RNvXs4_NtNtNtCsdwkGxqAIfJE_9arbitrary7foreign4core3numyNtBb_9Arbitrary9arbitrary:
   16|    335|                fn arbitrary(u: &mut Unstructured<'a>) -> Result<Self> {
   17|    335|                    let mut buf = [0; mem::size_of::<$ty>()];
   18|    335|                    u.fill_buffer(&mut buf)?;
   19|    335|                    Ok(Self::from_le_bytes(buf))
   20|    335|                }
_RNvXsc_NtNtNtCsdwkGxqAIfJE_9arbitrary7foreign4core3numdNtBb_9Arbitrary9arbitrary:
   75|    335|                fn arbitrary(u: &mut Unstructured<'a>) -> Result<Self> {
   76|    335|                    Ok(Self::from_bits(<$unsigned as Arbitrary<'a>>::arbitrary(u)?))
   77|    335|                }

_RNvYNtNtCscZPHoD06VRW_17rsonpath_lib_fuzz5query22ArbitraryJsonPathQueryNtCsdwkGxqAIfJE_9arbitrary9Arbitrary19arbitrary_take_restCs3eoZzJAlGP8_21query_fuzz_round_trip:
  216|    883|    fn arbitrary_take_rest(mut u: Unstructured<'a>) -> Result<Self> {
  217|    883|        Self::arbitrary(&mut u)
  218|    883|    }
_RNvYNtNtCscZPHoD06VRW_17rsonpath_lib_fuzz5query22ArbitraryJsonPathQueryNtCsdwkGxqAIfJE_9arbitrary9Arbitrary9size_hintCs3eoZzJAlGP8_21query_fuzz_round_trip:
  320|    883|    fn size_hint(depth: usize) -> (usize, Option<usize>) {
  321|    883|        let _ = depth;
  322|    883|        (0, None)
  323|    883|    }

_RINvMNtCsdwkGxqAIfJE_9arbitrary12unstructuredNtB3_12Unstructured12int_in_rangelECscZPHoD06VRW_17rsonpath_lib_fuzz:
  300|  70.7k|    pub fn int_in_range<T>(&mut self, range: ops::RangeInclusive<T>) -> Result<T>
  301|  70.7k|    where
  302|  70.7k|        T: Int,
  303|       |    {
  304|  70.7k|        let (result, bytes_consumed) = Self::int_in_range_impl(range, self.data.iter().cloned())?;
  305|  70.7k|        self.data = &self.data[bytes_consumed..];
  306|  70.7k|        Ok(result)
  307|  70.7k|    }
_RINvMNtCsdwkGxqAIfJE_9arbitrary12unstructuredNtB3_12Unstructured12int_in_rangexECscZPHoD06VRW_17rsonpath_lib_fuzz:
  300|  10.6k|    pub fn int_in_range<T>(&mut self, range: ops::RangeInclusive<T>) -> Result<T>
  301|  10.6k|    where
  302|  10.6k|        T: Int,
  303|       |    {
  304|  10.6k|        let (result, bytes_consumed) = Self::int_in_range_impl(range, self.data.iter().cloned())?;
  305|  10.6k|        self.data = &self.data[bytes_consumed..];
  306|  10.6k|        Ok(result)
  307|  10.6k|    }
_RINvMNtCsdwkGxqAIfJE_9arbitrary12unstructuredNtB3_12Unstructured14arbitrary_itercECscZPHoD06VRW_17rsonpath_lib_fuzz:
  662|  11.5k|    pub fn arbitrary_iter<'b, ElementType: Arbitrary<'a>>(
  663|  11.5k|        &'b mut self,
  664|  11.5k|    ) -> Result<ArbitraryIter<'a, 'b, ElementType>> {
  665|  11.5k|        Ok(ArbitraryIter {
  666|  11.5k|            u: &mut *self,
  667|  11.5k|            _marker: PhantomData,
  668|  11.5k|        })
  669|  11.5k|    }
_RINvMNtCsdwkGxqAIfJE_9arbitrary12unstructuredNtB3_12Unstructured17int_in_range_impllINtNtNtNtCs6SNw0SRvItZ_4core4iter8adapters6cloned6ClonedINtNtNtB1t_5slice4iter4IterhEEECscZPHoD06VRW_17rsonpath_lib_fuzz:
  309|  70.7k|    fn int_in_range_impl<T>(
  310|  70.7k|        range: ops::RangeInclusive<T>,
  311|  70.7k|        mut bytes: impl Iterator<Item = u8>,
  312|  70.7k|    ) -> Result<(T, usize)>
  313|  70.7k|    where
  314|  70.7k|        T: Int,
  315|       |    {
  316|  70.7k|        let start = *range.start();
  317|  70.7k|        let end = *range.end();
  318|  70.7k|        assert!(
  319|  70.7k|            start <= end,
  320|      0|            "`arbitrary::Unstructured::int_in_range` requires a non-empty range"
  321|       |        );
  322|       |
  323|       |        // When there is only one possible choice, don't waste any entropy from
  324|       |        // the underlying data.
  325|  70.7k|        if start == end {
  326|      0|            return Ok((start, 0));
  327|  70.7k|        }
  328|       |
  329|       |        // From here on out we work with the unsigned representation. All of the
  330|       |        // operations performed below work out just as well whether or not `T`
  331|       |        // is a signed or unsigned integer.
  332|  70.7k|        let start = start.to_unsigned();
  333|  70.7k|        let end = end.to_unsigned();
  334|       |
  335|  70.7k|        let delta = end.wrapping_sub(start);
  336|  70.7k|        debug_assert_ne!(delta, T::Unsigned::ZERO);
  337|       |
  338|       |        // Compute an arbitrary integer offset from the start of the range. We
  339|       |        // do this by consuming `size_of(T)` bytes from the input to create an
  340|       |        // arbitrary integer and then clamping that int into our range bounds
  341|       |        // with a modulo operation.
  342|  70.7k|        let mut arbitrary_int = T::Unsigned::ZERO;
  343|  70.7k|        let mut bytes_consumed: usize = 0;
  344|       |
  345|   133k|        while (bytes_consumed < mem::size_of::<T>())
  346|   133k|            && (delta >> T::Unsigned::from_usize(bytes_consumed * 8)) > T::Unsigned::ZERO
  347|       |        {
  348|  70.7k|            let byte = match bytes.next() {
  349|  8.41k|                None => break,
  350|  62.3k|                Some(b) => b,
  351|       |            };
  352|  62.3k|            bytes_consumed += 1;
  353|       |
  354|       |            // Combine this byte into our arbitrary integer, but avoid
  355|       |            // overflowing the shift for `u8` and `i8`.
  356|  62.3k|            arbitrary_int = if mem::size_of::<T>() == 1 {
  357|      0|                T::Unsigned::from_u8(byte)
  358|       |            } else {
  359|  62.3k|                (arbitrary_int << 8) | T::Unsigned::from_u8(byte)
  360|       |            };
  361|       |        }
  362|       |
  363|  70.7k|        let offset = if delta == T::Unsigned::MAX {
  364|      0|            arbitrary_int
  365|       |        } else {
  366|  70.7k|            arbitrary_int % (delta.checked_add(T::Unsigned::ONE).unwrap())
  367|       |        };
  368|       |
  369|       |        // Finally, we add `start` to our offset from `start` to get the result
  370|       |        // actual value within the range.
  371|  70.7k|        let result = start.wrapping_add(offset);
  372|       |
  373|       |        // And convert back to our maybe-signed representation.
  374|  70.7k|        let result = T::from_unsigned(result);
  375|  70.7k|        debug_assert!(*range.start() <= result);
  376|  70.7k|        debug_assert!(result <= *range.end());
  377|       |
  378|  70.7k|        Ok((result, bytes_consumed))
  379|  70.7k|    }
_RINvMNtCsdwkGxqAIfJE_9arbitrary12unstructuredNtB3_12Unstructured17int_in_range_implxINtNtNtNtCs6SNw0SRvItZ_4core4iter8adapters6cloned6ClonedINtNtNtB1t_5slice4iter4IterhEEECscZPHoD06VRW_17rsonpath_lib_fuzz:
  309|  10.6k|    fn int_in_range_impl<T>(
  310|  10.6k|        range: ops::RangeInclusive<T>,
  311|  10.6k|        mut bytes: impl Iterator<Item = u8>,
  312|  10.6k|    ) -> Result<(T, usize)>
  313|  10.6k|    where
  314|  10.6k|        T: Int,
  315|       |    {
  316|  10.6k|        let start = *range.start();
  317|  10.6k|        let end = *range.end();
  318|  10.6k|        assert!(
  319|  10.6k|            start <= end,
  320|      0|            "`arbitrary::Unstructured::int_in_range` requires a non-empty range"
  321|       |        );
  322|       |
  323|       |        // When there is only one possible choice, don't waste any entropy from
  324|       |        // the underlying data.
  325|  10.6k|        if start == end {
  326|      0|            return Ok((start, 0));
  327|  10.6k|        }
  328|       |
  329|       |        // From here on out we work with the unsigned representation. All of the
  330|       |        // operations performed below work out just as well whether or not `T`
  331|       |        // is a signed or unsigned integer.
  332|  10.6k|        let start = start.to_unsigned();
  333|  10.6k|        let end = end.to_unsigned();
  334|       |
  335|  10.6k|        let delta = end.wrapping_sub(start);
  336|  10.6k|        debug_assert_ne!(delta, T::Unsigned::ZERO);
  337|       |
  338|       |        // Compute an arbitrary integer offset from the start of the range. We
  339|       |        // do this by consuming `size_of(T)` bytes from the input to create an
  340|       |        // arbitrary integer and then clamping that int into our range bounds
  341|       |        // with a modulo operation.
  342|  10.6k|        let mut arbitrary_int = T::Unsigned::ZERO;
  343|  10.6k|        let mut bytes_consumed: usize = 0;
  344|       |
  345|  81.0k|        while (bytes_consumed < mem::size_of::<T>())
  346|  81.0k|            && (delta >> T::Unsigned::from_usize(bytes_consumed * 8)) > T::Unsigned::ZERO
  347|       |        {
  348|  71.0k|            let byte = match bytes.next() {
  349|    606|                None => break,
  350|  70.4k|                Some(b) => b,
  351|       |            };
  352|  70.4k|            bytes_consumed += 1;
  353|       |
  354|       |            // Combine this byte into our arbitrary integer, but avoid
  355|       |            // overflowing the shift for `u8` and `i8`.
  356|  70.4k|            arbitrary_int = if mem::size_of::<T>() == 1 {
  357|      0|                T::Unsigned::from_u8(byte)
  358|       |            } else {
  359|  70.4k|                (arbitrary_int << 8) | T::Unsigned::from_u8(byte)
  360|       |            };
  361|       |        }
  362|       |
  363|  10.6k|        let offset = if delta == T::Unsigned::MAX {
  364|      0|            arbitrary_int
  365|       |        } else {
  366|  10.6k|            arbitrary_int % (delta.checked_add(T::Unsigned::ONE).unwrap())
  367|       |        };
  368|       |
  369|       |        // Finally, we add `start` to our offset from `start` to get the result
  370|       |        // actual value within the range.
  371|  10.6k|        let result = start.wrapping_add(offset);
  372|       |
  373|       |        // And convert back to our maybe-signed representation.
  374|  10.6k|        let result = T::from_unsigned(result);
  375|  10.6k|        debug_assert!(*range.start() <= result);
  376|  10.6k|        debug_assert!(result <= *range.end());
  377|       |
  378|  10.6k|        Ok((result, bytes_consumed))
  379|  10.6k|    }
_RINvMNtCsdwkGxqAIfJE_9arbitrary12unstructuredNtB3_12Unstructured9arbitrarydECscZPHoD06VRW_17rsonpath_lib_fuzz:
  168|    335|    pub fn arbitrary<A>(&mut self) -> Result<A>
  169|    335|    where
  170|    335|        A: Arbitrary<'a>,
  171|       |    {
  172|    335|        <A as Arbitrary<'a>>::arbitrary(self)
  173|    335|    }
_RNvXs_NtCsdwkGxqAIfJE_9arbitrary12unstructuredINtB4_13ArbitraryItercENtNtNtNtCs6SNw0SRvItZ_4core4iter6traits8iterator8Iterator4nextCscZPHoD06VRW_17rsonpath_lib_fuzz:
  776|  24.4k|    fn next(&mut self) -> Option<Result<ElementType>> {
  777|  24.4k|        let keep_going = self.u.arbitrary().unwrap_or(false);
  778|  24.4k|        if keep_going {
  779|  12.8k|            Some(Arbitrary::arbitrary(self.u))
  780|       |        } else {
  781|  11.5k|            None
  782|       |        }
  783|  24.4k|    }
_RINvMNtCsdwkGxqAIfJE_9arbitrary12unstructuredNtB3_12Unstructured12int_in_rangejEB5_:
  300|  23.0k|    pub fn int_in_range<T>(&mut self, range: ops::RangeInclusive<T>) -> Result<T>
  301|  23.0k|    where
  302|  23.0k|        T: Int,
  303|       |    {
  304|  23.0k|        let (result, bytes_consumed) = Self::int_in_range_impl(range, self.data.iter().cloned())?;
  305|  23.0k|        self.data = &self.data[bytes_consumed..];
  306|  23.0k|        Ok(result)
  307|  23.0k|    }
_RINvMNtCsdwkGxqAIfJE_9arbitrary12unstructuredNtB3_12Unstructured17int_in_range_impljINtNtNtNtCs6SNw0SRvItZ_4core4iter8adapters6cloned6ClonedINtNtNtB1t_5slice4iter4IterhEEEB5_:
  309|  23.0k|    fn int_in_range_impl<T>(
  310|  23.0k|        range: ops::RangeInclusive<T>,
  311|  23.0k|        mut bytes: impl Iterator<Item = u8>,
  312|  23.0k|    ) -> Result<(T, usize)>
  313|  23.0k|    where
  314|  23.0k|        T: Int,
  315|       |    {
  316|  23.0k|        let start = *range.start();
  317|  23.0k|        let end = *range.end();
  318|  23.0k|        assert!(
  319|  23.0k|            start <= end,
  320|      0|            "`arbitrary::Unstructured::int_in_range` requires a non-empty range"
  321|       |        );
  322|       |
  323|       |        // When there is only one possible choice, don't waste any entropy from
  324|       |        // the underlying data.
  325|  23.0k|        if start == end {
  326|      0|            return Ok((start, 0));
  327|  23.0k|        }
  328|       |
  329|       |        // From here on out we work with the unsigned representation. All of the
  330|       |        // operations performed below work out just as well whether or not `T`
  331|       |        // is a signed or unsigned integer.
  332|  23.0k|        let start = start.to_unsigned();
  333|  23.0k|        let end = end.to_unsigned();
  334|       |
  335|  23.0k|        let delta = end.wrapping_sub(start);
  336|  23.0k|        debug_assert_ne!(delta, T::Unsigned::ZERO);
  337|       |
  338|       |        // Compute an arbitrary integer offset from the start of the range. We
  339|       |        // do this by consuming `size_of(T)` bytes from the input to create an
  340|       |        // arbitrary integer and then clamping that int into our range bounds
  341|       |        // with a modulo operation.
  342|  23.0k|        let mut arbitrary_int = T::Unsigned::ZERO;
  343|  23.0k|        let mut bytes_consumed: usize = 0;
  344|       |
  345|  43.3k|        while (bytes_consumed < mem::size_of::<T>())
  346|  43.3k|            && (delta >> T::Unsigned::from_usize(bytes_consumed * 8)) > T::Unsigned::ZERO
  347|       |        {
  348|  23.0k|            let byte = match bytes.next() {
  349|  2.76k|                None => break,
  350|  20.2k|                Some(b) => b,
  351|       |            };
  352|  20.2k|            bytes_consumed += 1;
  353|       |
  354|       |            // Combine this byte into our arbitrary integer, but avoid
  355|       |            // overflowing the shift for `u8` and `i8`.
  356|  20.2k|            arbitrary_int = if mem::size_of::<T>() == 1 {
  357|      0|                T::Unsigned::from_u8(byte)
  358|       |            } else {
  359|  20.2k|                (arbitrary_int << 8) | T::Unsigned::from_u8(byte)
  360|       |            };
  361|       |        }
  362|       |
  363|  23.0k|        let offset = if delta == T::Unsigned::MAX {
  364|      0|            arbitrary_int
  365|       |        } else {
  366|  23.0k|            arbitrary_int % (delta.checked_add(T::Unsigned::ONE).unwrap())
  367|       |        };
  368|       |
  369|       |        // Finally, we add `start` to our offset from `start` to get the result
  370|       |        // actual value within the range.
  371|  23.0k|        let result = start.wrapping_add(offset);
  372|       |
  373|       |        // And convert back to our maybe-signed representation.
  374|  23.0k|        let result = T::from_unsigned(result);
  375|  23.0k|        debug_assert!(*range.start() <= result);
  376|  23.0k|        debug_assert!(result <= *range.end());
  377|       |
  378|  23.0k|        Ok((result, bytes_consumed))
  379|  23.0k|    }
_RINvMNtCsdwkGxqAIfJE_9arbitrary12unstructuredNtB3_12Unstructured9arbitrarybEB5_:
  168|  30.5k|    pub fn arbitrary<A>(&mut self) -> Result<A>
  169|  30.5k|    where
  170|  30.5k|        A: Arbitrary<'a>,
  171|       |    {
  172|  30.5k|        <A as Arbitrary<'a>>::arbitrary(self)
  173|  30.5k|    }
_RNvMNtCsdwkGxqAIfJE_9arbitrary12unstructuredNtB2_12Unstructured11fill_buffer:
  577|  43.7k|    pub fn fill_buffer(&mut self, buffer: &mut [u8]) -> Result<()> {
  578|  43.7k|        let n = std::cmp::min(buffer.len(), self.data.len());
  579|  43.7k|        buffer[..n].copy_from_slice(&self.data[..n]);
  580|  43.7k|        for byte in buffer[n..].iter_mut() {
  581|  4.89k|            *byte = 0;
  582|  4.89k|        }
  583|  43.7k|        self.data = &self.data[n..];
  584|  43.7k|        Ok(())
  585|  43.7k|    }
_RNvMNtCsdwkGxqAIfJE_9arbitrary12unstructuredNtB2_12Unstructured3new:
   86|    883|    pub fn new(data: &'a [u8]) -> Self {
   87|    883|        Unstructured { data }
   88|    883|    }
_RNvXs4_NtCsdwkGxqAIfJE_9arbitrary12unstructuredmNtB5_3Int10from_usize:
  881|   133k|                fn from_usize(u: usize) -> Self {
  882|   133k|                    u as Self
  883|   133k|                }
_RNvXs4_NtCsdwkGxqAIfJE_9arbitrary12unstructuredmNtB5_3Int11checked_add:
  885|  70.7k|                fn checked_add(self, rhs: Self) -> Option<Self> {
  886|  70.7k|                    <$ty>::checked_add(self, rhs)
  887|  70.7k|                }
_RNvXs4_NtCsdwkGxqAIfJE_9arbitrary12unstructuredmNtB5_3Int12wrapping_add:
  889|  70.7k|                fn wrapping_add(self, rhs: Self) -> Self {
  890|  70.7k|                    <$ty>::wrapping_add(self, rhs)
  891|  70.7k|                }
_RNvXs4_NtCsdwkGxqAIfJE_9arbitrary12unstructuredmNtB5_3Int12wrapping_sub:
  893|  70.7k|                fn wrapping_sub(self, rhs: Self) -> Self {
  894|  70.7k|                    <$ty>::wrapping_sub(self, rhs)
  895|  70.7k|                }
_RNvXs4_NtCsdwkGxqAIfJE_9arbitrary12unstructuredmNtB5_3Int7from_u8:
  877|  62.3k|                fn from_u8(b: u8) -> Self {
  878|  62.3k|                    b as Self
  879|  62.3k|                }
_RNvXs5_NtCsdwkGxqAIfJE_9arbitrary12unstructuredyNtB5_3Int10from_usize:
  881|  81.0k|                fn from_usize(u: usize) -> Self {
  882|  81.0k|                    u as Self
  883|  81.0k|                }
_RNvXs5_NtCsdwkGxqAIfJE_9arbitrary12unstructuredyNtB5_3Int11checked_add:
  885|  10.6k|                fn checked_add(self, rhs: Self) -> Option<Self> {
  886|  10.6k|                    <$ty>::checked_add(self, rhs)
  887|  10.6k|                }
_RNvXs5_NtCsdwkGxqAIfJE_9arbitrary12unstructuredyNtB5_3Int12wrapping_add:
  889|  10.6k|                fn wrapping_add(self, rhs: Self) -> Self {
  890|  10.6k|                    <$ty>::wrapping_add(self, rhs)
  891|  10.6k|                }
_RNvXs5_NtCsdwkGxqAIfJE_9arbitrary12unstructuredyNtB5_3Int12wrapping_sub:
  893|  10.6k|                fn wrapping_sub(self, rhs: Self) -> Self {
  894|  10.6k|                    <$ty>::wrapping_sub(self, rhs)
  895|  10.6k|                }
_RNvXs5_NtCsdwkGxqAIfJE_9arbitrary12unstructuredyNtB5_3Int7from_u8:
  877|  70.4k|                fn from_u8(b: u8) -> Self {
  878|  70.4k|                    b as Self
  879|  70.4k|                }
_RNvXs7_NtCsdwkGxqAIfJE_9arbitrary12unstructuredjNtB5_3Int10from_usize:
  881|  43.3k|                fn from_usize(u: usize) -> Self {
  882|  43.3k|                    u as Self
  883|  43.3k|                }
_RNvXs7_NtCsdwkGxqAIfJE_9arbitrary12unstructuredjNtB5_3Int11checked_add:
  885|  23.0k|                fn checked_add(self, rhs: Self) -> Option<Self> {
  886|  23.0k|                    <$ty>::checked_add(self, rhs)
  887|  23.0k|                }
_RNvXs7_NtCsdwkGxqAIfJE_9arbitrary12unstructuredjNtB5_3Int11to_unsigned:
  897|  46.0k|                fn to_unsigned(self) -> Self::Unsigned {
  898|  46.0k|                    self as $unsigned_ty
  899|  46.0k|                }
_RNvXs7_NtCsdwkGxqAIfJE_9arbitrary12unstructuredjNtB5_3Int12wrapping_add:
  889|  23.0k|                fn wrapping_add(self, rhs: Self) -> Self {
  890|  23.0k|                    <$ty>::wrapping_add(self, rhs)
  891|  23.0k|                }
_RNvXs7_NtCsdwkGxqAIfJE_9arbitrary12unstructuredjNtB5_3Int12wrapping_sub:
  893|  23.0k|                fn wrapping_sub(self, rhs: Self) -> Self {
  894|  23.0k|                    <$ty>::wrapping_sub(self, rhs)
  895|  23.0k|                }
_RNvXs7_NtCsdwkGxqAIfJE_9arbitrary12unstructuredjNtB5_3Int13from_unsigned:
  901|  23.0k|                fn from_unsigned(unsigned: $unsigned_ty) -> Self {
  902|  23.0k|                    unsigned as Self
  903|  23.0k|                }
_RNvXs7_NtCsdwkGxqAIfJE_9arbitrary12unstructuredjNtB5_3Int7from_u8:
  877|  20.2k|                fn from_u8(b: u8) -> Self {
  878|  20.2k|                    b as Self
  879|  20.2k|                }
_RNvXsa_NtCsdwkGxqAIfJE_9arbitrary12unstructuredlNtB5_3Int11to_unsigned:
  897|   141k|                fn to_unsigned(self) -> Self::Unsigned {
  898|   141k|                    self as $unsigned_ty
  899|   141k|                }
_RNvXsa_NtCsdwkGxqAIfJE_9arbitrary12unstructuredlNtB5_3Int13from_unsigned:
  901|  70.7k|                fn from_unsigned(unsigned: $unsigned_ty) -> Self {
  902|  70.7k|                    unsigned as Self
  903|  70.7k|                }
_RNvXsb_NtCsdwkGxqAIfJE_9arbitrary12unstructuredxNtB5_3Int11to_unsigned:
  897|  21.2k|                fn to_unsigned(self) -> Self::Unsigned {
  898|  21.2k|                    self as $unsigned_ty
  899|  21.2k|                }
_RNvXsb_NtCsdwkGxqAIfJE_9arbitrary12unstructuredxNtB5_3Int13from_unsigned:
  901|  10.6k|                fn from_unsigned(unsigned: $unsigned_ty) -> Self {
  902|  10.6k|                    unsigned as Self
  903|  10.6k|                }

LLVMFuzzerInitialize:
  316|      2|            pub extern "C" fn LLVMFuzzerInitialize(_argc: *const isize, _argv: *const *const *const u8) -> isize {
  317|      2|                $crate::initialize(_argc, _argv);
  318|       |
  319|       |                // Supplied init code
  320|       |                $init;
  321|      2|                0
  322|      2|            }
_RNvNvCs3eoZzJAlGP8_21query_fuzz_round_trip1__19___libfuzzer_sys_run:
  368|    883|            fn __libfuzzer_sys_run($data: $dty) -> $rty {
  369|       |                $body
  370|    883|            }
rust_fuzzer_test_input:
  325|    883|            pub extern "C" fn rust_fuzzer_test_input(bytes: &[u8]) -> i32 {
  326|       |                use $crate::arbitrary::{Arbitrary, Unstructured};
  327|       |
  328|       |                // Early exit if we don't have enough bytes for the `Arbitrary`
  329|       |                // implementation. This helps the fuzzer avoid exploring all the
  330|       |                // different not-enough-input-bytes paths inside the `Arbitrary`
  331|       |                // implementation. Additionally, it exits faster, letting the fuzzer
  332|       |                // get to longer inputs that actually lead to interesting executions
  333|       |                // quicker.
  334|    883|                if bytes.len() < <$dty as Arbitrary>::size_hint(0).0 {
  335|      0|                    return -1;
  336|    883|                }
  337|       |
  338|    883|                let mut u = Unstructured::new(bytes);
  339|    883|                let data = <$dty as Arbitrary>::arbitrary_take_rest(u);
  340|       |
  341|       |                // When `RUST_LIBFUZZER_DEBUG_PATH` is set, write the debug
  342|       |                // formatting of the input to that file. This is only intended for
  343|       |                // `cargo fuzz`'s use!
  344|       |
  345|       |                // `RUST_LIBFUZZER_DEBUG_PATH` is set in initialization.
  346|    883|                if let Some(path) = $crate::rust_libfuzzer_debug_path() {
  347|       |                    use std::io::Write;
  348|      0|                    let mut file = std::fs::File::create(path)
  349|      0|                        .expect("failed to create `RUST_LIBFUZZER_DEBUG_PATH` file");
  350|      0|                    (match data {
  351|      0|                        Ok(data) => writeln!(&mut file, "{:#?}", data),
  352|      0|                        Err(err) => writeln!(&mut file, "Arbitrary Error: {}", err),
  353|       |                    })
  354|      0|                    .expect("failed to write to `RUST_LIBFUZZER_DEBUG_PATH` file");
  355|      0|                    return -1;
  356|    883|                }
  357|       |
  358|    883|                let data = match data {
  359|    883|                    Ok(d) => d,
  360|      0|                    Err(_) => return -1,
  361|       |                };
  362|       |
  363|    883|                let result = ::libfuzzer_sys::Corpus::from(__libfuzzer_sys_run(data));
  364|    883|                result.to_libfuzzer_code()
  365|    883|            }
LLVMFuzzerTestOneInput:
   59|    883|pub unsafe fn test_input_wrap(data: *const u8, size: usize) -> i32 {
   60|    883|    let test_input = ::std::panic::catch_unwind(|| {
   61|       |        let data_slice = ::std::slice::from_raw_parts(data, size);
   62|       |        rust_fuzzer_test_input(data_slice)
   63|       |    });
   64|       |
   65|    883|    match test_input {
   66|    883|        Ok(i) => i,
   67|       |        Err(_) => {
   68|       |            // hopefully the custom panic hook will be called before and abort the
   69|       |            // process before the stack frames are unwinded.
   70|      0|            ::std::process::abort();
   71|       |        }
   72|       |    }
   73|    883|}
_RNCNvCsbQBapRMNkeo_13libfuzzer_sys15test_input_wrap0B3_:
   60|    883|    let test_input = ::std::panic::catch_unwind(|| {
   61|    883|        let data_slice = ::std::slice::from_raw_parts(data, size);
   62|    883|        rust_fuzzer_test_input(data_slice)
   63|    883|    });
_RNCNvCsbQBapRMNkeo_13libfuzzer_sys25rust_libfuzzer_debug_path0B3_:
   78|      1|    RUST_LIBFUZZER_DEBUG_PATH.get_or_init(|| std::env::var("RUST_LIBFUZZER_DEBUG_PATH").ok())
_RNvCsbQBapRMNkeo_13libfuzzer_sys10initialize:
   82|      2|pub fn initialize(_argc: *const isize, _argv: *const *const *const u8) -> isize {
   83|       |    // Registers a panic hook that aborts the process before unwinding.
   84|       |    // It is useful to abort before unwinding so that the fuzzer will then be
   85|       |    // able to analyse the process stack frames to tell different bugs appart.
   86|       |    //
   87|       |    // HACK / FIXME: it would be better to use `-C panic=abort` but it's currently
   88|       |    // impossible to build code using compiler plugins with this flag.
   89|       |    // We will be able to remove this code when
   90|       |    // https://github.com/rust-lang/cargo/issues/5423 is fixed.
   91|      2|    let default_hook = std::panic::take_hook();
   92|      2|    std::panic::set_hook(Box::new(move |panic_info| {
   93|       |        default_hook(panic_info);
   94|       |        std::process::abort();
   95|       |    }));
   96|      2|    0
   97|      2|}
_RNvCsbQBapRMNkeo_13libfuzzer_sys25rust_libfuzzer_debug_path:
   76|    883|pub fn rust_libfuzzer_debug_path() -> &'static Option<String> {
   77|       |    static RUST_LIBFUZZER_DEBUG_PATH: OnceLock<Option<String>> = OnceLock::new();
   78|    883|    RUST_LIBFUZZER_DEBUG_PATH.get_or_init(|| std::env::var("RUST_LIBFUZZER_DEBUG_PATH").ok())
   79|    883|}
_RNvMs_CsbQBapRMNkeo_13libfuzzer_sysNtB4_6Corpus17to_libfuzzer_code:
   40|    883|    pub fn to_libfuzzer_code(self) -> i32 {
   41|    883|        match self {
   42|    883|            Corpus::Keep => 0,
   43|      0|            Corpus::Reject => -1,
   44|       |        }
   45|    883|    }
_RNvXCsbQBapRMNkeo_13libfuzzer_sysNtB2_6CorpusINtNtCs6SNw0SRvItZ_4core7convert4FromuE4from:
   30|    883|    fn from(_: ()) -> Self {
   31|    883|        Self::Keep
   32|    883|    }

_RINvNtCsaZdo92nHnrg_3nom6branch3altTINtNtB4_8internal3MapNCINvNtNtB4_5bytes8complete3tagReB1o_NtNtCs4qtBjdjJOwX_15rsonpath_syntax5error18InternalParseErrorE0NCINvNtB4_10combinator5valueB1o_NtB1y_12ComparisonOpB1u_BT_E0EBy_By_By_IBz_NCINvNtNtB4_9character8complete4charB1o_B1u_E0NCIB2y_B1o_B31_B1u_B3I_E0EB3E_EEB1y_:
   41|  7.44k|pub fn alt<List>(l: List) -> Choice<List> {
   42|  7.44k|  Choice { parser: l }
   43|  7.44k|}
_RINvNtCsaZdo92nHnrg_3nom6branch3altTINtNtB4_8internal3MapNCINvNtNtB4_5bytes8complete3tagReB1o_NtNtCs4qtBjdjJOwX_15rsonpath_syntax5error18InternalParseErrorE0NCINvNtB4_10combinator5valueB1o_NtNvNtB1y_6parser12logical_expr9BooleanOpB1u_BT_E0EBy_EEB1y_:
   41|  12.1k|pub fn alt<List>(l: List) -> Choice<List> {
   42|  12.1k|  Choice { parser: l }
   43|  12.1k|}
_RINvNtCsaZdo92nHnrg_3nom6branch3altTINtNtB4_8internal3MapNCINvNtNtB4_9character8complete4charReNtNtCs4qtBjdjJOwX_15rsonpath_syntax5error18InternalParseErrorE0NCINvNtB4_10combinator5valueB1t_NtNtB1z_6parser16RootSelectorTypeB1v_BT_E0EBy_EEB1z_:
   41|  7.27k|pub fn alt<List>(l: List) -> Choice<List> {
   42|  7.27k|  Choice { parser: l }
   43|  7.27k|}
_RINvNtCsaZdo92nHnrg_3nom6branch3altTINtNtB4_8internal3MapNvNtCs4qtBjdjJOwX_15rsonpath_syntax6parser17wildcard_selectorNvMsq_BX_NtBX_9Selectors3oneENvBV_21member_name_shorthandNCINvBV_14failed_segmentB21_E0EEBX_:
   41|  18.2k|pub fn alt<List>(l: List) -> Choice<List> {
   42|  18.2k|  Choice { parser: l }
   43|  18.2k|}
_RINvNtCsaZdo92nHnrg_3nom6branch3altTINtNtB4_8internal4IntoNvNtCs4qtBjdjJOwX_15rsonpath_syntax6parser6numberNtBY_7LiteralNtNtBY_5error18InternalParseErrorEIBz_NvBW_14string_literalB1H_B1U_EINtBB_3MapNCINvNtNtB4_5bytes8complete3tagReB3F_B1U_E0NCINvNtB4_10combinator5valueB3F_B1H_B1U_B3a_E0EB30_B30_EEBY_:
   41|  12.2k|pub fn alt<List>(l: List) -> Choice<List> {
   42|  12.2k|  Choice { parser: l }
   43|  12.2k|}
_RINvNtCsaZdo92nHnrg_3nom6branch3altTINtNtB4_8internal4IntoNvNtCs4qtBjdjJOwX_15rsonpath_syntax6parser7literalNtBY_10ComparableNtNtBY_5error18InternalParseErrorENCNvBW_10comparable0NCINvBW_24failed_filter_expressionB1I_E0EEBY_:
   41|  4.77k|pub fn alt<List>(l: List) -> Choice<List> {
   42|  4.77k|  Choice { parser: l }
   43|  4.77k|}
_RINvNtCsaZdo92nHnrg_3nom6branch3altTINtNtB4_8sequence8PrecededNCINvNtNtB4_9character8complete4charReNtNtCs4qtBjdjJOwX_15rsonpath_syntax5error18InternalParseErrorE0INvB13_6digit1B1y_B1A_EEB2B_EEB1E_:
   41|  29.7k|pub fn alt<List>(l: List) -> Choice<List> {
   42|  29.7k|  Choice { parser: l }
   43|  29.7k|}
_RINvNtCsaZdo92nHnrg_3nom6branch3altTINtNtB4_8sequence8PrecededNCINvNtNtB4_9character8complete4charReNtNtCs4qtBjdjJOwX_15rsonpath_syntax5error18InternalParseErrorE0NCNvNtB1E_6parser6string0EBy_EEB1E_:
   41|  41.0k|pub fn alt<List>(l: List) -> Choice<List> {
   42|  41.0k|  Choice { parser: l }
   43|  41.0k|}
_RINvNtCsaZdo92nHnrg_3nom6branch3altTINtNtB4_8sequence8PrecededNCINvNtNtB4_9character8complete4charReNtNtCs4qtBjdjJOwX_15rsonpath_syntax5error18InternalParseErrorE0NvNvNtB1E_6parser5float10base_floatEB2B_EEB1E_:
   41|  12.2k|pub fn alt<List>(l: List) -> Choice<List> {
   42|  12.2k|  Choice { parser: l }
   43|  12.2k|}
_RINvNtCsaZdo92nHnrg_3nom6branch3altTNCINvNtCs4qtBjdjJOwX_15rsonpath_syntax6parser17ignore_whitespaceNtBF_8SelectorNvBD_13name_selectorNtNtBF_5error18InternalParseErrorE0NCIBB_B1A_NvBD_17wildcard_selectorB28_E0NCIBB_B1A_NvBD_14slice_selectorB28_E0NCIBB_B1A_NvBD_14index_selectorB28_E0NCIBB_B1A_NCNvBD_8selector0B28_E0NvBD_15failed_selectorEEBF_:
   41|  29.7k|pub fn alt<List>(l: List) -> Choice<List> {
   42|  29.7k|  Choice { parser: l }
   43|  29.7k|}
_RINvNtCsaZdo92nHnrg_3nom6branch3altTNCINvNtNtB4_9character8complete4charReNtNtCs4qtBjdjJOwX_15rsonpath_syntax5error18InternalParseErrorE0By_EEB1e_:
   41|  12.2k|pub fn alt<List>(l: List) -> Choice<List> {
   42|  12.2k|  Choice { parser: l }
   43|  12.2k|}
_RINvNtCsaZdo92nHnrg_3nom6branch3altTNCNvNtCs4qtBjdjJOwX_15rsonpath_syntax6parser12filter_query0NCBA_s_0NCINvBC_28failed_segment_within_filterNtBE_7SegmentE0EEBE_:
   41|  18.9k|pub fn alt<List>(l: List) -> Choice<List> {
   42|  18.9k|  Choice { parser: l }
   43|  18.9k|}
_RINvNtCsaZdo92nHnrg_3nom6branch3altTNCNvNtCs4qtBjdjJOwX_15rsonpath_syntax6parser13child_segment0INtNtB4_8sequence8PrecededNCINvNtNtB4_9character8complete4charReNtNtBE_5error18InternalParseErrorE0INtNtB4_10combinator3CutINtB2_6ChoiceTINtNtB4_8internal3MapNvBC_17wildcard_selectorNvMsq_BE_NtBE_9Selectors3oneENvBC_21member_name_shorthandNCINvBC_14failed_segmentB4B_E0EEEEEEBE_:
   41|  18.2k|pub fn alt<List>(l: List) -> Choice<List> {
   42|  18.2k|  Choice { parser: l }
   43|  18.2k|}
_RINvNtCsaZdo92nHnrg_3nom6branch3altTNCNvNtCs4qtBjdjJOwX_15rsonpath_syntax6parser18descendant_segment0INtNtB4_8internal3MapNvBC_17wildcard_selectorNvMsq_BE_NtBE_9Selectors3oneENvBC_21member_name_shorthandNCINvBC_14failed_segmentB2t_E0EEBE_:
   41|  21.8k|pub fn alt<List>(l: List) -> Choice<List> {
   42|  21.8k|  Choice { parser: l }
   43|  21.8k|}
_RINvNtCsaZdo92nHnrg_3nom6branch3altTNCNvNtCs4qtBjdjJOwX_15rsonpath_syntax6parser7segment0NCBA_s_0NCINvBC_14failed_segmentNtBE_7SegmentE0EEBE_:
   41|  2.96k|pub fn alt<List>(l: List) -> Choice<List> {
   42|  2.96k|  Choice { parser: l }
   43|  2.96k|}
_RINvXs1_NtCsaZdo92nHnrg_3nom6branchINtB6_6ChoiceTINtNtB8_8internal3MapNCINvNtNtB8_5bytes8complete3tagReB1B_NtNtCs4qtBjdjJOwX_15rsonpath_syntax5error18InternalParseErrorE0NCINvNtB8_10combinator5valueB1B_NtNvNtB1L_6parser12logical_expr9BooleanOpB1H_B16_E0EBL_EEINtBO_6ParserB1B_E7processINtBO_7OutputMNtBO_4EmitB4N_NtBO_9StreamingEEB1L_:
  127|  12.1k|      fn process<OM: crate::OutputMode>(
  128|  12.1k|        &mut self,
  129|  12.1k|        input: Input,
  130|  12.1k|      ) -> crate::PResult<OM, Input, Self::Output, Self::Error> {
  131|  12.1k|        match self.parser.0.process::<OM>(input.clone()) {
  132|  1.69k|          Ok(res) => Ok(res),
  133|      0|          Err(Err::Failure(e))=> Err(Err::Failure(e)),
  134|      0|          Err(Err::Incomplete(i))=> Err(Err::Incomplete(i)),
  135|  10.4k|          Err(Err::Error(e)) => alt_trait_inner!(1, self, input, e, $($id)+),
  136|       |        }
  137|  12.1k|      }
_RINvXs1_NtCsaZdo92nHnrg_3nom6branchINtB6_6ChoiceTINtNtB8_8internal3MapNCINvNtNtB8_9character8complete4charReNtNtCs4qtBjdjJOwX_15rsonpath_syntax5error18InternalParseErrorE0NCINvNtB8_10combinator5valueB1G_NtNtB1M_6parser16RootSelectorTypeB1I_B16_E0EBL_EEINtBO_6ParserB1G_E7processINtBO_7OutputMNtBO_4EmitB4G_NtBO_9StreamingEEB1M_:
  127|  7.27k|      fn process<OM: crate::OutputMode>(
  128|  7.27k|        &mut self,
  129|  7.27k|        input: Input,
  130|  7.27k|      ) -> crate::PResult<OM, Input, Self::Output, Self::Error> {
  131|  7.27k|        match self.parser.0.process::<OM>(input.clone()) {
  132|  3.62k|          Ok(res) => Ok(res),
  133|      0|          Err(Err::Failure(e))=> Err(Err::Failure(e)),
  134|      0|          Err(Err::Incomplete(i))=> Err(Err::Incomplete(i)),
  135|  3.64k|          Err(Err::Error(e)) => alt_trait_inner!(1, self, input, e, $($id)+),
  136|       |        }
  137|  7.27k|      }
_RINvXs1_NtCsaZdo92nHnrg_3nom6branchINtB6_6ChoiceTINtNtB8_8sequence8PrecededNCINvNtNtB8_9character8complete4charReNtNtCs4qtBjdjJOwX_15rsonpath_syntax5error18InternalParseErrorE0NCNvNtB1R_6parser6string0EBL_EEINtNtB8_8internal6ParserB1L_E7processINtB3m_7OutputMNtB3m_4EmitB49_NtB3m_9StreamingEEB1R_:
  127|  41.0k|      fn process<OM: crate::OutputMode>(
  128|  41.0k|        &mut self,
  129|  41.0k|        input: Input,
  130|  41.0k|      ) -> crate::PResult<OM, Input, Self::Output, Self::Error> {
  131|  41.0k|        match self.parser.0.process::<OM>(input.clone()) {
  132|  11.0k|          Ok(res) => Ok(res),
  133|      0|          Err(Err::Failure(e))=> Err(Err::Failure(e)),
  134|      0|          Err(Err::Incomplete(i))=> Err(Err::Incomplete(i)),
  135|  29.9k|          Err(Err::Error(e)) => alt_trait_inner!(1, self, input, e, $($id)+),
  136|       |        }
  137|  41.0k|      }
_RINvXs2_NtCsaZdo92nHnrg_3nom6branchINtB6_6ChoiceTINtNtB8_8internal4IntoNvNtCs4qtBjdjJOwX_15rsonpath_syntax6parser7literalNtB1b_10ComparableNtNtB1b_5error18InternalParseErrorENCNvB19_10comparable0NCINvB19_24failed_filter_expressionB1V_E0EEINtBO_6ParserReE7processINtBO_7OutputMNtBO_4EmitB4q_NtBO_9StreamingEEB1b_:
  127|  4.77k|      fn process<OM: crate::OutputMode>(
  128|  4.77k|        &mut self,
  129|  4.77k|        input: Input,
  130|  4.77k|      ) -> crate::PResult<OM, Input, Self::Output, Self::Error> {
  131|  4.77k|        match self.parser.0.process::<OM>(input.clone()) {
  132|  2.89k|          Ok(res) => Ok(res),
  133|      0|          Err(Err::Failure(e))=> Err(Err::Failure(e)),
  134|      0|          Err(Err::Incomplete(i))=> Err(Err::Incomplete(i)),
  135|  1.88k|          Err(Err::Error(e)) => alt_trait_inner!(1, self, input, e, $($id)+),
  136|       |        }
  137|  4.77k|      }
_RINvXs2_NtCsaZdo92nHnrg_3nom6branchINtB6_6ChoiceTNCNvNtCs4qtBjdjJOwX_15rsonpath_syntax6parser12filter_query0NCBN_s_0NCINvBP_28failed_segment_within_filterNtBR_7SegmentE0EEINtNtB8_8internal6ParserReE7processINtB2M_7OutputMNtB2M_4EmitB3x_NtB2M_9StreamingEEBR_:
  127|  18.9k|      fn process<OM: crate::OutputMode>(
  128|  18.9k|        &mut self,
  129|  18.9k|        input: Input,
  130|  18.9k|      ) -> crate::PResult<OM, Input, Self::Output, Self::Error> {
  131|  18.9k|        match self.parser.0.process::<OM>(input.clone()) {
  132|  2.73k|          Ok(res) => Ok(res),
  133|      0|          Err(Err::Failure(e))=> Err(Err::Failure(e)),
  134|      0|          Err(Err::Incomplete(i))=> Err(Err::Incomplete(i)),
  135|  16.1k|          Err(Err::Error(e)) => alt_trait_inner!(1, self, input, e, $($id)+),
  136|       |        }
  137|  18.9k|      }
_RINvXs2_NtCsaZdo92nHnrg_3nom6branchINtB6_6ChoiceTNCNvNtCs4qtBjdjJOwX_15rsonpath_syntax6parser7segment0NCBN_s_0NCINvBP_14failed_segmentNtBR_7SegmentE0EEINtNtB8_8internal6ParserReE7processINtB2s_7OutputMNtB2s_4EmitB3d_NtB2s_9StreamingEEBR_:
  127|  2.96k|      fn process<OM: crate::OutputMode>(
  128|  2.96k|        &mut self,
  129|  2.96k|        input: Input,
  130|  2.96k|      ) -> crate::PResult<OM, Input, Self::Output, Self::Error> {
  131|  2.96k|        match self.parser.0.process::<OM>(input.clone()) {
  132|    862|          Ok(res) => Ok(res),
  133|      0|          Err(Err::Failure(e))=> Err(Err::Failure(e)),
  134|      0|          Err(Err::Incomplete(i))=> Err(Err::Incomplete(i)),
  135|  2.10k|          Err(Err::Error(e)) => alt_trait_inner!(1, self, input, e, $($id)+),
  136|       |        }
  137|  2.96k|      }
_RINvXs4_NtCsaZdo92nHnrg_3nom6branchINtB6_6ChoiceTINtNtB8_8internal4IntoNvNtCs4qtBjdjJOwX_15rsonpath_syntax6parser6numberNtB1b_7LiteralNtNtB1b_5error18InternalParseErrorEIBM_NvB19_14string_literalB1U_B28_EINtBO_3MapNCINvNtNtB8_5bytes8complete3tagReB3V_B28_E0NCINvNtB8_10combinator5valueB3V_B1U_B28_B3q_E0EB3g_B3g_EEINtBO_6ParserB3V_E7processINtBO_7OutputMNtBO_4EmitB5G_NtBO_9StreamingEEB1b_:
  127|  12.2k|      fn process<OM: crate::OutputMode>(
  128|  12.2k|        &mut self,
  129|  12.2k|        input: Input,
  130|  12.2k|      ) -> crate::PResult<OM, Input, Self::Output, Self::Error> {
  131|  12.2k|        match self.parser.0.process::<OM>(input.clone()) {
  132|    916|          Ok(res) => Ok(res),
  133|      0|          Err(Err::Failure(e))=> Err(Err::Failure(e)),
  134|      0|          Err(Err::Incomplete(i))=> Err(Err::Incomplete(i)),
  135|  11.3k|          Err(Err::Error(e)) => alt_trait_inner!(1, self, input, e, $($id)+),
  136|       |        }
  137|  12.2k|      }
_RINvXs5_NtCsaZdo92nHnrg_3nom6branchINtB6_6ChoiceTINtNtB8_8internal3MapNCINvNtNtB8_5bytes8complete3tagReB1B_NtNtCs4qtBjdjJOwX_15rsonpath_syntax5error18InternalParseErrorE0NCINvNtB8_10combinator5valueB1B_NtB1L_12ComparisonOpB1H_B16_E0EBL_BL_BL_IBM_NCINvNtNtB8_9character8complete4charB1B_B1H_E0NCIB2L_B1B_B3e_B1H_B3W_E0EB3S_EEINtBO_6ParserB1B_E7processINtBO_7OutputMNtBO_4EmitB5Q_NtBO_9StreamingEEB1L_:
  127|  7.44k|      fn process<OM: crate::OutputMode>(
  128|  7.44k|        &mut self,
  129|  7.44k|        input: Input,
  130|  7.44k|      ) -> crate::PResult<OM, Input, Self::Output, Self::Error> {
  131|  7.44k|        match self.parser.0.process::<OM>(input.clone()) {
  132|  2.42k|          Ok(res) => Ok(res),
  133|      0|          Err(Err::Failure(e))=> Err(Err::Failure(e)),
  134|      0|          Err(Err::Incomplete(i))=> Err(Err::Incomplete(i)),
  135|  5.02k|          Err(Err::Error(e)) => alt_trait_inner!(1, self, input, e, $($id)+),
  136|       |        }
  137|  7.44k|      }
_RINvXs5_NtCsaZdo92nHnrg_3nom6branchINtB6_6ChoiceTNCINvNtCs4qtBjdjJOwX_15rsonpath_syntax6parser17ignore_whitespaceNtBS_8SelectorNvBQ_13name_selectorNtNtBS_5error18InternalParseErrorE0NCIBO_B1N_NvBQ_17wildcard_selectorB2l_E0NCIBO_B1N_NvBQ_14slice_selectorB2l_E0NCIBO_B1N_NvBQ_14index_selectorB2l_E0NCIBO_B1N_NCNvBQ_8selector0B2l_E0NvBQ_15failed_selectorEEINtNtB8_8internal6ParserReE7processINtB5I_7OutputMNtB5I_4EmitB6t_NtB5I_9StreamingEEBS_:
  127|  29.7k|      fn process<OM: crate::OutputMode>(
  128|  29.7k|        &mut self,
  129|  29.7k|        input: Input,
  130|  29.7k|      ) -> crate::PResult<OM, Input, Self::Output, Self::Error> {
  131|  29.7k|        match self.parser.0.process::<OM>(input.clone()) {
  132|  11.0k|          Ok(res) => Ok(res),
  133|      0|          Err(Err::Failure(e))=> Err(Err::Failure(e)),
  134|      0|          Err(Err::Incomplete(i))=> Err(Err::Incomplete(i)),
  135|  18.6k|          Err(Err::Error(e)) => alt_trait_inner!(1, self, input, e, $($id)+),
  136|       |        }
  137|  29.7k|      }
_RNCINvXs1_NtCsaZdo92nHnrg_3nom6branchINtB8_6ChoiceTINtNtBa_8internal3MapNCINvNtNtBa_5bytes8complete3tagReB1D_NtNtCs4qtBjdjJOwX_15rsonpath_syntax5error18InternalParseErrorE0NCINvNtBa_10combinator5valueB1D_NtNvNtB1N_6parser12logical_expr9BooleanOpB1J_B18_E0EBN_EEINtBQ_6ParserB1D_E7processINtBQ_7OutputMNtBQ_4EmitB4P_NtBQ_9StreamingEE0B1N_:
  149|  8.94k|        succ!($it, alt_trait_inner!($self, $input, <OM::Error as crate::Mode>::combine($err, e, |e1, e2| e1.or(e2)), $($id)+))
_RNCINvXs1_NtCsaZdo92nHnrg_3nom6branchINtB8_6ChoiceTINtNtBa_8internal3MapNCINvNtNtBa_5bytes8complete3tagReB1D_NtNtCs4qtBjdjJOwX_15rsonpath_syntax5error18InternalParseErrorE0NCINvNtBa_10combinator5valueB1D_NtNvNtB1N_6parser12logical_expr9BooleanOpB1J_B18_E0EBN_EEINtBQ_6ParserB1D_E7processINtBQ_7OutputMNtBQ_4EmitB4P_NtBQ_9StreamingEEs_0B1N_:
  154|  8.94k|    Err(Err::Error(<OM::Error as crate::Mode>::map($err, |err| Error::append($input, ErrorKind::Alt, err))))
_RNCINvXs1_NtCsaZdo92nHnrg_3nom6branchINtB8_6ChoiceTINtNtBa_8sequence8PrecededNCINvNtNtBa_9character8complete4charReNtNtCs4qtBjdjJOwX_15rsonpath_syntax5error18InternalParseErrorE0INvB1i_6digit1B1N_B1P_EEB2Q_EEINtNtBa_8internal6ParserB1N_E7processINtB3n_7OutputMNtB3n_5CheckNtB3n_4EmitNtB3n_9StreamingEE0B1T_:
  149|  11.1k|        succ!($it, alt_trait_inner!($self, $input, <OM::Error as crate::Mode>::combine($err, e, |e1, e2| e1.or(e2)), $($id)+))
_RNCINvXs1_NtCsaZdo92nHnrg_3nom6branchINtB8_6ChoiceTINtNtBa_8sequence8PrecededNCINvNtNtBa_9character8complete4charReNtNtCs4qtBjdjJOwX_15rsonpath_syntax5error18InternalParseErrorE0INvB1i_6digit1B1N_B1P_EEB2Q_EEINtNtBa_8internal6ParserB1N_E7processINtB3n_7OutputMNtB3n_5CheckNtB3n_4EmitNtB3n_9StreamingEEs_0B1T_:
  154|  11.1k|    Err(Err::Error(<OM::Error as crate::Mode>::map($err, |err| Error::append($input, ErrorKind::Alt, err))))
_RNCINvXs1_NtCsaZdo92nHnrg_3nom6branchINtB8_6ChoiceTINtNtBa_8sequence8PrecededNCINvNtNtBa_9character8complete4charReNtNtCs4qtBjdjJOwX_15rsonpath_syntax5error18InternalParseErrorE0NCNvNtB1T_6parser6string0EBN_EEINtNtBa_8internal6ParserB1N_E7processINtB3o_7OutputMNtB3o_4EmitB4b_NtB3o_9StreamingEE0B1T_:
  149|  29.4k|        succ!($it, alt_trait_inner!($self, $input, <OM::Error as crate::Mode>::combine($err, e, |e1, e2| e1.or(e2)), $($id)+))
_RNCINvXs1_NtCsaZdo92nHnrg_3nom6branchINtB8_6ChoiceTINtNtBa_8sequence8PrecededNCINvNtNtBa_9character8complete4charReNtNtCs4qtBjdjJOwX_15rsonpath_syntax5error18InternalParseErrorE0NCNvNtB1T_6parser6string0EBN_EEINtNtBa_8internal6ParserB1N_E7processINtB3o_7OutputMNtB3o_4EmitB4b_NtB3o_9StreamingEEs_0B1T_:
  154|  29.4k|    Err(Err::Error(<OM::Error as crate::Mode>::map($err, |err| Error::append($input, ErrorKind::Alt, err))))
_RNCINvXs1_NtCsaZdo92nHnrg_3nom6branchINtB8_6ChoiceTINtNtBa_8sequence8PrecededNCINvNtNtBa_9character8complete4charReNtNtCs4qtBjdjJOwX_15rsonpath_syntax5error18InternalParseErrorE0NvNvNtB1T_6parser5float10base_floatEB2Q_EEINtNtBa_8internal6ParserB1N_E7processINtB3z_7OutputMNtB3z_5CheckNtB3z_4EmitNtB3z_9StreamingEE0B1T_:
  149|  11.3k|        succ!($it, alt_trait_inner!($self, $input, <OM::Error as crate::Mode>::combine($err, e, |e1, e2| e1.or(e2)), $($id)+))
_RNCINvXs1_NtCsaZdo92nHnrg_3nom6branchINtB8_6ChoiceTINtNtBa_8sequence8PrecededNCINvNtNtBa_9character8complete4charReNtNtCs4qtBjdjJOwX_15rsonpath_syntax5error18InternalParseErrorE0NvNvNtB1T_6parser5float10base_floatEB2Q_EEINtNtBa_8internal6ParserB1N_E7processINtB3z_7OutputMNtB3z_5CheckNtB3z_4EmitNtB3z_9StreamingEEs_0B1T_:
  154|  11.3k|    Err(Err::Error(<OM::Error as crate::Mode>::map($err, |err| Error::append($input, ErrorKind::Alt, err))))
_RNCINvXs4_NtCsaZdo92nHnrg_3nom6branchINtB8_6ChoiceTINtNtBa_8internal4IntoNvNtCs4qtBjdjJOwX_15rsonpath_syntax6parser6numberNtB1d_7LiteralNtNtB1d_5error18InternalParseErrorEIBO_NvB1b_14string_literalB1W_B2a_EINtBQ_3MapNCINvNtNtBa_5bytes8complete3tagReB3X_B2a_E0NCINvNtBa_10combinator5valueB3X_B1W_B2a_B3s_E0EB3i_B3i_EEINtBQ_6ParserB3X_E7processINtBQ_7OutputMNtBQ_4EmitB5I_NtBQ_9StreamingEE0B1d_:
  149|  7.27k|        succ!($it, alt_trait_inner!($self, $input, <OM::Error as crate::Mode>::combine($err, e, |e1, e2| e1.or(e2)), $($id)+))
_RNCINvXs4_NtCsaZdo92nHnrg_3nom6branchINtB8_6ChoiceTINtNtBa_8internal4IntoNvNtCs4qtBjdjJOwX_15rsonpath_syntax6parser6numberNtB1d_7LiteralNtNtB1d_5error18InternalParseErrorEIBO_NvB1b_14string_literalB1W_B2a_EINtBQ_3MapNCINvNtNtBa_5bytes8complete3tagReB3X_B2a_E0NCINvNtBa_10combinator5valueB3X_B1W_B2a_B3s_E0EB3i_B3i_EEINtBQ_6ParserB3X_E7processINtBQ_7OutputMNtBQ_4EmitB5I_NtBQ_9StreamingEEs0_0B1d_:
  149|  7.27k|        succ!($it, alt_trait_inner!($self, $input, <OM::Error as crate::Mode>::combine($err, e, |e1, e2| e1.or(e2)), $($id)+))
_RNCINvXs4_NtCsaZdo92nHnrg_3nom6branchINtB8_6ChoiceTINtNtBa_8internal4IntoNvNtCs4qtBjdjJOwX_15rsonpath_syntax6parser6numberNtB1d_7LiteralNtNtB1d_5error18InternalParseErrorEIBO_NvB1b_14string_literalB1W_B2a_EINtBQ_3MapNCINvNtNtBa_5bytes8complete3tagReB3X_B2a_E0NCINvNtBa_10combinator5valueB3X_B1W_B2a_B3s_E0EB3i_B3i_EEINtBQ_6ParserB3X_E7processINtBQ_7OutputMNtBQ_4EmitB5I_NtBQ_9StreamingEEs1_0B1d_:
  149|  7.27k|        succ!($it, alt_trait_inner!($self, $input, <OM::Error as crate::Mode>::combine($err, e, |e1, e2| e1.or(e2)), $($id)+))
_RNCINvXs4_NtCsaZdo92nHnrg_3nom6branchINtB8_6ChoiceTINtNtBa_8internal4IntoNvNtCs4qtBjdjJOwX_15rsonpath_syntax6parser6numberNtB1d_7LiteralNtNtB1d_5error18InternalParseErrorEIBO_NvB1b_14string_literalB1W_B2a_EINtBQ_3MapNCINvNtNtBa_5bytes8complete3tagReB3X_B2a_E0NCINvNtBa_10combinator5valueB3X_B1W_B2a_B3s_E0EB3i_B3i_EEINtBQ_6ParserB3X_E7processINtBQ_7OutputMNtBQ_4EmitB5I_NtBQ_9StreamingEEs2_0B1d_:
  154|  7.27k|    Err(Err::Error(<OM::Error as crate::Mode>::map($err, |err| Error::append($input, ErrorKind::Alt, err))))
_RNCINvXs4_NtCsaZdo92nHnrg_3nom6branchINtB8_6ChoiceTINtNtBa_8internal4IntoNvNtCs4qtBjdjJOwX_15rsonpath_syntax6parser6numberNtB1d_7LiteralNtNtB1d_5error18InternalParseErrorEIBO_NvB1b_14string_literalB1W_B2a_EINtBQ_3MapNCINvNtNtBa_5bytes8complete3tagReB3X_B2a_E0NCINvNtBa_10combinator5valueB3X_B1W_B2a_B3s_E0EB3i_B3i_EEINtBQ_6ParserB3X_E7processINtBQ_7OutputMNtBQ_4EmitB5I_NtBQ_9StreamingEEs_0B1d_:
  149|  7.27k|        succ!($it, alt_trait_inner!($self, $input, <OM::Error as crate::Mode>::combine($err, e, |e1, e2| e1.or(e2)), $($id)+))
_RNCINvXs5_NtCsaZdo92nHnrg_3nom6branchINtB8_6ChoiceTINtNtBa_8internal3MapNCINvNtNtBa_5bytes8complete3tagReB1D_NtNtCs4qtBjdjJOwX_15rsonpath_syntax5error18InternalParseErrorE0NCINvNtBa_10combinator5valueB1D_NtB1N_12ComparisonOpB1J_B18_E0EBN_BN_BN_IBO_NCINvNtNtBa_9character8complete4charB1D_B1J_E0NCIB2N_B1D_B3g_B1J_B3Y_E0EB3U_EEINtBQ_6ParserB1D_E7processINtBQ_7OutputMNtBQ_4EmitB5S_NtBQ_9StreamingEE0B1N_:
  149|  2.67k|        succ!($it, alt_trait_inner!($self, $input, <OM::Error as crate::Mode>::combine($err, e, |e1, e2| e1.or(e2)), $($id)+))
_RNCINvXs5_NtCsaZdo92nHnrg_3nom6branchINtB8_6ChoiceTINtNtBa_8internal3MapNCINvNtNtBa_5bytes8complete3tagReB1D_NtNtCs4qtBjdjJOwX_15rsonpath_syntax5error18InternalParseErrorE0NCINvNtBa_10combinator5valueB1D_NtB1N_12ComparisonOpB1J_B18_E0EBN_BN_BN_IBO_NCINvNtNtBa_9character8complete4charB1D_B1J_E0NCIB2N_B1D_B3g_B1J_B3Y_E0EB3U_EEINtBQ_6ParserB1D_E7processINtBQ_7OutputMNtBQ_4EmitB5S_NtBQ_9StreamingEEs0_0B1N_:
  149|  2.67k|        succ!($it, alt_trait_inner!($self, $input, <OM::Error as crate::Mode>::combine($err, e, |e1, e2| e1.or(e2)), $($id)+))
_RNCINvXs5_NtCsaZdo92nHnrg_3nom6branchINtB8_6ChoiceTINtNtBa_8internal3MapNCINvNtNtBa_5bytes8complete3tagReB1D_NtNtCs4qtBjdjJOwX_15rsonpath_syntax5error18InternalParseErrorE0NCINvNtBa_10combinator5valueB1D_NtB1N_12ComparisonOpB1J_B18_E0EBN_BN_BN_IBO_NCINvNtNtBa_9character8complete4charB1D_B1J_E0NCIB2N_B1D_B3g_B1J_B3Y_E0EB3U_EEINtBQ_6ParserB1D_E7processINtBQ_7OutputMNtBQ_4EmitB5S_NtBQ_9StreamingEEs1_0B1N_:
  149|  2.67k|        succ!($it, alt_trait_inner!($self, $input, <OM::Error as crate::Mode>::combine($err, e, |e1, e2| e1.or(e2)), $($id)+))
_RNCINvXs5_NtCsaZdo92nHnrg_3nom6branchINtB8_6ChoiceTINtNtBa_8internal3MapNCINvNtNtBa_5bytes8complete3tagReB1D_NtNtCs4qtBjdjJOwX_15rsonpath_syntax5error18InternalParseErrorE0NCINvNtBa_10combinator5valueB1D_NtB1N_12ComparisonOpB1J_B18_E0EBN_BN_BN_IBO_NCINvNtNtBa_9character8complete4charB1D_B1J_E0NCIB2N_B1D_B3g_B1J_B3Y_E0EB3U_EEINtBQ_6ParserB1D_E7processINtBQ_7OutputMNtBQ_4EmitB5S_NtBQ_9StreamingEEs2_0B1N_:
  149|  2.67k|        succ!($it, alt_trait_inner!($self, $input, <OM::Error as crate::Mode>::combine($err, e, |e1, e2| e1.or(e2)), $($id)+))
_RNCINvXs5_NtCsaZdo92nHnrg_3nom6branchINtB8_6ChoiceTINtNtBa_8internal3MapNCINvNtNtBa_5bytes8complete3tagReB1D_NtNtCs4qtBjdjJOwX_15rsonpath_syntax5error18InternalParseErrorE0NCINvNtBa_10combinator5valueB1D_NtB1N_12ComparisonOpB1J_B18_E0EBN_BN_BN_IBO_NCINvNtNtBa_9character8complete4charB1D_B1J_E0NCIB2N_B1D_B3g_B1J_B3Y_E0EB3U_EEINtBQ_6ParserB1D_E7processINtBQ_7OutputMNtBQ_4EmitB5S_NtBQ_9StreamingEEs3_0B1N_:
  154|  2.67k|    Err(Err::Error(<OM::Error as crate::Mode>::map($err, |err| Error::append($input, ErrorKind::Alt, err))))
_RNCINvXs5_NtCsaZdo92nHnrg_3nom6branchINtB8_6ChoiceTINtNtBa_8internal3MapNCINvNtNtBa_5bytes8complete3tagReB1D_NtNtCs4qtBjdjJOwX_15rsonpath_syntax5error18InternalParseErrorE0NCINvNtBa_10combinator5valueB1D_NtB1N_12ComparisonOpB1J_B18_E0EBN_BN_BN_IBO_NCINvNtNtBa_9character8complete4charB1D_B1J_E0NCIB2N_B1D_B3g_B1J_B3Y_E0EB3U_EEINtBQ_6ParserB1D_E7processINtBQ_7OutputMNtBQ_4EmitB5S_NtBQ_9StreamingEEs_0B1N_:
  149|  2.67k|        succ!($it, alt_trait_inner!($self, $input, <OM::Error as crate::Mode>::combine($err, e, |e1, e2| e1.or(e2)), $($id)+))
_RINvXs1_NtCsaZdo92nHnrg_3nom6branchINtB6_6ChoiceTINtNtB8_8sequence8PrecededNCINvNtNtB8_9character8complete4charReNtNtCs4qtBjdjJOwX_15rsonpath_syntax5error18InternalParseErrorE0INvB1g_6digit1B1L_B1N_EEB2O_EEINtNtB8_8internal6ParserB1L_E7processINtB3l_7OutputMNtB3l_5CheckNtB3l_4EmitNtB3l_9StreamingEEB1R_:
  127|  29.7k|      fn process<OM: crate::OutputMode>(
  128|  29.7k|        &mut self,
  129|  29.7k|        input: Input,
  130|  29.7k|      ) -> crate::PResult<OM, Input, Self::Output, Self::Error> {
  131|  29.7k|        match self.parser.0.process::<OM>(input.clone()) {
  132|  10.2k|          Ok(res) => Ok(res),
  133|      0|          Err(Err::Failure(e))=> Err(Err::Failure(e)),
  134|      0|          Err(Err::Incomplete(i))=> Err(Err::Incomplete(i)),
  135|  19.4k|          Err(Err::Error(e)) => alt_trait_inner!(1, self, input, e, $($id)+),
  136|       |        }
  137|  29.7k|      }
_RINvXs1_NtCsaZdo92nHnrg_3nom6branchINtB6_6ChoiceTINtNtB8_8sequence8PrecededNCINvNtNtB8_9character8complete4charReNtNtCs4qtBjdjJOwX_15rsonpath_syntax5error18InternalParseErrorE0NvNvNtB1R_6parser5float10base_floatEB2O_EEINtNtB8_8internal6ParserB1L_E7processINtB3x_7OutputMNtB3x_5CheckNtB3x_4EmitNtB3x_9StreamingEEB1R_:
  127|  12.2k|      fn process<OM: crate::OutputMode>(
  128|  12.2k|        &mut self,
  129|  12.2k|        input: Input,
  130|  12.2k|      ) -> crate::PResult<OM, Input, Self::Output, Self::Error> {
  131|  12.2k|        match self.parser.0.process::<OM>(input.clone()) {
  132|    117|          Ok(res) => Ok(res),
  133|      0|          Err(Err::Failure(e))=> Err(Err::Failure(e)),
  134|      0|          Err(Err::Incomplete(i))=> Err(Err::Incomplete(i)),
  135|  12.1k|          Err(Err::Error(e)) => alt_trait_inner!(1, self, input, e, $($id)+),
  136|       |        }
  137|  12.2k|      }
_RINvXs1_NtCsaZdo92nHnrg_3nom6branchINtB6_6ChoiceTNCNvNtCs4qtBjdjJOwX_15rsonpath_syntax6parser13child_segment0INtNtB8_8sequence8PrecededNCINvNtNtB8_9character8complete4charReNtNtBR_5error18InternalParseErrorE0INtNtB8_10combinator3CutIBy_TINtNtB8_8internal3MapNvBP_17wildcard_selectorNvMsq_BR_NtBR_9Selectors3oneENvBP_21member_name_shorthandNCINvBP_14failed_segmentB4F_E0EEEEEEINtB3Q_6ParserB2J_E7processINtB3Q_7OutputMNtB3Q_4EmitB6H_NtB3Q_9StreamingEEBR_:
  127|  18.2k|      fn process<OM: crate::OutputMode>(
  128|  18.2k|        &mut self,
  129|  18.2k|        input: Input,
  130|  18.2k|      ) -> crate::PResult<OM, Input, Self::Output, Self::Error> {
  131|  18.2k|        match self.parser.0.process::<OM>(input.clone()) {
  132|  18.2k|          Ok(res) => Ok(res),
  133|      0|          Err(Err::Failure(e))=> Err(Err::Failure(e)),
  134|      0|          Err(Err::Incomplete(i))=> Err(Err::Incomplete(i)),
  135|      0|          Err(Err::Error(e)) => alt_trait_inner!(1, self, input, e, $($id)+),
  136|       |        }
  137|  18.2k|      }
_RINvXs3_NtCsaZdo92nHnrg_3nom6branchINtB6_6ChoiceTNCNvNtCs4qtBjdjJOwX_15rsonpath_syntax6parser18descendant_segment0INtNtB8_8internal3MapNvBP_17wildcard_selectorNvMsq_BR_NtBR_9Selectors3oneENvBP_21member_name_shorthandNCINvBP_14failed_segmentB2G_E0EEINtB1R_6ParserReE7processINtB1R_7OutputMNtB1R_4EmitB4C_NtB1R_9StreamingEEBR_:
  127|  3.59k|      fn process<OM: crate::OutputMode>(
  128|  3.59k|        &mut self,
  129|  3.59k|        input: Input,
  130|  3.59k|      ) -> crate::PResult<OM, Input, Self::Output, Self::Error> {
  131|  3.59k|        match self.parser.0.process::<OM>(input.clone()) {
  132|  3.59k|          Ok(res) => Ok(res),
  133|      0|          Err(Err::Failure(e))=> Err(Err::Failure(e)),
  134|      0|          Err(Err::Incomplete(i))=> Err(Err::Incomplete(i)),
  135|      0|          Err(Err::Error(e)) => alt_trait_inner!(1, self, input, e, $($id)+),
  136|       |        }
  137|  3.59k|      }

_RINvNtNtCsaZdo92nHnrg_3nom5bytes8complete11tag_no_caseReBQ_NtNtCs4qtBjdjJOwX_15rsonpath_syntax5error18InternalParseErrorEBZ_:
   68|  12.2k|pub fn tag_no_case<T, I, Error: ParseError<I>>(tag: T) -> impl Fn(I) -> IResult<I, I, Error>
   69|  12.2k|where
   70|  12.2k|  I: Input + Compare<T>,
   71|  12.2k|  T: Input + Clone,
   72|       |{
   73|       |  move |i: I| {
   74|       |    let mut parser = super::TagNoCase {
   75|       |      tag: tag.clone(),
   76|       |      e: PhantomData,
   77|       |    };
   78|       |
   79|       |    parser.process::<OutputM<Emit, Emit, Complete>>(i)
   80|       |  }
   81|  12.2k|}
_RINvNtNtCsaZdo92nHnrg_3nom5bytes8complete3tagReBH_NtNtCs4qtBjdjJOwX_15rsonpath_syntax5error18InternalParseErrorEBQ_:
   32|   131k|pub fn tag<T, I, Error: ParseError<I>>(tag: T) -> impl Fn(I) -> IResult<I, I, Error>
   33|   131k|where
   34|   131k|  I: Input + Compare<T>,
   35|   131k|  T: Input + Clone,
   36|       |{
   37|       |  move |i: I| {
   38|       |    let mut parser = super::Tag {
   39|       |      tag: tag.clone(),
   40|       |      e: PhantomData,
   41|       |    };
   42|       |
   43|       |    parser.process::<OutputM<Emit, Emit, Complete>>(i)
   44|       |  }
   45|   131k|}
_RNCINvNtNtCsaZdo92nHnrg_3nom5bytes8complete11tag_no_caseReBS_NtNtCs4qtBjdjJOwX_15rsonpath_syntax5error18InternalParseErrorE0B11_:
   73|    916|  move |i: I| {
   74|    916|    let mut parser = super::TagNoCase {
   75|    916|      tag: tag.clone(),
   76|    916|      e: PhantomData,
   77|    916|    };
   78|       |
   79|    916|    parser.process::<OutputM<Emit, Emit, Complete>>(i)
   80|    916|  }
_RNCINvNtNtCsaZdo92nHnrg_3nom5bytes8complete3tagReBJ_NtNtCs4qtBjdjJOwX_15rsonpath_syntax5error18InternalParseErrorE0BS_:
   37|   115k|  move |i: I| {
   38|   115k|    let mut parser = super::Tag {
   39|   115k|      tag: tag.clone(),
   40|   115k|      e: PhantomData,
   41|   115k|    };
   42|       |
   43|   115k|    parser.process::<OutputM<Emit, Emit, Complete>>(i)
   44|   115k|  }

_RINvXNtCsaZdo92nHnrg_3nom5bytesINtB3_3TagReNtNtCs4qtBjdjJOwX_15rsonpath_syntax5error18InternalParseErrorEINtNtB5_8internal6ParserBD_E7processINtB1I_7OutputMNtB1I_4EmitB2u_NtB1I_8CompleteEEBJ_:
   71|   115k|  fn process<OM: OutputMode>(&mut self, i: I) -> crate::PResult<OM, I, Self::Output, Self::Error> {
   72|   115k|    let tag_len = self.tag.input_len();
   73|   115k|    let t = self.tag.clone();
   74|       |
   75|   115k|    match i.compare(t) {
   76|  18.1k|      CompareResult::Ok => Ok((i.take_from(tag_len), OM::Output::bind(|| i.take(tag_len)))),
   77|       |      CompareResult::Incomplete => {
   78|      0|        if OM::Incomplete::is_streaming() {
   79|      0|          Err(Err::Incomplete(Needed::new(tag_len - i.input_len())))
   80|       |        } else {
   81|      0|          Err(Err::Error(OM::Error::bind(|| {
   82|       |            let e: ErrorKind = ErrorKind::Tag;
   83|       |            Error::from_error_kind(i, e)
   84|       |          })))
   85|       |        }
   86|       |      }
   87|  97.7k|      CompareResult::Error => Err(Err::Error(OM::Error::bind(|| {
   88|       |        let e: ErrorKind = ErrorKind::Tag;
   89|       |        Error::from_error_kind(i, e)
   90|       |      }))),
   91|       |    }
   92|   115k|  }
_RINvXs_NtCsaZdo92nHnrg_3nom5bytesINtB5_9TagNoCaseReNtNtCs4qtBjdjJOwX_15rsonpath_syntax5error18InternalParseErrorEINtNtB7_8internal6ParserBL_E7processINtB1Q_7OutputMNtB1Q_4EmitB2C_NtB1Q_8CompleteEEBR_:
  140|    916|  fn process<OM: OutputMode>(&mut self, i: I) -> crate::PResult<OM, I, Self::Output, Self::Error> {
  141|    916|    let tag_len = self.tag.input_len();
  142|    916|    let t = self.tag.clone();
  143|       |
  144|    916|    match i.compare_no_case(t) {
  145|      0|      CompareResult::Ok => Ok((i.take_from(tag_len), OM::Output::bind(|| i.take(tag_len)))),
  146|       |      CompareResult::Incomplete => {
  147|      0|        if OM::Incomplete::is_streaming() {
  148|      0|          Err(Err::Incomplete(Needed::new(tag_len - i.input_len())))
  149|       |        } else {
  150|      0|          Err(Err::Error(OM::Error::bind(|| {
  151|       |            let e: ErrorKind = ErrorKind::Tag;
  152|       |            Error::from_error_kind(i, e)
  153|       |          })))
  154|       |        }
  155|       |      }
  156|    916|      CompareResult::Error => Err(Err::Error(OM::Error::bind(|| {
  157|       |        let e: ErrorKind = ErrorKind::Tag;
  158|       |        Error::from_error_kind(i, e)
  159|       |      }))),
  160|       |    }
  161|    916|  }
_RNCINvXNtCsaZdo92nHnrg_3nom5bytesINtB5_3TagReNtNtCs4qtBjdjJOwX_15rsonpath_syntax5error18InternalParseErrorEINtNtB7_8internal6ParserBF_E7processINtB1K_7OutputMNtB1K_4EmitB2w_NtB1K_8CompleteEE0BL_:
   76|  18.1k|      CompareResult::Ok => Ok((i.take_from(tag_len), OM::Output::bind(|| i.take(tag_len)))),
_RNCINvXNtCsaZdo92nHnrg_3nom5bytesINtB5_3TagReNtNtCs4qtBjdjJOwX_15rsonpath_syntax5error18InternalParseErrorEINtNtB7_8internal6ParserBF_E7processINtB1K_7OutputMNtB1K_4EmitB2w_NtB1K_8CompleteEEs0_0BL_:
   87|  97.7k|      CompareResult::Error => Err(Err::Error(OM::Error::bind(|| {
   88|  97.7k|        let e: ErrorKind = ErrorKind::Tag;
   89|  97.7k|        Error::from_error_kind(i, e)
   90|  97.7k|      }))),
_RNCINvXs_NtCsaZdo92nHnrg_3nom5bytesINtB7_9TagNoCaseReNtNtCs4qtBjdjJOwX_15rsonpath_syntax5error18InternalParseErrorEINtNtB9_8internal6ParserBN_E7processINtB1S_7OutputMNtB1S_4EmitB2E_NtB1S_8CompleteEEs0_0BT_:
  156|    916|      CompareResult::Error => Err(Err::Error(OM::Error::bind(|| {
  157|    916|        let e: ErrorKind = ErrorKind::Tag;
  158|    916|        Error::from_error_kind(i, e)
  159|    916|      }))),

_RINvNtNtCsaZdo92nHnrg_3nom9character8complete4charReINtNtB6_5error5ErrorBM_EECs4qtBjdjJOwX_15rsonpath_syntax:
   33|  52.5k|pub fn char<I, Error: ParseError<I>>(c: char) -> impl FnMut(I) -> IResult<I, char, Error>
   34|  52.5k|where
   35|  52.5k|  I: Input,
   36|  52.5k|  <I as Input>::Item: AsChar,
   37|       |{
   38|  52.5k|  let mut parser = super::char(c);
   39|       |  move |i: I| parser.process::<OutputM<Emit, Emit, Complete>>(i)
   40|  52.5k|}
_RINvNtNtCsaZdo92nHnrg_3nom9character8complete4charReNtNtCs4qtBjdjJOwX_15rsonpath_syntax5error18InternalParseErrorEBS_:
   33|   261k|pub fn char<I, Error: ParseError<I>>(c: char) -> impl FnMut(I) -> IResult<I, char, Error>
   34|   261k|where
   35|   261k|  I: Input,
   36|   261k|  <I as Input>::Item: AsChar,
   37|       |{
   38|   261k|  let mut parser = super::char(c);
   39|       |  move |i: I| parser.process::<OutputM<Emit, Emit, Complete>>(i)
   40|   261k|}
_RINvNtNtCsaZdo92nHnrg_3nom9character8complete4charReuECs4qtBjdjJOwX_15rsonpath_syntax:
   33|  13.8k|pub fn char<I, Error: ParseError<I>>(c: char) -> impl FnMut(I) -> IResult<I, char, Error>
   34|  13.8k|where
   35|  13.8k|  I: Input,
   36|  13.8k|  <I as Input>::Item: AsChar,
   37|       |{
   38|  13.8k|  let mut parser = super::char(c);
   39|       |  move |i: I| parser.process::<OutputM<Emit, Emit, Complete>>(i)
   40|  13.8k|}
_RINvNtNtCsaZdo92nHnrg_3nom9character8complete6digit1ReNtNtCs4qtBjdjJOwX_15rsonpath_syntax5error18InternalParseErrorEBU_:
  410|  42.0k|pub fn digit1<T, E: ParseError<T>>(input: T) -> IResult<T, T, E>
  411|  42.0k|where
  412|  42.0k|  T: Input,
  413|  42.0k|  <T as Input>::Item: AsChar,
  414|       |{
  415|  42.0k|  input.split_at_position1_complete(|item| !item.is_dec_digit(), ErrorKind::Digit)
  416|  42.0k|}
_RINvNtNtCsaZdo92nHnrg_3nom9character8complete6one_ofReBO_uECs4qtBjdjJOwX_15rsonpath_syntax:
   79|  26.1k|pub fn one_of<I, T, Error: ParseError<I>>(list: T) -> impl FnMut(I) -> IResult<I, char, Error>
   80|  26.1k|where
   81|  26.1k|  I: Input,
   82|  26.1k|  <I as Input>::Item: AsChar,
   83|  26.1k|  T: FindToken<char>,
   84|       |{
   85|  26.1k|  let mut parser = super::one_of(list);
   86|       |  move |i: I| parser.process::<OutputM<Emit, Emit, Complete>>(i)
   87|  26.1k|}
_RNCINvNtNtCsaZdo92nHnrg_3nom9character8complete4charReINtNtB8_5error5ErrorBO_EE0Cs4qtBjdjJOwX_15rsonpath_syntax:
   39|  52.5k|  move |i: I| parser.process::<OutputM<Emit, Emit, Complete>>(i)
_RNCINvNtNtCsaZdo92nHnrg_3nom9character8complete4charReNtNtCs4qtBjdjJOwX_15rsonpath_syntax5error18InternalParseErrorE0BU_:
   39|   185k|  move |i: I| parser.process::<OutputM<Emit, Emit, Complete>>(i)
_RNCINvNtNtCsaZdo92nHnrg_3nom9character8complete4charReuE0Cs4qtBjdjJOwX_15rsonpath_syntax:
   39|  13.8k|  move |i: I| parser.process::<OutputM<Emit, Emit, Complete>>(i)
_RNCINvNtNtCsaZdo92nHnrg_3nom9character8complete6digit1ReNtNtCs4qtBjdjJOwX_15rsonpath_syntax5error18InternalParseErrorE0BW_:
  415|   389k|  input.split_at_position1_complete(|item| !item.is_dec_digit(), ErrorKind::Digit)
_RNCINvNtNtCsaZdo92nHnrg_3nom9character8complete6one_ofReBQ_uE0Cs4qtBjdjJOwX_15rsonpath_syntax:
   86|  26.1k|  move |i: I| parser.process::<OutputM<Emit, Emit, Complete>>(i)

_RINvXNtCsaZdo92nHnrg_3nom9characterINtB3_4CharINtNtB5_5error5ErrorReEEINtNtB5_8internal6ParserB12_E7processINtB19_7OutputMNtB19_4EmitB1W_NtB19_8CompleteEECs4qtBjdjJOwX_15rsonpath_syntax:
  120|  52.5k|  fn process<OM: crate::OutputMode>(
  121|  52.5k|    &mut self,
  122|  52.5k|    i: I,
  123|  52.5k|  ) -> crate::PResult<OM, I, Self::Output, Self::Error> {
  124|  52.5k|    match (i).iter_elements().next().map(|t| {
  125|       |      let b = t.as_char() == self.c;
  126|       |      (&self.c, b)
  127|       |    }) {
  128|       |      None => {
  129|      0|        if OM::Incomplete::is_streaming() {
  130|      0|          Err(Err::Incomplete(Needed::new(self.c.len() - i.input_len())))
  131|       |        } else {
  132|      0|          Err(Err::Error(OM::Error::bind(|| Error::from_char(i, self.c))))
  133|       |        }
  134|       |      }
  135|  21.8k|      Some((_, false)) => Err(Err::Error(OM::Error::bind(|| Error::from_char(i, self.c)))),
  136|  30.6k|      Some((c, true)) => Ok((i.take_from(c.len()), OM::Output::bind(|| c.as_char()))),
  137|       |    }
  138|  52.5k|  }
_RINvXNtCsaZdo92nHnrg_3nom9characterINtB3_4CharNtNtCs4qtBjdjJOwX_15rsonpath_syntax5error18InternalParseErrorEINtNtB5_8internal6ParserReE7processINtB1L_7OutputMNtB1L_4EmitB2w_NtB1L_8CompleteEEBM_:
  120|   185k|  fn process<OM: crate::OutputMode>(
  121|   185k|    &mut self,
  122|   185k|    i: I,
  123|   185k|  ) -> crate::PResult<OM, I, Self::Output, Self::Error> {
  124|   185k|    match (i).iter_elements().next().map(|t| {
  125|       |      let b = t.as_char() == self.c;
  126|       |      (&self.c, b)
  127|       |    }) {
  128|       |      None => {
  129|      0|        if OM::Incomplete::is_streaming() {
  130|      0|          Err(Err::Incomplete(Needed::new(self.c.len() - i.input_len())))
  131|       |        } else {
  132|      0|          Err(Err::Error(OM::Error::bind(|| Error::from_char(i, self.c))))
  133|       |        }
  134|       |      }
  135|   122k|      Some((_, false)) => Err(Err::Error(OM::Error::bind(|| Error::from_char(i, self.c)))),
  136|  62.3k|      Some((c, true)) => Ok((i.take_from(c.len()), OM::Output::bind(|| c.as_char()))),
  137|       |    }
  138|   185k|  }
_RINvXNtCsaZdo92nHnrg_3nom9characterINtB3_4CharuEINtNtB5_8internal6ParserReE7processINtBN_7OutputMNtBN_4EmitB1x_NtBN_8CompleteEECs4qtBjdjJOwX_15rsonpath_syntax:
  120|  13.8k|  fn process<OM: crate::OutputMode>(
  121|  13.8k|    &mut self,
  122|  13.8k|    i: I,
  123|  13.8k|  ) -> crate::PResult<OM, I, Self::Output, Self::Error> {
  124|  13.8k|    match (i).iter_elements().next().map(|t| {
  125|       |      let b = t.as_char() == self.c;
  126|       |      (&self.c, b)
  127|       |    }) {
  128|       |      None => {
  129|      0|        if OM::Incomplete::is_streaming() {
  130|      0|          Err(Err::Incomplete(Needed::new(self.c.len() - i.input_len())))
  131|       |        } else {
  132|      0|          Err(Err::Error(OM::Error::bind(|| Error::from_char(i, self.c))))
  133|       |        }
  134|       |      }
  135|  7.44k|      Some((_, false)) => Err(Err::Error(OM::Error::bind(|| Error::from_char(i, self.c)))),
  136|  6.39k|      Some((c, true)) => Ok((i.take_from(c.len()), OM::Output::bind(|| c.as_char()))),
  137|       |    }
  138|  13.8k|  }
_RINvXs_NtCsaZdo92nHnrg_3nom9characterINtB5_7SatisfyNCINvB5_6one_ofReB12_uE0NCBP_s_0EINtNtB7_8internal6ParserB12_E7processINtB1n_7OutputMNtB1n_4EmitB2a_NtB1n_8CompleteEECs4qtBjdjJOwX_15rsonpath_syntax:
  186|  26.1k|  fn process<OM: crate::OutputMode>(
  187|  26.1k|    &mut self,
  188|  26.1k|    i: I,
  189|  26.1k|  ) -> crate::PResult<OM, I, Self::Output, Self::Error> {
  190|  26.1k|    match (i).iter_elements().next().map(|t| {
  191|       |      let c = t.as_char();
  192|       |      let b = (self.predicate)(c);
  193|       |      (c, b)
  194|       |    }) {
  195|       |      None => {
  196|      0|        if OM::Incomplete::is_streaming() {
  197|      0|          Err(Err::Incomplete(Needed::Unknown))
  198|       |        } else {
  199|      0|          Err(Err::Error(OM::Error::bind(|| (self.make_error)(i))))
  200|       |        }
  201|       |      }
  202|  7.27k|      Some((_, false)) => Err(Err::Error(OM::Error::bind(|| (self.make_error)(i)))),
  203|  18.9k|      Some((c, true)) => Ok((i.take_from(c.len()), OM::Output::bind(|| c.as_char()))),
  204|       |    }
  205|  26.1k|  }
_RINvNtCsaZdo92nHnrg_3nom9character4charReINtNtB4_5error5ErrorBB_EECs4qtBjdjJOwX_15rsonpath_syntax:
   98|  52.5k|pub fn char<I, Error: ParseError<I>>(c: char) -> impl Parser<I, Output = char, Error = Error>
   99|  52.5k|where
  100|  52.5k|  I: Input,
  101|  52.5k|  <I as Input>::Item: AsChar,
  102|       |{
  103|  52.5k|  Char { c, e: PhantomData }
  104|  52.5k|}
_RINvNtCsaZdo92nHnrg_3nom9character4charReNtNtCs4qtBjdjJOwX_15rsonpath_syntax5error18InternalParseErrorEBH_:
   98|   261k|pub fn char<I, Error: ParseError<I>>(c: char) -> impl Parser<I, Output = char, Error = Error>
   99|   261k|where
  100|   261k|  I: Input,
  101|   261k|  <I as Input>::Item: AsChar,
  102|       |{
  103|   261k|  Char { c, e: PhantomData }
  104|   261k|}
_RINvNtCsaZdo92nHnrg_3nom9character4charReuECs4qtBjdjJOwX_15rsonpath_syntax:
   98|  13.8k|pub fn char<I, Error: ParseError<I>>(c: char) -> impl Parser<I, Output = char, Error = Error>
   99|  13.8k|where
  100|  13.8k|  I: Input,
  101|  13.8k|  <I as Input>::Item: AsChar,
  102|       |{
  103|  13.8k|  Char { c, e: PhantomData }
  104|  13.8k|}
_RINvNtCsaZdo92nHnrg_3nom9character6one_ofReBD_uECs4qtBjdjJOwX_15rsonpath_syntax:
  219|  26.1k|pub fn one_of<I, T, Error: ParseError<I>>(list: T) -> impl Parser<I, Output = char, Error = Error>
  220|  26.1k|where
  221|  26.1k|  I: Input,
  222|  26.1k|  <I as Input>::Item: AsChar,
  223|  26.1k|  T: FindToken<char>,
  224|       |{
  225|       |  Satisfy {
  226|       |    predicate: move |c: char| list.find_token(c),
  227|       |    make_error: move |i| Error::from_error_kind(i, ErrorKind::OneOf),
  228|       |  }
  229|  26.1k|}
_RNCINvNtCsaZdo92nHnrg_3nom9character6one_ofReBF_uE0Cs4qtBjdjJOwX_15rsonpath_syntax:
  226|  26.1k|    predicate: move |c: char| list.find_token(c),
_RNCINvNtCsaZdo92nHnrg_3nom9character6one_ofReBF_uEs_0Cs4qtBjdjJOwX_15rsonpath_syntax:
  227|  7.27k|    make_error: move |i| Error::from_error_kind(i, ErrorKind::OneOf),
_RNCINvXNtCsaZdo92nHnrg_3nom9characterINtB5_4CharINtNtB7_5error5ErrorReEEINtNtB7_8internal6ParserB14_E7processINtB1b_7OutputMNtB1b_4EmitB1Y_NtB1b_8CompleteEE0Cs4qtBjdjJOwX_15rsonpath_syntax:
  124|  52.5k|    match (i).iter_elements().next().map(|t| {
  125|  52.5k|      let b = t.as_char() == self.c;
  126|  52.5k|      (&self.c, b)
  127|  52.5k|    }) {
_RNCINvXNtCsaZdo92nHnrg_3nom9characterINtB5_4CharINtNtB7_5error5ErrorReEEINtNtB7_8internal6ParserB14_E7processINtB1b_7OutputMNtB1b_4EmitB1Y_NtB1b_8CompleteEEs0_0Cs4qtBjdjJOwX_15rsonpath_syntax:
  135|  21.8k|      Some((_, false)) => Err(Err::Error(OM::Error::bind(|| Error::from_char(i, self.c)))),
_RNCINvXNtCsaZdo92nHnrg_3nom9characterINtB5_4CharINtNtB7_5error5ErrorReEEINtNtB7_8internal6ParserB14_E7processINtB1b_7OutputMNtB1b_4EmitB1Y_NtB1b_8CompleteEEs1_0Cs4qtBjdjJOwX_15rsonpath_syntax:
  136|  30.6k|      Some((c, true)) => Ok((i.take_from(c.len()), OM::Output::bind(|| c.as_char()))),
_RNCINvXNtCsaZdo92nHnrg_3nom9characterINtB5_4CharNtNtCs4qtBjdjJOwX_15rsonpath_syntax5error18InternalParseErrorEINtNtB7_8internal6ParserReE7processINtB1N_7OutputMNtB1N_4EmitB2y_NtB1N_8CompleteEE0BO_:
  124|   185k|    match (i).iter_elements().next().map(|t| {
  125|   185k|      let b = t.as_char() == self.c;
  126|   185k|      (&self.c, b)
  127|   185k|    }) {
_RNCINvXNtCsaZdo92nHnrg_3nom9characterINtB5_4CharNtNtCs4qtBjdjJOwX_15rsonpath_syntax5error18InternalParseErrorEINtNtB7_8internal6ParserReE7processINtB1N_7OutputMNtB1N_4EmitB2y_NtB1N_8CompleteEEs0_0BO_:
  135|   122k|      Some((_, false)) => Err(Err::Error(OM::Error::bind(|| Error::from_char(i, self.c)))),
_RNCINvXNtCsaZdo92nHnrg_3nom9characterINtB5_4CharNtNtCs4qtBjdjJOwX_15rsonpath_syntax5error18InternalParseErrorEINtNtB7_8internal6ParserReE7processINtB1N_7OutputMNtB1N_4EmitB2y_NtB1N_8CompleteEEs1_0BO_:
  136|  62.3k|      Some((c, true)) => Ok((i.take_from(c.len()), OM::Output::bind(|| c.as_char()))),
_RNCINvXNtCsaZdo92nHnrg_3nom9characterINtB5_4CharuEINtNtB7_8internal6ParserReE7processINtBP_7OutputMNtBP_4EmitB1z_NtBP_8CompleteEE0Cs4qtBjdjJOwX_15rsonpath_syntax:
  124|  13.8k|    match (i).iter_elements().next().map(|t| {
  125|  13.8k|      let b = t.as_char() == self.c;
  126|  13.8k|      (&self.c, b)
  127|  13.8k|    }) {
_RNCINvXNtCsaZdo92nHnrg_3nom9characterINtB5_4CharuEINtNtB7_8internal6ParserReE7processINtBP_7OutputMNtBP_4EmitB1z_NtBP_8CompleteEEs0_0Cs4qtBjdjJOwX_15rsonpath_syntax:
  135|  7.44k|      Some((_, false)) => Err(Err::Error(OM::Error::bind(|| Error::from_char(i, self.c)))),
_RNCINvXNtCsaZdo92nHnrg_3nom9characterINtB5_4CharuEINtNtB7_8internal6ParserReE7processINtBP_7OutputMNtBP_4EmitB1z_NtBP_8CompleteEEs1_0Cs4qtBjdjJOwX_15rsonpath_syntax:
  136|  6.39k|      Some((c, true)) => Ok((i.take_from(c.len()), OM::Output::bind(|| c.as_char()))),
_RNCINvXs_NtCsaZdo92nHnrg_3nom9characterINtB7_7SatisfyNCINvB7_6one_ofReB14_uE0NCBR_s_0EINtNtB9_8internal6ParserB14_E7processINtB1p_7OutputMNtB1p_4EmitB2c_NtB1p_8CompleteEE0Cs4qtBjdjJOwX_15rsonpath_syntax:
  190|  26.1k|    match (i).iter_elements().next().map(|t| {
  191|  26.1k|      let c = t.as_char();
  192|  26.1k|      let b = (self.predicate)(c);
  193|  26.1k|      (c, b)
  194|  26.1k|    }) {
_RNCINvXs_NtCsaZdo92nHnrg_3nom9characterINtB7_7SatisfyNCINvB7_6one_ofReB14_uE0NCBR_s_0EINtNtB9_8internal6ParserB14_E7processINtB1p_7OutputMNtB1p_4EmitB2c_NtB1p_8CompleteEEs0_0Cs4qtBjdjJOwX_15rsonpath_syntax:
  202|  7.27k|      Some((_, false)) => Err(Err::Error(OM::Error::bind(|| (self.make_error)(i)))),
_RNCINvXs_NtCsaZdo92nHnrg_3nom9characterINtB7_7SatisfyNCINvB7_6one_ofReB14_uE0NCBR_s_0EINtNtB9_8internal6ParserB14_E7processINtB1p_7OutputMNtB1p_4EmitB2c_NtB1p_8CompleteEEs1_0Cs4qtBjdjJOwX_15rsonpath_syntax:
  203|  18.9k|      Some((c, true)) => Ok((i.take_from(c.len()), OM::Output::bind(|| c.as_char()))),

_RINvNtCsaZdo92nHnrg_3nom10combinator3cutReNtNtCs4qtBjdjJOwX_15rsonpath_syntax5error18InternalParseErrorINtNtB4_6branch6ChoiceTINtNtB4_8internal3MapNvNtBI_6parser17wildcard_selectorNvMsq_BI_NtBI_9Selectors3oneENvB2n_21member_name_shorthandNCINvB2n_14failed_segmentB31_E0EEEBI_:
  801|  18.2k|pub fn cut<I, E: ParseError<I>, F>(
  802|  18.2k|  parser: F,
  803|  18.2k|) -> impl Parser<I, Output = <F as Parser<I>>::Output, Error = E>
  804|  18.2k|where
  805|  18.2k|  F: Parser<I, Error = E>,
  806|       |{
  807|  18.2k|  Cut { parser }
  808|  18.2k|}
_RINvNtCsaZdo92nHnrg_3nom10combinator3cutReNtNtCs4qtBjdjJOwX_15rsonpath_syntax5error18InternalParseErrorINtNtB4_6branch6ChoiceTNCNvNtBI_6parser18descendant_segment0INtNtB4_8internal3MapNvB24_17wildcard_selectorNvMsq_BI_NtBI_9Selectors3oneENvB24_21member_name_shorthandNCINvB24_14failed_segmentB3u_E0EEEBI_:
  801|  21.8k|pub fn cut<I, E: ParseError<I>, F>(
  802|  21.8k|  parser: F,
  803|  21.8k|) -> impl Parser<I, Output = <F as Parser<I>>::Output, Error = E>
  804|  21.8k|where
  805|  21.8k|  F: Parser<I, Error = E>,
  806|       |{
  807|  21.8k|  Cut { parser }
  808|  21.8k|}
_RINvNtCsaZdo92nHnrg_3nom10combinator3cutReNtNtCs4qtBjdjJOwX_15rsonpath_syntax5error18InternalParseErrorNCNvNvNtBI_6parser12logical_expr12parse_single0EBI_:
  801|  3.19k|pub fn cut<I, E: ParseError<I>, F>(
  802|  3.19k|  parser: F,
  803|  3.19k|) -> impl Parser<I, Output = <F as Parser<I>>::Output, Error = E>
  804|  3.19k|where
  805|  3.19k|  F: Parser<I, Error = E>,
  806|       |{
  807|  3.19k|  Cut { parser }
  808|  3.19k|}
_RINvNtCsaZdo92nHnrg_3nom10combinator3mapReNtCs4qtBjdjJOwX_15rsonpath_syntax7SegmentNtNtBG_5error18InternalParseErrorINtNtB4_6branch6ChoiceTNCNvNtBG_6parser13child_segment0INtNtB4_8sequence8PrecededNCINvNtNtB4_9character8complete4charBC_B1j_E0INtB2_3CutIB1R_TINtNtB4_8internal3MapNvB2h_17wildcard_selectorNvMsq_BG_NtBG_9Selectors3oneENvB2h_21member_name_shorthandNCINvB2h_14failed_segmentB51_E0EEEEEENcNtBE_5Child0EBG_:
   74|  18.2k|pub fn map<I, O, E: ParseError<I>, F, G>(parser: F, f: G) -> impl Parser<I, Output = O, Error = E>
   75|  18.2k|where
   76|  18.2k|  F: Parser<I, Error = E>,
   77|  18.2k|  G: FnMut(<F as Parser<I>>::Output) -> O,
   78|       |{
   79|  18.2k|  parser.map(f)
   80|  18.2k|}
_RINvNtCsaZdo92nHnrg_3nom10combinator3mapReNtCs4qtBjdjJOwX_15rsonpath_syntax7SegmentNtNtBG_5error18InternalParseErrorINtNtB4_8sequence8PrecededNCINvNtNtB4_5bytes8complete3tagBC_BC_B1j_E0INtB2_3CutINtNtB4_6branch6ChoiceTNCNvNtBG_6parser18descendant_segment0INtNtB4_8internal3MapNvB3y_17wildcard_selectorNvMsq_BG_NtBG_9Selectors3oneENvB3y_21member_name_shorthandNCINvB3y_14failed_segmentB4Y_E0EEEENcNtBE_10Descendant0EBG_:
   74|  21.8k|pub fn map<I, O, E: ParseError<I>, F, G>(parser: F, f: G) -> impl Parser<I, Output = O, Error = E>
   75|  21.8k|where
   76|  21.8k|  F: Parser<I, Error = E>,
   77|  21.8k|  G: FnMut(<F as Parser<I>>::Output) -> O,
   78|       |{
   79|  21.8k|  parser.map(f)
   80|  21.8k|}
_RINvNtCsaZdo92nHnrg_3nom10combinator3mapReNtCs4qtBjdjJOwX_15rsonpath_syntax8SelectorNtNtBG_5error18InternalParseErrorNCINvNtNtB4_5bytes8complete3tagBC_BC_B1k_E0NCNvNtBG_6parser17wildcard_selector0EBG_:
   74|  18.6k|pub fn map<I, O, E: ParseError<I>, F, G>(parser: F, f: G) -> impl Parser<I, Output = O, Error = E>
   75|  18.6k|where
   76|  18.6k|  F: Parser<I, Error = E>,
   77|  18.6k|  G: FnMut(<F as Parser<I>>::Output) -> O,
   78|       |{
   79|  18.6k|  parser.map(f)
   80|  18.6k|}
_RINvNtCsaZdo92nHnrg_3nom10combinator3mapReNtCs4qtBjdjJOwX_15rsonpath_syntax8SelectorNtNtBG_5error18InternalParseErrorNvNtBG_6parser14string_literalNcNtBE_4Name0EBG_:
   74|  29.7k|pub fn map<I, O, E: ParseError<I>, F, G>(parser: F, f: G) -> impl Parser<I, Output = O, Error = E>
   75|  29.7k|where
   76|  29.7k|  F: Parser<I, Error = E>,
   77|  29.7k|  G: FnMut(<F as Parser<I>>::Output) -> O,
   78|       |{
   79|  29.7k|  parser.map(f)
   80|  29.7k|}
_RINvNtCsaZdo92nHnrg_3nom10combinator3mapReNtCs4qtBjdjJOwX_15rsonpath_syntax9SelectorsNtNtBG_5error18InternalParseErrorNvNtBG_6parser17wildcard_selectorNvMsq_BG_BE_3oneEBG_:
   74|  40.1k|pub fn map<I, O, E: ParseError<I>, F, G>(parser: F, f: G) -> impl Parser<I, Output = O, Error = E>
   75|  40.1k|where
   76|  40.1k|  F: Parser<I, Error = E>,
   77|  40.1k|  G: FnMut(<F as Parser<I>>::Output) -> O,
   78|       |{
   79|  40.1k|  parser.map(f)
   80|  40.1k|}
_RINvNtCsaZdo92nHnrg_3nom10combinator3mapReNtNtCs4qtBjdjJOwX_15rsonpath_syntax3num10JsonNumberNtNtBI_5error18InternalParseErrorNvNtBI_6parser5floatNCNvB22_6number0EBI_:
   74|  12.2k|pub fn map<I, O, E: ParseError<I>, F, G>(parser: F, f: G) -> impl Parser<I, Output = O, Error = E>
   75|  12.2k|where
   76|  12.2k|  F: Parser<I, Error = E>,
   77|  12.2k|  G: FnMut(<F as Parser<I>>::Output) -> O,
   78|       |{
   79|  12.2k|  parser.map(f)
   80|  12.2k|}
_RINvNtCsaZdo92nHnrg_3nom10combinator3optReNtNtCs4qtBjdjJOwX_15rsonpath_syntax5error18InternalParseErrorINtNtB4_6branch6ChoiceTNCINvNtNtB4_9character8complete4charBC_BE_E0B20_EEEBI_:
  216|  12.2k|pub fn opt<I: Clone, E: ParseError<I>, F>(
  217|  12.2k|  f: F,
  218|  12.2k|) -> impl Parser<I, Output = Option<<F as Parser<I>>::Output>, Error = E>
  219|  12.2k|where
  220|  12.2k|  F: Parser<I, Error = E>,
  221|       |{
  222|  12.2k|  Opt { parser: f }
  223|  12.2k|}
_RINvNtCsaZdo92nHnrg_3nom10combinator3optReNtNtCs4qtBjdjJOwX_15rsonpath_syntax5error18InternalParseErrorINtNtB4_8sequence8PrecededNCINvNtNtB4_5bytes8complete11tag_no_caseBC_BC_BE_E0IB1E_INtB2_3OptINtNtB4_6branch6ChoiceTNCINvNtNtB4_9character8complete4charBC_BE_E0B3u_EEEINvB3z_6digit1BC_BE_EEEEBI_:
  216|  12.2k|pub fn opt<I: Clone, E: ParseError<I>, F>(
  217|  12.2k|  f: F,
  218|  12.2k|) -> impl Parser<I, Output = Option<<F as Parser<I>>::Output>, Error = E>
  219|  12.2k|where
  220|  12.2k|  F: Parser<I, Error = E>,
  221|       |{
  222|  12.2k|  Opt { parser: f }
  223|  12.2k|}
_RINvNtCsaZdo92nHnrg_3nom10combinator3optReNtNtCs4qtBjdjJOwX_15rsonpath_syntax5error18InternalParseErrorINtNtB4_8sequence8PrecededNCINvNtNtB4_9character8complete4charBC_BE_E0INvB28_6digit1BC_BE_EEEBI_:
  216|  12.2k|pub fn opt<I: Clone, E: ParseError<I>, F>(
  217|  12.2k|  f: F,
  218|  12.2k|) -> impl Parser<I, Output = Option<<F as Parser<I>>::Output>, Error = E>
  219|  12.2k|where
  220|  12.2k|  F: Parser<I, Error = E>,
  221|       |{
  222|  12.2k|  Opt { parser: f }
  223|  12.2k|}
_RINvNtCsaZdo92nHnrg_3nom10combinator3optReNtNtCs4qtBjdjJOwX_15rsonpath_syntax5error18InternalParseErrorNCINvNtBI_6parser17ignore_whitespaceBC_NvB1I_3intBE_E0EBI_:
  216|  3.71k|pub fn opt<I: Clone, E: ParseError<I>, F>(
  217|  3.71k|  f: F,
  218|  3.71k|) -> impl Parser<I, Output = Option<<F as Parser<I>>::Output>, Error = E>
  219|  3.71k|where
  220|  3.71k|  F: Parser<I, Error = E>,
  221|       |{
  222|  3.71k|  Opt { parser: f }
  223|  3.71k|}
_RINvNtCsaZdo92nHnrg_3nom10combinator3optReNtNtCs4qtBjdjJOwX_15rsonpath_syntax5error18InternalParseErrorNCINvNtBI_6parser17ignore_whitespaceINtNtCs6SNw0SRvItZ_4core6option6OptionBC_EINtNtB4_8sequence8PrecededNCINvNtNtB4_9character8complete4charBC_BE_E0INtB2_3OptNCIB1G_BC_NvB1I_3intBE_E0EEBE_E0EBI_:
  216|  1.85k|pub fn opt<I: Clone, E: ParseError<I>, F>(
  217|  1.85k|  f: F,
  218|  1.85k|) -> impl Parser<I, Output = Option<<F as Parser<I>>::Output>, Error = E>
  219|  1.85k|where
  220|  1.85k|  F: Parser<I, Error = E>,
  221|       |{
  222|  1.85k|  Opt { parser: f }
  223|  1.85k|}
_RINvNtCsaZdo92nHnrg_3nom10combinator3optReNtNtCs4qtBjdjJOwX_15rsonpath_syntax5error18InternalParseErrorNCINvNtBI_6parser17ignore_whitespaceNtNvB1I_12logical_expr9BooleanOpINtNtB4_6branch6ChoiceTINtNtB4_8internal3MapNCINvNtNtB4_5bytes8complete3tagBC_BC_BE_E0NCINvB2_5valueBC_B2d_BE_B3r_E0EB36_EEBE_E0EBI_:
  216|  12.1k|pub fn opt<I: Clone, E: ParseError<I>, F>(
  217|  12.1k|  f: F,
  218|  12.1k|) -> impl Parser<I, Output = Option<<F as Parser<I>>::Output>, Error = E>
  219|  12.1k|where
  220|  12.1k|  F: Parser<I, Error = E>,
  221|       |{
  222|  12.1k|  Opt { parser: f }
  223|  12.1k|}
_RINvNtCsaZdo92nHnrg_3nom10combinator3optReNtNtCs4qtBjdjJOwX_15rsonpath_syntax5error18InternalParseErrorNCINvNtNtB4_9character8complete4charBC_BE_E0EBI_:
  216|  10.6k|pub fn opt<I: Clone, E: ParseError<I>, F>(
  217|  10.6k|  f: F,
  218|  10.6k|) -> impl Parser<I, Output = Option<<F as Parser<I>>::Output>, Error = E>
  219|  10.6k|where
  220|  10.6k|  F: Parser<I, Error = E>,
  221|       |{
  222|  10.6k|  Opt { parser: f }
  223|  10.6k|}
_RINvNtCsaZdo92nHnrg_3nom10combinator3optReNtNtCs4qtBjdjJOwX_15rsonpath_syntax5error18InternalParseErrorNvNtBI_6parser3intEBI_:
  216|  14.5k|pub fn opt<I: Clone, E: ParseError<I>, F>(
  217|  14.5k|  f: F,
  218|  14.5k|) -> impl Parser<I, Output = Option<<F as Parser<I>>::Output>, Error = E>
  219|  14.5k|where
  220|  14.5k|  F: Parser<I, Error = E>,
  221|       |{
  222|  14.5k|  Opt { parser: f }
  223|  14.5k|}
_RINvNtCsaZdo92nHnrg_3nom10combinator4intoReNtCs4qtBjdjJOwX_15rsonpath_syntax11LogicalExprNtBH_8SelectorNtNtBH_5error18InternalParseErrorB1D_INtNtB4_8sequence8PrecededNCINvNtNtB4_9character8complete4charBD_B1D_E0NCINvNtBH_6parser17ignore_whitespaceBF_NCNvB3s_15filter_selector0B1D_E0EEBH_:
  859|  4.21k|pub fn into<I, O1, O2, E1, E2, F>(parser: F) -> impl Parser<I, Output = O2, Error = E2>
  860|  4.21k|where
  861|  4.21k|  O2: From<O1>,
  862|  4.21k|  E2: From<E1>,
  863|  4.21k|  E1: ParseError<I>,
  864|  4.21k|  E2: ParseError<I>,
  865|  4.21k|  F: Parser<I, Output = O1, Error = E1>,
  866|       |{
  867|  4.21k|  parser.into::<O2, E2>()
  868|  4.21k|}
_RINvNtCsaZdo92nHnrg_3nom10combinator4intoReNtCs4qtBjdjJOwX_15rsonpath_syntax7LiteralNtBH_10ComparableNtNtBH_5error18InternalParseErrorB1B_NvNtBH_6parser7literalEBH_:
  859|  4.77k|pub fn into<I, O1, O2, E1, E2, F>(parser: F) -> impl Parser<I, Output = O2, Error = E2>
  860|  4.77k|where
  861|  4.77k|  O2: From<O1>,
  862|  4.77k|  E2: From<E1>,
  863|  4.77k|  E1: ParseError<I>,
  864|  4.77k|  E2: ParseError<I>,
  865|  4.77k|  F: Parser<I, Output = O1, Error = E1>,
  866|       |{
  867|  4.77k|  parser.into::<O2, E2>()
  868|  4.77k|}
_RINvNtCsaZdo92nHnrg_3nom10combinator4intoReNtNtCs4qtBjdjJOwX_15rsonpath_syntax3num10JsonNumberNtBJ_7LiteralNtNtBJ_5error18InternalParseErrorB1H_NvNtBJ_6parser6numberEBJ_:
  859|  12.2k|pub fn into<I, O1, O2, E1, E2, F>(parser: F) -> impl Parser<I, Output = O2, Error = E2>
  860|  12.2k|where
  861|  12.2k|  O2: From<O1>,
  862|  12.2k|  E2: From<E1>,
  863|  12.2k|  E1: ParseError<I>,
  864|  12.2k|  E2: ParseError<I>,
  865|  12.2k|  F: Parser<I, Output = O1, Error = E1>,
  866|       |{
  867|  12.2k|  parser.into::<O2, E2>()
  868|  12.2k|}
_RINvNtCsaZdo92nHnrg_3nom10combinator4intoReNtNtCs4qtBjdjJOwX_15rsonpath_syntax3str10JsonStringNtBJ_7LiteralNtNtBJ_5error18InternalParseErrorB1H_NvNtBJ_6parser14string_literalEBJ_:
  859|  12.2k|pub fn into<I, O1, O2, E1, E2, F>(parser: F) -> impl Parser<I, Output = O2, Error = E2>
  860|  12.2k|where
  861|  12.2k|  O2: From<O1>,
  862|  12.2k|  E2: From<E1>,
  863|  12.2k|  E1: ParseError<I>,
  864|  12.2k|  E2: ParseError<I>,
  865|  12.2k|  F: Parser<I, Output = O1, Error = E1>,
  866|       |{
  867|  12.2k|  parser.into::<O2, E2>()
  868|  12.2k|}
_RINvNtCsaZdo92nHnrg_3nom10combinator4peekReNCINvNtNtB4_9character8complete6one_ofBD_BD_uE0ECs4qtBjdjJOwX_15rsonpath_syntax:
  319|  26.1k|pub fn peek<I: Clone, F>(
  320|  26.1k|  parser: F,
  321|  26.1k|) -> impl Parser<I, Output = <F as Parser<I>>::Output, Error = <F as Parser<I>>::Error>
  322|  26.1k|where
  323|  26.1k|  F: Parser<I>,
  324|       |{
  325|  26.1k|  Peek { parser }
  326|  26.1k|}
_RINvNtCsaZdo92nHnrg_3nom10combinator5valueReNtCs4qtBjdjJOwX_15rsonpath_syntax12ComparisonOpNtNtBI_5error18InternalParseErrorNCINvNtNtB4_5bytes8complete3tagBE_BE_B1r_E0EBI_:
  560|  29.7k|pub fn value<I, O1: Clone, E: ParseError<I>, F>(
  561|  29.7k|  val: O1,
  562|  29.7k|  parser: F,
  563|  29.7k|) -> impl Parser<I, Output = O1, Error = E>
  564|  29.7k|where
  565|  29.7k|  F: Parser<I, Error = E>,
  566|       |{
  567|  29.7k|  parser.map(move |_| val.clone())
  568|  29.7k|}
_RINvNtCsaZdo92nHnrg_3nom10combinator5valueReNtCs4qtBjdjJOwX_15rsonpath_syntax12ComparisonOpNtNtBI_5error18InternalParseErrorNCINvNtNtB4_9character8complete4charBE_B1r_E0EBI_:
  560|  14.8k|pub fn value<I, O1: Clone, E: ParseError<I>, F>(
  561|  14.8k|  val: O1,
  562|  14.8k|  parser: F,
  563|  14.8k|) -> impl Parser<I, Output = O1, Error = E>
  564|  14.8k|where
  565|  14.8k|  F: Parser<I, Error = E>,
  566|       |{
  567|  14.8k|  parser.map(move |_| val.clone())
  568|  14.8k|}
_RINvNtCsaZdo92nHnrg_3nom10combinator5valueReNtCs4qtBjdjJOwX_15rsonpath_syntax7LiteralNtNtBI_5error18InternalParseErrorNCINvNtNtB4_5bytes8complete3tagBE_BE_B1l_E0EBI_:
  560|  36.6k|pub fn value<I, O1: Clone, E: ParseError<I>, F>(
  561|  36.6k|  val: O1,
  562|  36.6k|  parser: F,
  563|  36.6k|) -> impl Parser<I, Output = O1, Error = E>
  564|  36.6k|where
  565|  36.6k|  F: Parser<I, Error = E>,
  566|       |{
  567|  36.6k|  parser.map(move |_| val.clone())
  568|  36.6k|}
_RINvNtCsaZdo92nHnrg_3nom10combinator5valueReNtNtCs4qtBjdjJOwX_15rsonpath_syntax6parser16RootSelectorTypeNtNtBK_5error18InternalParseErrorNCINvNtNtB4_9character8complete4charBE_B1E_E0EBK_:
  560|  14.5k|pub fn value<I, O1: Clone, E: ParseError<I>, F>(
  561|  14.5k|  val: O1,
  562|  14.5k|  parser: F,
  563|  14.5k|) -> impl Parser<I, Output = O1, Error = E>
  564|  14.5k|where
  565|  14.5k|  F: Parser<I, Error = E>,
  566|       |{
  567|  14.5k|  parser.map(move |_| val.clone())
  568|  14.5k|}
_RINvNtCsaZdo92nHnrg_3nom10combinator5valueReNtNvNtCs4qtBjdjJOwX_15rsonpath_syntax6parser12logical_expr9BooleanOpNtNtBM_5error18InternalParseErrorNCINvNtNtB4_5bytes8complete3tagBE_BE_B1M_E0EBM_:
  560|  24.3k|pub fn value<I, O1: Clone, E: ParseError<I>, F>(
  561|  24.3k|  val: O1,
  562|  24.3k|  parser: F,
  563|  24.3k|) -> impl Parser<I, Output = O1, Error = E>
  564|  24.3k|where
  565|  24.3k|  F: Parser<I, Error = E>,
  566|       |{
  567|  24.3k|  parser.map(move |_| val.clone())
  568|  24.3k|}
_RINvNtCsaZdo92nHnrg_3nom10combinator9recognizeReNtNtCs4qtBjdjJOwX_15rsonpath_syntax5error18InternalParseErrorINtNtB4_6branch6ChoiceTINtNtB4_8sequence8PrecededNCINvNtNtB4_9character8complete4charBI_BK_E0INvB2B_6digit1BI_BK_EEB3e_EEEBO_:
  631|  29.7k|pub fn recognize<I: Clone + Offset + Input, E: ParseError<I>, F>(
  632|  29.7k|  parser: F,
  633|  29.7k|) -> impl Parser<I, Output = I, Error = E>
  634|  29.7k|where
  635|  29.7k|  F: Parser<I, Error = E>,
  636|       |{
  637|  29.7k|  Recognize { parser }
  638|  29.7k|}
_RINvNtCsaZdo92nHnrg_3nom10combinator9recognizeReNtNtCs4qtBjdjJOwX_15rsonpath_syntax5error18InternalParseErrorINtNtB4_6branch6ChoiceTINtNtB4_8sequence8PrecededNCINvNtNtB4_9character8complete4charBI_BK_E0NvNvNtBO_6parser5float10base_floatEB3e_EEEBO_:
  631|  12.2k|pub fn recognize<I: Clone + Offset + Input, E: ParseError<I>, F>(
  632|  12.2k|  parser: F,
  633|  12.2k|) -> impl Parser<I, Output = I, Error = E>
  634|  12.2k|where
  635|  12.2k|  F: Parser<I, Error = E>,
  636|       |{
  637|  12.2k|  Recognize { parser }
  638|  12.2k|}
_RINvNtCsaZdo92nHnrg_3nom10combinator9recognizeReNtNtCs4qtBjdjJOwX_15rsonpath_syntax5error18InternalParseErrorTINvNtNtB4_9character8complete6digit1BI_BK_EINtB2_3OptINtNtB4_8sequence8PrecededNCINvB1N_4charBI_BK_E0B1K_EEIB2s_IB2C_NCINvNtNtB4_5bytes8complete11tag_no_caseBI_BI_BK_E0IB2C_IB2s_INtNtB4_6branch6ChoiceTB31_B31_EEEB1K_EEEEEBO_:
  631|  12.2k|pub fn recognize<I: Clone + Offset + Input, E: ParseError<I>, F>(
  632|  12.2k|  parser: F,
  633|  12.2k|) -> impl Parser<I, Output = I, Error = E>
  634|  12.2k|where
  635|  12.2k|  F: Parser<I, Error = E>,
  636|       |{
  637|  12.2k|  Recognize { parser }
  638|  12.2k|}
_RINvXNtCsaZdo92nHnrg_3nom10combinatorINtB3_3OptINtNtB5_8sequence8PrecededNCINvNtNtB5_5bytes8complete11tag_no_caseReB1N_NtNtCs4qtBjdjJOwX_15rsonpath_syntax5error18InternalParseErrorE0IBK_IBA_INtNtB5_6branch6ChoiceTNCINvNtNtB5_9character8complete4charB1N_B1T_E0B3p_EEEINvB3u_6digit1B1N_B1T_EEEEINtNtB5_8internal6ParserB1N_E7processINtB4J_7OutputMNtB4J_4EmitB5w_NtB4J_9StreamingEEB1X_:
  239|    916|  fn process<OM: OutputMode>(&mut self, input: I) -> PResult<OM, I, Self::Output, Self::Error> {
  240|    916|    let i = input.clone();
  241|    916|    match self
  242|    916|      .parser
  243|    916|      .process::<OutputM<OM::Output, Check, OM::Incomplete>>(input)
  244|       |    {
  245|      0|      Ok((i, o)) => Ok((i, OM::Output::map(o, Some))),
  246|    916|      Err(Err::Error(_)) => Ok((i, OM::Output::bind(|| None))),
  247|      0|      Err(Err::Failure(e)) => Err(Err::Failure(e)),
  248|      0|      Err(Err::Incomplete(i)) => Err(Err::Incomplete(i)),
  249|       |    }
  250|    916|  }
_RINvXNtCsaZdo92nHnrg_3nom10combinatorINtB3_3OptINtNtB5_8sequence8PrecededNCINvNtNtB5_9character8complete4charReNtNtCs4qtBjdjJOwX_15rsonpath_syntax5error18InternalParseErrorE0INvB1e_6digit1B1J_B1L_EEEINtNtB5_8internal6ParserB1J_E7processINtB3e_7OutputMNtB3e_4EmitB41_NtB3e_9StreamingEEB1P_:
  239|    916|  fn process<OM: OutputMode>(&mut self, input: I) -> PResult<OM, I, Self::Output, Self::Error> {
  240|    916|    let i = input.clone();
  241|    916|    match self
  242|    916|      .parser
  243|    916|      .process::<OutputM<OM::Output, Check, OM::Incomplete>>(input)
  244|       |    {
  245|    146|      Ok((i, o)) => Ok((i, OM::Output::map(o, Some))),
  246|    770|      Err(Err::Error(_)) => Ok((i, OM::Output::bind(|| None))),
  247|      0|      Err(Err::Failure(e)) => Err(Err::Failure(e)),
  248|      0|      Err(Err::Incomplete(i)) => Err(Err::Incomplete(i)),
  249|       |    }
  250|    916|  }
_RINvXNtCsaZdo92nHnrg_3nom10combinatorINtB3_3OptNCINvNtCs4qtBjdjJOwX_15rsonpath_syntax6parser17ignore_whitespaceINtNtCs6SNw0SRvItZ_4core6option6OptionReEINtNtB5_8sequence8PrecededNCINvNtNtB5_9character8complete4charB2n_NtNtBQ_5error18InternalParseErrorE0IBA_NCIBM_B2n_NvBO_3intB3u_E0EEB3u_E0EINtNtB5_8internal6ParserB2n_E7processINtB4I_7OutputMNtB4I_4EmitB5v_NtB4I_9StreamingEEBQ_:
  239|  1.85k|  fn process<OM: OutputMode>(&mut self, input: I) -> PResult<OM, I, Self::Output, Self::Error> {
  240|  1.85k|    let i = input.clone();
  241|  1.85k|    match self
  242|  1.85k|      .parser
  243|  1.85k|      .process::<OutputM<OM::Output, Check, OM::Incomplete>>(input)
  244|       |    {
  245|    610|      Ok((i, o)) => Ok((i, OM::Output::map(o, Some))),
  246|  1.24k|      Err(Err::Error(_)) => Ok((i, OM::Output::bind(|| None))),
  247|      0|      Err(Err::Failure(e)) => Err(Err::Failure(e)),
  248|      0|      Err(Err::Incomplete(i)) => Err(Err::Incomplete(i)),
  249|       |    }
  250|  1.85k|  }
_RINvXNtCsaZdo92nHnrg_3nom10combinatorINtB3_3OptNCINvNtCs4qtBjdjJOwX_15rsonpath_syntax6parser17ignore_whitespaceNtNvBO_12logical_expr9BooleanOpINtNtB5_6branch6ChoiceTINtNtB5_8internal3MapNCINvNtNtB5_5bytes8complete3tagReB3t_NtNtBQ_5error18InternalParseErrorE0NCINvB3_5valueB3t_B1L_B3z_B2Y_E0EB2D_EEB3z_E0EINtB2G_6ParserB3t_E7processINtB2G_7OutputMNtB2G_4EmitB5y_NtB2G_9StreamingEEBQ_:
  239|  12.1k|  fn process<OM: OutputMode>(&mut self, input: I) -> PResult<OM, I, Self::Output, Self::Error> {
  240|  12.1k|    let i = input.clone();
  241|  12.1k|    match self
  242|  12.1k|      .parser
  243|  12.1k|      .process::<OutputM<OM::Output, Check, OM::Incomplete>>(input)
  244|       |    {
  245|  3.23k|      Ok((i, o)) => Ok((i, OM::Output::map(o, Some))),
  246|  8.94k|      Err(Err::Error(_)) => Ok((i, OM::Output::bind(|| None))),
  247|      0|      Err(Err::Failure(e)) => Err(Err::Failure(e)),
  248|      0|      Err(Err::Incomplete(i)) => Err(Err::Incomplete(i)),
  249|       |    }
  250|  12.1k|  }
_RINvXNtCsaZdo92nHnrg_3nom10combinatorINtB3_3OptNCINvNtCs4qtBjdjJOwX_15rsonpath_syntax6parser17ignore_whitespaceReNvBO_3intNtNtBQ_5error18InternalParseErrorE0EINtNtB5_8internal6ParserB1L_E7processINtB2z_7OutputMNtB2z_4EmitB3m_NtB2z_9StreamingEEBQ_:
  239|  2.46k|  fn process<OM: OutputMode>(&mut self, input: I) -> PResult<OM, I, Self::Output, Self::Error> {
  240|  2.46k|    let i = input.clone();
  241|  2.46k|    match self
  242|  2.46k|      .parser
  243|  2.46k|      .process::<OutputM<OM::Output, Check, OM::Incomplete>>(input)
  244|       |    {
  245|  1.15k|      Ok((i, o)) => Ok((i, OM::Output::map(o, Some))),
  246|  1.31k|      Err(Err::Error(_)) => Ok((i, OM::Output::bind(|| None))),
  247|      0|      Err(Err::Failure(e)) => Err(Err::Failure(e)),
  248|      0|      Err(Err::Incomplete(i)) => Err(Err::Incomplete(i)),
  249|       |    }
  250|  2.46k|  }
_RINvXNtCsaZdo92nHnrg_3nom10combinatorINtB3_3OptNCINvNtNtB5_9character8complete4charReNtNtCs4qtBjdjJOwX_15rsonpath_syntax5error18InternalParseErrorE0EINtNtB5_8internal6ParserB1j_E7processINtB2q_7OutputMNtB2q_4EmitB3d_NtB2q_9StreamingEEB1p_:
  239|  10.6k|  fn process<OM: OutputMode>(&mut self, input: I) -> PResult<OM, I, Self::Output, Self::Error> {
  240|  10.6k|    let i = input.clone();
  241|  10.6k|    match self
  242|  10.6k|      .parser
  243|  10.6k|      .process::<OutputM<OM::Output, Check, OM::Incomplete>>(input)
  244|       |    {
  245|  3.24k|      Ok((i, o)) => Ok((i, OM::Output::map(o, Some))),
  246|  7.40k|      Err(Err::Error(_)) => Ok((i, OM::Output::bind(|| None))),
  247|      0|      Err(Err::Failure(e)) => Err(Err::Failure(e)),
  248|      0|      Err(Err::Incomplete(i)) => Err(Err::Incomplete(i)),
  249|       |    }
  250|  10.6k|  }
_RINvXs0_NtCsaZdo92nHnrg_3nom10combinatorINtB6_4PeekNCINvNtNtB8_9character8complete6one_ofReB1p_uE0EINtNtB8_8internal6ParserB1p_E7processINtB1C_7OutputMNtB1C_4EmitB2p_NtB1C_9StreamingEECs4qtBjdjJOwX_15rsonpath_syntax:
  341|  26.1k|  fn process<OM: OutputMode>(&mut self, input: I) -> PResult<OM, I, Self::Output, Self::Error> {
  342|  26.1k|    let i = input.clone();
  343|  26.1k|    match self.parser.process::<OM>(input) {
  344|  18.9k|      Ok((_, o)) => Ok((i, o)),
  345|  7.27k|      Err(e) => Err(e),
  346|       |    }
  347|  26.1k|  }
_RINvXs5_NtCsaZdo92nHnrg_3nom10combinatorINtB6_9RecognizeINtNtB8_6branch6ChoiceTINtNtB8_8sequence8PrecededNCINvNtNtB8_9character8complete4charReNtNtCs4qtBjdjJOwX_15rsonpath_syntax5error18InternalParseErrorE0INvB1K_6digit1B2f_B2h_EEB3i_EEEINtNtB8_8internal6ParserB2f_E7processINtB3Q_7OutputMNtB3Q_4EmitB4D_NtB3Q_9StreamingEEB2l_:
  654|  29.7k|  fn process<OM: OutputMode>(&mut self, input: I) -> PResult<OM, I, Self::Output, Self::Error> {
  655|  29.7k|    let i = input.clone();
  656|  29.7k|    match self
  657|  29.7k|      .parser
  658|  29.7k|      .process::<OutputM<Check, OM::Error, OM::Incomplete>>(i)
  659|       |    {
  660|  18.5k|      Ok((i, _)) => {
  661|  18.5k|        let index = input.offset(&i);
  662|  18.5k|        Ok((i, OM::Output::bind(|| input.take(index))))
  663|       |      }
  664|  11.1k|      Err(e) => Err(e),
  665|       |    }
  666|  29.7k|  }
_RINvXs5_NtCsaZdo92nHnrg_3nom10combinatorINtB6_9RecognizeINtNtB8_6branch6ChoiceTINtNtB8_8sequence8PrecededNCINvNtNtB8_9character8complete4charReNtNtCs4qtBjdjJOwX_15rsonpath_syntax5error18InternalParseErrorE0NvNvNtB2l_6parser5float10base_floatEB3i_EEEINtNtB8_8internal6ParserB2f_E7processINtB42_7OutputMNtB42_4EmitB4P_NtB42_9StreamingEEB2l_:
  654|  12.2k|  fn process<OM: OutputMode>(&mut self, input: I) -> PResult<OM, I, Self::Output, Self::Error> {
  655|  12.2k|    let i = input.clone();
  656|  12.2k|    match self
  657|  12.2k|      .parser
  658|  12.2k|      .process::<OutputM<Check, OM::Error, OM::Incomplete>>(i)
  659|       |    {
  660|    916|      Ok((i, _)) => {
  661|    916|        let index = input.offset(&i);
  662|    916|        Ok((i, OM::Output::bind(|| input.take(index))))
  663|       |      }
  664|  11.3k|      Err(e) => Err(e),
  665|       |    }
  666|  12.2k|  }
_RINvXs5_NtCsaZdo92nHnrg_3nom10combinatorINtB6_9RecognizeTINvNtNtB8_9character8complete6digit1ReNtNtCs4qtBjdjJOwX_15rsonpath_syntax5error18InternalParseErrorEINtB6_3OptINtNtB8_8sequence8PrecededNCINvBW_4charB1t_B1v_E0BT_EEIB2w_IB2G_NCINvNtNtB8_5bytes8complete11tag_no_caseB1t_B1t_B1v_E0IB2G_IB2w_INtNtB8_6branch6ChoiceTB35_B35_EEEBT_EEEEEINtNtB8_8internal6ParserB1t_E7processINtB5s_7OutputMNtB5s_4EmitB6f_NtB5s_9StreamingEEB1z_:
  654|  12.2k|  fn process<OM: OutputMode>(&mut self, input: I) -> PResult<OM, I, Self::Output, Self::Error> {
  655|  12.2k|    let i = input.clone();
  656|  12.2k|    match self
  657|  12.2k|      .parser
  658|  12.2k|      .process::<OutputM<Check, OM::Error, OM::Incomplete>>(i)
  659|       |    {
  660|    916|      Ok((i, _)) => {
  661|    916|        let index = input.offset(&i);
  662|    916|        Ok((i, OM::Output::bind(|| input.take(index))))
  663|       |      }
  664|  11.3k|      Err(e) => Err(e),
  665|       |    }
  666|  12.2k|  }
_RINvXs7_NtCsaZdo92nHnrg_3nom10combinatorINtB6_3CutNCNvNvNtCs4qtBjdjJOwX_15rsonpath_syntax6parser12logical_expr12parse_single0EINtNtB8_8internal6ParserReE7processINtB23_7OutputMNtB23_4EmitB2O_NtB23_9StreamingEEBU_:
  824|  3.19k|  fn process<OM: OutputMode>(&mut self, input: I) -> PResult<OM, I, Self::Output, Self::Error> {
  825|  3.19k|    match self
  826|  3.19k|      .parser
  827|  3.19k|      .process::<OutputM<OM::Output, Emit, OM::Incomplete>>(input)
  828|       |    {
  829|      0|      Err(Err::Error(e)) => Err(Err::Failure(e)),
  830|      0|      Err(Err::Failure(e)) => Err(Err::Failure(e)),
  831|      0|      Err(Err::Incomplete(i)) => Err(Err::Incomplete(i)),
  832|  3.19k|      Ok((i, o)) => Ok((i, o)),
  833|       |    }
  834|  3.19k|  }
_RNCINvNtCsaZdo92nHnrg_3nom10combinator5valueReNtCs4qtBjdjJOwX_15rsonpath_syntax12ComparisonOpNtNtBK_5error18InternalParseErrorNCINvNtNtB6_5bytes8complete3tagBG_BG_B1t_E0E0BK_:
  567|  3.63k|  parser.map(move |_| val.clone())
_RNCINvNtCsaZdo92nHnrg_3nom10combinator5valueReNtCs4qtBjdjJOwX_15rsonpath_syntax12ComparisonOpNtNtBK_5error18InternalParseErrorNCINvNtNtB6_9character8complete4charBG_B1t_E0E0BK_:
  567|  1.14k|  parser.map(move |_| val.clone())
_RNCINvNtCsaZdo92nHnrg_3nom10combinator5valueReNtCs4qtBjdjJOwX_15rsonpath_syntax7LiteralNtNtBK_5error18InternalParseErrorNCINvNtNtB6_5bytes8complete3tagBG_BG_B1n_E0E0BK_:
  567|  3.50k|  parser.map(move |_| val.clone())
_RNCINvNtCsaZdo92nHnrg_3nom10combinator5valueReNtNtCs4qtBjdjJOwX_15rsonpath_syntax6parser16RootSelectorTypeNtNtBM_5error18InternalParseErrorNCINvNtNtB6_9character8complete4charBG_B1G_E0E0BM_:
  567|  7.27k|  parser.map(move |_| val.clone())
_RNCINvNtCsaZdo92nHnrg_3nom10combinator5valueReNtNvNtCs4qtBjdjJOwX_15rsonpath_syntax6parser12logical_expr9BooleanOpNtNtBO_5error18InternalParseErrorNCINvNtNtB6_5bytes8complete3tagBG_BG_B1O_E0E0BO_:
  567|  3.23k|  parser.map(move |_| val.clone())
_RNCINvXs5_NtCsaZdo92nHnrg_3nom10combinatorINtB8_9RecognizeINtNtBa_6branch6ChoiceTINtNtBa_8sequence8PrecededNCINvNtNtBa_9character8complete4charReNtNtCs4qtBjdjJOwX_15rsonpath_syntax5error18InternalParseErrorE0INvB1M_6digit1B2h_B2j_EEB3k_EEEINtNtBa_8internal6ParserB2h_E7processINtB3S_7OutputMNtB3S_4EmitB4F_NtB3S_9StreamingEE0B2n_:
  662|  18.5k|        Ok((i, OM::Output::bind(|| input.take(index))))
_RNCINvXs5_NtCsaZdo92nHnrg_3nom10combinatorINtB8_9RecognizeINtNtBa_6branch6ChoiceTINtNtBa_8sequence8PrecededNCINvNtNtBa_9character8complete4charReNtNtCs4qtBjdjJOwX_15rsonpath_syntax5error18InternalParseErrorE0NvNvNtB2n_6parser5float10base_floatEB3k_EEEINtNtBa_8internal6ParserB2h_E7processINtB44_7OutputMNtB44_4EmitB4R_NtB44_9StreamingEE0B2n_:
  662|    916|        Ok((i, OM::Output::bind(|| input.take(index))))
_RNCINvXs5_NtCsaZdo92nHnrg_3nom10combinatorINtB8_9RecognizeTINvNtNtBa_9character8complete6digit1ReNtNtCs4qtBjdjJOwX_15rsonpath_syntax5error18InternalParseErrorEINtB8_3OptINtNtBa_8sequence8PrecededNCINvBY_4charB1v_B1x_E0BV_EEIB2y_IB2I_NCINvNtNtBa_5bytes8complete11tag_no_caseB1v_B1v_B1x_E0IB2I_IB2y_INtNtBa_6branch6ChoiceTB37_B37_EEEBV_EEEEEINtNtBa_8internal6ParserB1v_E7processINtB5u_7OutputMNtB5u_4EmitB6h_NtB5u_9StreamingEE0B1B_:
  662|    916|        Ok((i, OM::Output::bind(|| input.take(index))))
_RINvXNtCsaZdo92nHnrg_3nom10combinatorINtB3_3OptNvNtCs4qtBjdjJOwX_15rsonpath_syntax6parser3intEINtNtB5_8internal6ParserReE7processINtB1x_7OutputMNtB1x_4EmitB2i_NtB1x_9StreamingEEBN_:
  239|  14.5k|  fn process<OM: OutputMode>(&mut self, input: I) -> PResult<OM, I, Self::Output, Self::Error> {
  240|  14.5k|    let i = input.clone();
  241|  14.5k|    match self
  242|  14.5k|      .parser
  243|  14.5k|      .process::<OutputM<OM::Output, Check, OM::Incomplete>>(input)
  244|       |    {
  245|  8.91k|      Ok((i, o)) => Ok((i, OM::Output::map(o, Some))),
  246|  5.62k|      Err(Err::Error(_)) => Ok((i, OM::Output::bind(|| None))),
  247|      0|      Err(Err::Failure(e)) => Err(Err::Failure(e)),
  248|      0|      Err(Err::Incomplete(i)) => Err(Err::Incomplete(i)),
  249|       |    }
  250|  14.5k|  }
_RINvXs7_NtCsaZdo92nHnrg_3nom10combinatorINtB6_3CutINtNtB8_6branch6ChoiceTNCNvNtCs4qtBjdjJOwX_15rsonpath_syntax6parser18descendant_segment0INtNtB8_8internal3MapNvB1d_17wildcard_selectorNvMsq_B1f_NtB1f_9Selectors3oneENvB1d_21member_name_shorthandNCINvB1d_14failed_segmentB36_E0EEEINtB2f_6ParserReE7processINtB2f_7OutputMNtB2f_4EmitB56_NtB2f_9StreamingEEB1f_:
  824|  3.59k|  fn process<OM: OutputMode>(&mut self, input: I) -> PResult<OM, I, Self::Output, Self::Error> {
  825|  3.59k|    match self
  826|  3.59k|      .parser
  827|  3.59k|      .process::<OutputM<OM::Output, Emit, OM::Incomplete>>(input)
  828|       |    {
  829|      0|      Err(Err::Error(e)) => Err(Err::Failure(e)),
  830|      0|      Err(Err::Failure(e)) => Err(Err::Failure(e)),
  831|      0|      Err(Err::Incomplete(i)) => Err(Err::Incomplete(i)),
  832|  3.59k|      Ok((i, o)) => Ok((i, o)),
  833|       |    }
  834|  3.59k|  }

_RNvXs_NtCsaZdo92nHnrg_3nom5errorINtB4_5ErrorReEINtB4_10ParseErrorBG_E15from_error_kindCs4qtBjdjJOwX_15rsonpath_syntax:
   79|   265k|  fn from_error_kind(input: I, kind: ErrorKind) -> Self {
   80|   265k|    Error { input, code: kind }
   81|   265k|  }
_RNvXs_NtCsaZdo92nHnrg_3nom5errorINtB4_5ErrorReEINtB4_10ParseErrorBG_E6appendCs4qtBjdjJOwX_15rsonpath_syntax:
   83|  70.8k|  fn append(_: I, _: ErrorKind, other: Self) -> Self {
   84|  70.8k|    other
   85|  70.8k|  }
_RNvXsd_NtCsaZdo92nHnrg_3nom5erroruINtB5_10ParseErrorReE15from_error_kindCs4qtBjdjJOwX_15rsonpath_syntax:
  192|  14.7k|  fn from_error_kind(_: I, _: ErrorKind) -> Self {}
_RNvYINtNtCsaZdo92nHnrg_3nom5error5ErrorReEINtB5_10ParseErrorBB_E9from_charCs4qtBjdjJOwX_15rsonpath_syntax:
   32|  21.8k|  fn from_char(input: I, _: char) -> Self {
   33|  21.8k|    Self::from_error_kind(input, ErrorKind::Char)
   34|  21.8k|  }
_RNvYuINtNtCsaZdo92nHnrg_3nom5error10ParseErrorReE9from_charCs4qtBjdjJOwX_15rsonpath_syntax:
   32|  7.44k|  fn from_char(input: I, _: char) -> Self {
   33|  7.44k|    Self::from_error_kind(input, ErrorKind::Char)
   34|  7.44k|  }
_RNvYNtNtCs4qtBjdjJOwX_15rsonpath_syntax5error18InternalParseErrorINtNtCsaZdo92nHnrg_3nom5error10ParseErrorReE2orB6_:
   38|   103k|  fn or(self, other: Self) -> Self {
   39|   103k|    other
   40|   103k|  }
_RNvYNtNtCs4qtBjdjJOwX_15rsonpath_syntax5error18InternalParseErrorINtNtCsaZdo92nHnrg_3nom5error10ParseErrorReE9from_charB6_:
   32|   122k|  fn from_char(input: I, _: char) -> Self {
   33|   122k|    Self::from_error_kind(input, ErrorKind::Char)
   34|   122k|  }

_RNvXNtCsaZdo92nHnrg_3nom8internalINtNtCs6SNw0SRvItZ_4core6result6ResultTReNtCs4qtBjdjJOwX_15rsonpath_syntax7SegmentEINtB2_3ErrNtNtB1c_5error18InternalParseErrorEEINtB2_6FinishB18_B1a_B20_E6finishB1c_:
   37|  21.8k|  fn finish(self) -> Result<(I, O), E> {
   38|      0|    match self {
   39|  21.8k|      Ok(res) => Ok(res),
   40|      0|      Err(Err::Error(e)) | Err(Err::Failure(e)) => Err(e),
   41|       |      Err(Err::Incomplete(_)) => {
   42|      0|        panic!("Cannot call `finish()` on `Err(Err::Incomplete(_))`: this result means that the parser does not have enough data to decide, you should gather more data and try to reapply the parser instead")
   43|       |      }
   44|       |    }
   45|  21.8k|  }
_RNvXNtCsaZdo92nHnrg_3nom8internalINtNtCs6SNw0SRvItZ_4core6result6ResultTReNtCs4qtBjdjJOwX_15rsonpath_syntax8SelectorEINtB2_3ErrNtNtB1c_5error18InternalParseErrorEEINtB2_6FinishB18_B1a_B21_E6finishB1c_:
   37|  29.7k|  fn finish(self) -> Result<(I, O), E> {
   38|      0|    match self {
   39|  29.7k|      Ok(res) => Ok(res),
   40|      0|      Err(Err::Error(e)) | Err(Err::Failure(e)) => Err(e),
   41|       |      Err(Err::Incomplete(_)) => {
   42|      0|        panic!("Cannot call `finish()` on `Err(Err::Incomplete(_))`: this result means that the parser does not have enough data to decide, you should gather more data and try to reapply the parser instead")
   43|       |      }
   44|       |    }
   45|  29.7k|  }
_RNvXNtCsaZdo92nHnrg_3nom8internalINtNtCs6SNw0SRvItZ_4core6result6ResultTRecEINtB2_3ErrINtNtB4_5error5ErrorB18_EEEINtB2_6FinishB18_cB1m_E6finishCs4qtBjdjJOwX_15rsonpath_syntax:
   37|    883|  fn finish(self) -> Result<(I, O), E> {
   38|      0|    match self {
   39|    883|      Ok(res) => Ok(res),
   40|      0|      Err(Err::Error(e)) | Err(Err::Failure(e)) => Err(e),
   41|       |      Err(Err::Incomplete(_)) => {
   42|      0|        panic!("Cannot call `finish()` on `Err(Err::Incomplete(_))`: this result means that the parser does not have enough data to decide, you should gather more data and try to reapply the parser instead")
   43|       |      }
   44|       |    }
   45|    883|  }
_RINvXsa_NtCsaZdo92nHnrg_3nom8internalNtB6_4EmitNtB6_4Mode4bindINtNtCs6SNw0SRvItZ_4core6option6OptionReENCINvXsf_B6_NCINvNtCs4qtBjdjJOwX_15rsonpath_syntax6parser17ignore_whitespaceBY_INtNtB8_8sequence8PrecededNCINvNtNtB8_9character8complete4charB1A_NtNtB1W_5error18InternalParseErrorE0INtNtB8_10combinator3OptNCIB1S_B1A_NvB1U_3intB3Y_E0EEB3Y_E0INtB6_6ParserB1A_E7processINtB6_7OutputMBz_NtB6_5CheckNtB6_9StreamingEEs_0EB1W_:
  272|    610|  fn bind<T, F: FnOnce() -> T>(f: F) -> Self::Output<T> {
  273|    610|    f()
  274|    610|  }
_RINvXsa_NtCsaZdo92nHnrg_3nom8internalNtB6_4EmitNtB6_4Mode4bindNtCs4qtBjdjJOwX_15rsonpath_syntax10ComparableNCINvXsf_B6_NCNvNtB10_6parser10comparable0INtB6_6ParserReE7processINtB6_7OutputMBz_Bz_NtB6_9StreamingEEs_0EB10_:
  272|  1.88k|  fn bind<T, F: FnOnce() -> T>(f: F) -> Self::Output<T> {
  273|  1.88k|    f()
  274|  1.88k|  }
_RINvXsa_NtCsaZdo92nHnrg_3nom8internalNtB6_4EmitNtB6_4Mode4bindNtCs4qtBjdjJOwX_15rsonpath_syntax11LogicalExprNCINvXsf_B6_NCINvNtB10_6parser17ignore_whitespaceBY_NCNvB1Z_15filter_selector0NtNtB10_5error18InternalParseErrorE0INtB6_6ParserReE7processINtB6_7OutputMBz_Bz_NtB6_9StreamingEEs_0EB10_:
  272|  4.21k|  fn bind<T, F: FnOnce() -> T>(f: F) -> Self::Output<T> {
  273|  4.21k|    f()
  274|  4.21k|  }
_RINvXsa_NtCsaZdo92nHnrg_3nom8internalNtB6_4EmitNtB6_4Mode4bindNtCs4qtBjdjJOwX_15rsonpath_syntax11LogicalExprNCINvXsf_B6_NCNvNtB10_6parser12logical_expr0INtB6_6ParserReE7processINtB6_7OutputMBz_Bz_NtB6_9StreamingEEs_0EB10_:
  272|  8.94k|  fn bind<T, F: FnOnce() -> T>(f: F) -> Self::Output<T> {
  273|  8.94k|    f()
  274|  8.94k|  }
_RINvXsa_NtCsaZdo92nHnrg_3nom8internalNtB6_4EmitNtB6_4Mode4bindNtCs4qtBjdjJOwX_15rsonpath_syntax11LogicalExprNCINvXsf_B6_NCNvNtB10_6parser12logical_exprs0_0INtB6_6ParserReE7processINtB6_7OutputMBz_Bz_NtB6_9StreamingEEs_0EB10_:
  272|  1.53k|  fn bind<T, F: FnOnce() -> T>(f: F) -> Self::Output<T> {
  273|  1.53k|    f()
  274|  1.53k|  }
_RINvXsa_NtCsaZdo92nHnrg_3nom8internalNtB6_4EmitNtB6_4Mode4bindNtCs4qtBjdjJOwX_15rsonpath_syntax11LogicalExprNCINvXsf_B6_NCNvNtB10_6parser12logical_exprs_0INtB6_6ParserReE7processINtB6_7OutputMBz_Bz_NtB6_9StreamingEEs_0EB10_:
  272|  1.69k|  fn bind<T, F: FnOnce() -> T>(f: F) -> Self::Output<T> {
  273|  1.69k|    f()
  274|  1.69k|  }
_RINvXsa_NtCsaZdo92nHnrg_3nom8internalNtB6_4EmitNtB6_4Mode4bindNtCs4qtBjdjJOwX_15rsonpath_syntax11LogicalExprNCINvXsf_B6_NCNvNtB10_6parser15filter_selector0INtB6_6ParserReE7processINtB6_7OutputMBz_Bz_NtB6_9StreamingEEs_0EB10_:
  272|  4.21k|  fn bind<T, F: FnOnce() -> T>(f: F) -> Self::Output<T> {
  273|  4.21k|    f()
  274|  4.21k|  }
_RINvXsa_NtCsaZdo92nHnrg_3nom8internalNtB6_4EmitNtB6_4Mode4bindNtCs4qtBjdjJOwX_15rsonpath_syntax11LogicalExprNCINvXsf_B6_NCNvNvNtB10_6parser12logical_expr12parse_single0INtB6_6ParserReE7processINtB6_7OutputMBz_Bz_NtB6_9StreamingEEs_0EB10_:
  272|  3.19k|  fn bind<T, F: FnOnce() -> T>(f: F) -> Self::Output<T> {
  273|  3.19k|    f()
  274|  3.19k|  }
_RINvXsa_NtCsaZdo92nHnrg_3nom8internalNtB6_4EmitNtB6_4Mode4bindNtCs4qtBjdjJOwX_15rsonpath_syntax7LiteralNCINvXsf_B6_NvNtB10_6parser7literalINtB6_6ParserReE7processINtB6_7OutputMBz_Bz_NtB6_9StreamingEEs_0EB10_:
  272|  2.89k|  fn bind<T, F: FnOnce() -> T>(f: F) -> Self::Output<T> {
  273|  2.89k|    f()
  274|  2.89k|  }
_RINvXsa_NtCsaZdo92nHnrg_3nom8internalNtB6_4EmitNtB6_4Mode4bindNtCs4qtBjdjJOwX_15rsonpath_syntax7SegmentNCINvXsf_B6_NCNvNtB10_6parser12filter_query0INtB6_6ParserReE7processINtB6_7OutputMBz_Bz_NtB6_9StreamingEEs_0EB10_:
  272|  2.73k|  fn bind<T, F: FnOnce() -> T>(f: F) -> Self::Output<T> {
  273|  2.73k|    f()
  274|  2.73k|  }
_RINvXsa_NtCsaZdo92nHnrg_3nom8internalNtB6_4EmitNtB6_4Mode4bindNtCs4qtBjdjJOwX_15rsonpath_syntax7SegmentNCINvXsf_B6_NCNvNtB10_6parser12filter_querys_0INtB6_6ParserReE7processINtB6_7OutputMBz_Bz_NtB6_9StreamingEEs_0EB10_:
  272|  16.1k|  fn bind<T, F: FnOnce() -> T>(f: F) -> Self::Output<T> {
  273|  16.1k|    f()
  274|  16.1k|  }
_RINvXsa_NtCsaZdo92nHnrg_3nom8internalNtB6_4EmitNtB6_4Mode4bindNtCs4qtBjdjJOwX_15rsonpath_syntax7SegmentNCINvXsf_B6_NCNvNtB10_6parser7segment0INtB6_6ParserReE7processINtB6_7OutputMBz_Bz_NtB6_9StreamingEEs_0EB10_:
  272|    862|  fn bind<T, F: FnOnce() -> T>(f: F) -> Self::Output<T> {
  273|    862|    f()
  274|    862|  }
_RINvXsa_NtCsaZdo92nHnrg_3nom8internalNtB6_4EmitNtB6_4Mode4bindNtCs4qtBjdjJOwX_15rsonpath_syntax7SegmentNCINvXsf_B6_NCNvNtB10_6parser7segments_0INtB6_6ParserReE7processINtB6_7OutputMBz_Bz_NtB6_9StreamingEEs_0EB10_:
  272|  2.10k|  fn bind<T, F: FnOnce() -> T>(f: F) -> Self::Output<T> {
  273|  2.10k|    f()
  274|  2.10k|  }
_RINvXsa_NtCsaZdo92nHnrg_3nom8internalNtB6_4EmitNtB6_4Mode4bindNtCs4qtBjdjJOwX_15rsonpath_syntax8SelectorNCINvXsf_B6_NCINvNtB10_6parser17ignore_whitespaceBY_NCNvB1V_8selector0NtNtB10_5error18InternalParseErrorE0INtB6_6ParserReE7processINtB6_7OutputMBz_Bz_NtB6_9StreamingEEs_0EB10_:
  272|  4.21k|  fn bind<T, F: FnOnce() -> T>(f: F) -> Self::Output<T> {
  273|  4.21k|    f()
  274|  4.21k|  }
_RINvXsa_NtCsaZdo92nHnrg_3nom8internalNtB6_4EmitNtB6_4Mode4bindNtCs4qtBjdjJOwX_15rsonpath_syntax8SelectorNCINvXsf_B6_NCINvNtB10_6parser17ignore_whitespaceBY_NvB1V_13name_selectorNtNtB10_5error18InternalParseErrorE0INtB6_6ParserReE7processINtB6_7OutputMBz_Bz_NtB6_9StreamingEEs_0EB10_:
  272|  11.0k|  fn bind<T, F: FnOnce() -> T>(f: F) -> Self::Output<T> {
  273|  11.0k|    f()
  274|  11.0k|  }
_RINvXsa_NtCsaZdo92nHnrg_3nom8internalNtB6_4EmitNtB6_4Mode4bindNtCs4qtBjdjJOwX_15rsonpath_syntax8SelectorNCINvXsf_B6_NCINvNtB10_6parser17ignore_whitespaceBY_NvB1V_14index_selectorNtNtB10_5error18InternalParseErrorE0INtB6_6ParserReE7processINtB6_7OutputMBz_Bz_NtB6_9StreamingEEs_0EB10_:
  272|  8.47k|  fn bind<T, F: FnOnce() -> T>(f: F) -> Self::Output<T> {
  273|  8.47k|    f()
  274|  8.47k|  }
_RINvXsa_NtCsaZdo92nHnrg_3nom8internalNtB6_4EmitNtB6_4Mode4bindNtCs4qtBjdjJOwX_15rsonpath_syntax8SelectorNCINvXsf_B6_NCINvNtB10_6parser17ignore_whitespaceBY_NvB1V_14slice_selectorNtNtB10_5error18InternalParseErrorE0INtB6_6ParserReE7processINtB6_7OutputMBz_Bz_NtB6_9StreamingEEs_0EB10_:
  272|  1.85k|  fn bind<T, F: FnOnce() -> T>(f: F) -> Self::Output<T> {
  273|  1.85k|    f()
  274|  1.85k|  }
_RINvXsa_NtCsaZdo92nHnrg_3nom8internalNtB6_4EmitNtB6_4Mode4bindNtCs4qtBjdjJOwX_15rsonpath_syntax8SelectorNCINvXsf_B6_NCINvNtB10_6parser17ignore_whitespaceBY_NvB1V_17wildcard_selectorNtNtB10_5error18InternalParseErrorE0INtB6_6ParserReE7processINtB6_7OutputMBz_Bz_NtB6_9StreamingEEs_0EB10_:
  272|  4.14k|  fn bind<T, F: FnOnce() -> T>(f: F) -> Self::Output<T> {
  273|  4.14k|    f()
  274|  4.14k|  }
_RINvXsa_NtCsaZdo92nHnrg_3nom8internalNtB6_4EmitNtB6_4Mode4bindNtCs4qtBjdjJOwX_15rsonpath_syntax8SelectorNCINvXsf_B6_NCNvNtB10_6parser8selector0INtB6_6ParserReE7processINtB6_7OutputMBz_Bz_NtB6_9StreamingEEs_0EB10_:
  272|  4.21k|  fn bind<T, F: FnOnce() -> T>(f: F) -> Self::Output<T> {
  273|  4.21k|    f()
  274|  4.21k|  }
_RINvXsa_NtCsaZdo92nHnrg_3nom8internalNtB6_4EmitNtB6_4Mode4bindNtCs4qtBjdjJOwX_15rsonpath_syntax8SelectorNCINvXsf_B6_NvNtB10_6parser13name_selectorINtB6_6ParserReE7processINtB6_7OutputMBz_Bz_NtB6_9StreamingEEs_0EB10_:
  272|  11.0k|  fn bind<T, F: FnOnce() -> T>(f: F) -> Self::Output<T> {
  273|  11.0k|    f()
  274|  11.0k|  }
_RINvXsa_NtCsaZdo92nHnrg_3nom8internalNtB6_4EmitNtB6_4Mode4bindNtCs4qtBjdjJOwX_15rsonpath_syntax8SelectorNCINvXsf_B6_NvNtB10_6parser14index_selectorINtB6_6ParserReE7processINtB6_7OutputMBz_Bz_NtB6_9StreamingEEs_0EB10_:
  272|  8.47k|  fn bind<T, F: FnOnce() -> T>(f: F) -> Self::Output<T> {
  273|  8.47k|    f()
  274|  8.47k|  }
_RINvXsa_NtCsaZdo92nHnrg_3nom8internalNtB6_4EmitNtB6_4Mode4bindNtCs4qtBjdjJOwX_15rsonpath_syntax8SelectorNCINvXsf_B6_NvNtB10_6parser14slice_selectorINtB6_6ParserReE7processINtB6_7OutputMBz_Bz_NtB6_9StreamingEEs_0EB10_:
  272|  1.85k|  fn bind<T, F: FnOnce() -> T>(f: F) -> Self::Output<T> {
  273|  1.85k|    f()
  274|  1.85k|  }
_RINvXsa_NtCsaZdo92nHnrg_3nom8internalNtB6_4EmitNtB6_4Mode4bindNtCs4qtBjdjJOwX_15rsonpath_syntax8SelectorNCINvXsf_B6_NvNtB10_6parser17wildcard_selectorINtB6_6ParserReE7processINtB6_7OutputMBz_Bz_NtB6_9StreamingEEs_0EB10_:
  272|  4.14k|  fn bind<T, F: FnOnce() -> T>(f: F) -> Self::Output<T> {
  273|  4.14k|    f()
  274|  4.14k|  }
_RINvXsa_NtCsaZdo92nHnrg_3nom8internalNtB6_4EmitNtB6_4Mode4bindNtCs4qtBjdjJOwX_15rsonpath_syntax9SelectorsNCINvXsf_B6_NCNvNtB10_6parser13child_segment0INtB6_6ParserReE7processINtB6_7OutputMBz_Bz_NtB6_9StreamingEEs_0EB10_:
  272|  18.2k|  fn bind<T, F: FnOnce() -> T>(f: F) -> Self::Output<T> {
  273|  18.2k|    f()
  274|  18.2k|  }
_RINvXsa_NtCsaZdo92nHnrg_3nom8internalNtB6_4EmitNtB6_4Mode4bindNtCs4qtBjdjJOwX_15rsonpath_syntax9SelectorsNCINvXsf_B6_NCNvNtB10_6parser18descendant_segment0INtB6_6ParserReE7processINtB6_7OutputMBz_Bz_NtB6_9StreamingEEs_0EB10_:
  272|  3.59k|  fn bind<T, F: FnOnce() -> T>(f: F) -> Self::Output<T> {
  273|  3.59k|    f()
  274|  3.59k|  }
_RINvXsa_NtCsaZdo92nHnrg_3nom8internalNtB6_4EmitNtB6_4Mode4bindNtNtCs4qtBjdjJOwX_15rsonpath_syntax3num10JsonNumberNCINvXsf_B6_NvNtB12_6parser6numberINtB6_6ParserReE7processINtB6_7OutputMBz_Bz_NtB6_9StreamingEEs_0EB12_:
  272|    916|  fn bind<T, F: FnOnce() -> T>(f: F) -> Self::Output<T> {
  273|    916|    f()
  274|    916|  }
_RINvXsa_NtCsaZdo92nHnrg_3nom8internalNtB6_4EmitNtB6_4Mode4bindNtNtCs4qtBjdjJOwX_15rsonpath_syntax3num9JsonFloatNCINvXsf_B6_NvNtB12_6parser5floatINtB6_6ParserReE7processINtB6_7OutputMBz_Bz_NtB6_9StreamingEEs_0EB12_:
  272|    916|  fn bind<T, F: FnOnce() -> T>(f: F) -> Self::Output<T> {
  273|    916|    f()
  274|    916|  }
_RINvXsa_NtCsaZdo92nHnrg_3nom8internalNtB6_4EmitNtB6_4Mode4bindNtNtCs4qtBjdjJOwX_15rsonpath_syntax3str10JsonStringNCINvXsf_B6_NCNvNtB12_6parser6string0INtB6_6ParserReE7processINtB6_7OutputMBz_Bz_NtB6_9StreamingEEs_0EB12_:
  272|  11.5k|  fn bind<T, F: FnOnce() -> T>(f: F) -> Self::Output<T> {
  273|  11.5k|    f()
  274|  11.5k|  }
_RINvXsa_NtCsaZdo92nHnrg_3nom8internalNtB6_4EmitNtB6_4Mode4bindNtNtCs4qtBjdjJOwX_15rsonpath_syntax3str10JsonStringNCINvXsf_B6_NvNtB12_6parser14string_literalINtB6_6ParserReE7processINtB6_7OutputMBz_Bz_NtB6_9StreamingEEs_0EB12_:
  272|  11.5k|  fn bind<T, F: FnOnce() -> T>(f: F) -> Self::Output<T> {
  273|  11.5k|    f()
  274|  11.5k|  }
_RINvXsa_NtCsaZdo92nHnrg_3nom8internalNtB6_4EmitNtB6_4Mode4bindNtNvNtCs4qtBjdjJOwX_15rsonpath_syntax6parser12logical_expr9BooleanOpNCINvXsf_B6_NCINvB12_17ignore_whitespaceBY_INtNtB8_6branch6ChoiceTINtB6_3MapNCINvNtNtB8_5bytes8complete3tagReB3N_NtNtB14_5error18InternalParseErrorE0NCINvNtB8_10combinator5valueB3N_BY_B3T_B3i_E0EB38_EEB3T_E0INtB6_6ParserB3N_E7processINtB6_7OutputMBz_NtB6_5CheckNtB6_9StreamingEEs_0EB14_:
  272|  3.23k|  fn bind<T, F: FnOnce() -> T>(f: F) -> Self::Output<T> {
  273|  3.23k|    f()
  274|  3.23k|  }
_RINvXsa_NtCsaZdo92nHnrg_3nom8internalNtB6_4EmitNtB6_4Mode4bindReNCINvXsf_B6_NCINvNtCs4qtBjdjJOwX_15rsonpath_syntax6parser17ignore_whitespaceBY_NvB1h_3intNtNtB1j_5error18InternalParseErrorE0INtB6_6ParserBY_E7processINtB6_7OutputMBz_NtB6_5CheckNtB6_9StreamingEEs_0EB1j_:
  272|  1.15k|  fn bind<T, F: FnOnce() -> T>(f: F) -> Self::Output<T> {
  273|  1.15k|    f()
  274|  1.15k|  }
_RINvXsa_NtCsaZdo92nHnrg_3nom8internalNtB6_4EmitNtB6_4Mode4bindReNCINvXsf_B6_NvNtCs4qtBjdjJOwX_15rsonpath_syntax6parser3intINtB6_6ParserBY_E7processINtB6_7OutputMBz_Bz_NtB6_9StreamingEEs_0EB1g_:
  272|  1.15k|  fn bind<T, F: FnOnce() -> T>(f: F) -> Self::Output<T> {
  273|  1.15k|    f()
  274|  1.15k|  }
_RINvXsa_NtCsaZdo92nHnrg_3nom8internalNtB6_4EmitNtB6_4Mode4bindReNCINvXsf_B6_NvNtCs4qtBjdjJOwX_15rsonpath_syntax6parser3intINtB6_6ParserBY_E7processINtB6_7OutputMBz_NtB6_5CheckNtB6_9StreamingEEs_0EB1g_:
  272|  8.91k|  fn bind<T, F: FnOnce() -> T>(f: F) -> Self::Output<T> {
  273|  8.91k|    f()
  274|  8.91k|  }
_RINvXsb_NtCsaZdo92nHnrg_3nom8internalNtB6_5CheckNtB6_4Mode4bindReNCINvXsf_B6_NvNvNtCs4qtBjdjJOwX_15rsonpath_syntax6parser5float10base_floatINtB6_6ParserBZ_E7processINtB6_7OutputMBz_NtB6_4EmitNtB6_9StreamingEEs_0EB1j_:
  302|    916|  fn bind<T, F: FnOnce() -> T>(_: F) -> Self::Output<T> {}
_RINvXsb_NtCsaZdo92nHnrg_3nom8internalNtB6_5CheckNtB6_4Mode4bindcNCINvXsf_B6_NCINvNtCs4qtBjdjJOwX_15rsonpath_syntax6parser17ignore_whitespacecNCINvNtNtB8_9character8complete4charReNtNtB1j_5error18InternalParseErrorE0B2R_E0INtB6_6ParserB2P_E7processINtB6_7OutputMBz_NtB6_4EmitNtB6_9StreamingEEs_0EB1j_:
  302|  1.85k|  fn bind<T, F: FnOnce() -> T>(_: F) -> Self::Output<T> {}
_RINvXsf_NtCsaZdo92nHnrg_3nom8internalNCINvNtCs4qtBjdjJOwX_15rsonpath_syntax6parser17ignore_whitespaceINtNtCs6SNw0SRvItZ_4core6option6OptionReEINtNtB8_8sequence8PrecededNCINvNtNtB8_9character8complete4charB2d_NtNtBG_5error18InternalParseErrorE0INtNtB8_10combinator3OptNCIBC_B2d_NvBE_3intB3k_E0EEB3k_E0INtB6_6ParserB2d_E7processINtB6_7OutputMNtB6_4EmitNtB6_5CheckNtB6_9StreamingEEBG_:
  516|  1.85k|  fn process<OM: OutputMode>(&mut self, i: I) -> PResult<OM, I, Self::Output, Self::Error> {
  517|  1.85k|    let (i, o) = self(i).map_err(|e| match e {
  518|       |      Err::Incomplete(i) => Err::Incomplete(i),
  519|       |      Err::Error(e) => Err::Error(OM::Error::bind(|| e)),
  520|       |      Err::Failure(e) => Err::Failure(e),
  521|  1.24k|    })?;
  522|    610|    Ok((i, OM::Output::bind(|| o)))
  523|  1.85k|  }
_RINvXsf_NtCsaZdo92nHnrg_3nom8internalNCINvNtCs4qtBjdjJOwX_15rsonpath_syntax6parser17ignore_whitespaceNtBG_11LogicalExprNCNvBE_15filter_selector0NtNtBG_5error18InternalParseErrorE0INtB6_6ParserReE7processINtB6_7OutputMNtB6_4EmitB3t_NtB6_9StreamingEEBG_:
  516|  4.21k|  fn process<OM: OutputMode>(&mut self, i: I) -> PResult<OM, I, Self::Output, Self::Error> {
  517|  4.21k|    let (i, o) = self(i).map_err(|e| match e {
  518|       |      Err::Incomplete(i) => Err::Incomplete(i),
  519|       |      Err::Error(e) => Err::Error(OM::Error::bind(|| e)),
  520|       |      Err::Failure(e) => Err::Failure(e),
  521|      0|    })?;
  522|  4.21k|    Ok((i, OM::Output::bind(|| o)))
  523|  4.21k|  }
_RINvXsf_NtCsaZdo92nHnrg_3nom8internalNCINvNtCs4qtBjdjJOwX_15rsonpath_syntax6parser17ignore_whitespaceNtBG_8SelectorNCNvBE_8selector0NtNtBG_5error18InternalParseErrorE0INtB6_6ParserReE7processINtB6_7OutputMNtB6_4EmitB3h_NtB6_9StreamingEEBG_:
  516|  4.21k|  fn process<OM: OutputMode>(&mut self, i: I) -> PResult<OM, I, Self::Output, Self::Error> {
  517|  4.21k|    let (i, o) = self(i).map_err(|e| match e {
  518|       |      Err::Incomplete(i) => Err::Incomplete(i),
  519|       |      Err::Error(e) => Err::Error(OM::Error::bind(|| e)),
  520|       |      Err::Failure(e) => Err::Failure(e),
  521|      0|    })?;
  522|  4.21k|    Ok((i, OM::Output::bind(|| o)))
  523|  4.21k|  }
_RINvXsf_NtCsaZdo92nHnrg_3nom8internalNCINvNtCs4qtBjdjJOwX_15rsonpath_syntax6parser17ignore_whitespaceNtBG_8SelectorNvBE_13name_selectorNtNtBG_5error18InternalParseErrorE0INtB6_6ParserReE7processINtB6_7OutputMNtB6_4EmitB3k_NtB6_9StreamingEEBG_:
  516|  29.7k|  fn process<OM: OutputMode>(&mut self, i: I) -> PResult<OM, I, Self::Output, Self::Error> {
  517|  29.7k|    let (i, o) = self(i).map_err(|e| match e {
  518|       |      Err::Incomplete(i) => Err::Incomplete(i),
  519|       |      Err::Error(e) => Err::Error(OM::Error::bind(|| e)),
  520|       |      Err::Failure(e) => Err::Failure(e),
  521|  18.6k|    })?;
  522|  11.0k|    Ok((i, OM::Output::bind(|| o)))
  523|  29.7k|  }
_RINvXsf_NtCsaZdo92nHnrg_3nom8internalNCINvNtCs4qtBjdjJOwX_15rsonpath_syntax6parser17ignore_whitespaceNtBG_8SelectorNvBE_14index_selectorNtNtBG_5error18InternalParseErrorE0INtB6_6ParserReE7processINtB6_7OutputMNtB6_4EmitB3l_NtB6_9StreamingEEBG_:
  516|  12.6k|  fn process<OM: OutputMode>(&mut self, i: I) -> PResult<OM, I, Self::Output, Self::Error> {
  517|  12.6k|    let (i, o) = self(i).map_err(|e| match e {
  518|       |      Err::Incomplete(i) => Err::Incomplete(i),
  519|       |      Err::Error(e) => Err::Error(OM::Error::bind(|| e)),
  520|       |      Err::Failure(e) => Err::Failure(e),
  521|  4.21k|    })?;
  522|  8.47k|    Ok((i, OM::Output::bind(|| o)))
  523|  12.6k|  }
_RINvXsf_NtCsaZdo92nHnrg_3nom8internalNCINvNtCs4qtBjdjJOwX_15rsonpath_syntax6parser17ignore_whitespaceNtBG_8SelectorNvBE_14slice_selectorNtNtBG_5error18InternalParseErrorE0INtB6_6ParserReE7processINtB6_7OutputMNtB6_4EmitB3l_NtB6_9StreamingEEBG_:
  516|  14.5k|  fn process<OM: OutputMode>(&mut self, i: I) -> PResult<OM, I, Self::Output, Self::Error> {
  517|  14.5k|    let (i, o) = self(i).map_err(|e| match e {
  518|       |      Err::Incomplete(i) => Err::Incomplete(i),
  519|       |      Err::Error(e) => Err::Error(OM::Error::bind(|| e)),
  520|       |      Err::Failure(e) => Err::Failure(e),
  521|  12.6k|    })?;
  522|  1.85k|    Ok((i, OM::Output::bind(|| o)))
  523|  14.5k|  }
_RINvXsf_NtCsaZdo92nHnrg_3nom8internalNCINvNtCs4qtBjdjJOwX_15rsonpath_syntax6parser17ignore_whitespaceNtBG_8SelectorNvBE_17wildcard_selectorNtNtBG_5error18InternalParseErrorE0INtB6_6ParserReE7processINtB6_7OutputMNtB6_4EmitB3o_NtB6_9StreamingEEBG_:
  516|  18.6k|  fn process<OM: OutputMode>(&mut self, i: I) -> PResult<OM, I, Self::Output, Self::Error> {
  517|  18.6k|    let (i, o) = self(i).map_err(|e| match e {
  518|       |      Err::Incomplete(i) => Err::Incomplete(i),
  519|       |      Err::Error(e) => Err::Error(OM::Error::bind(|| e)),
  520|       |      Err::Failure(e) => Err::Failure(e),
  521|  14.5k|    })?;
  522|  4.14k|    Ok((i, OM::Output::bind(|| o)))
  523|  18.6k|  }
_RINvXsf_NtCsaZdo92nHnrg_3nom8internalNCINvNtCs4qtBjdjJOwX_15rsonpath_syntax6parser17ignore_whitespaceNtNvBE_12logical_expr9BooleanOpINtNtB8_6branch6ChoiceTINtB6_3MapNCINvNtNtB8_5bytes8complete3tagReB38_NtNtBG_5error18InternalParseErrorE0NCINvNtB8_10combinator5valueB38_B1B_B3e_B2D_E0EB2t_EEB3e_E0INtB6_6ParserB38_E7processINtB6_7OutputMNtB6_4EmitNtB6_5CheckNtB6_9StreamingEEBG_:
  516|  12.1k|  fn process<OM: OutputMode>(&mut self, i: I) -> PResult<OM, I, Self::Output, Self::Error> {
  517|  12.1k|    let (i, o) = self(i).map_err(|e| match e {
  518|       |      Err::Incomplete(i) => Err::Incomplete(i),
  519|       |      Err::Error(e) => Err::Error(OM::Error::bind(|| e)),
  520|       |      Err::Failure(e) => Err::Failure(e),
  521|  8.94k|    })?;
  522|  3.23k|    Ok((i, OM::Output::bind(|| o)))
  523|  12.1k|  }
_RINvXsf_NtCsaZdo92nHnrg_3nom8internalNCINvNtCs4qtBjdjJOwX_15rsonpath_syntax6parser17ignore_whitespaceReNvBE_3intNtNtBG_5error18InternalParseErrorE0INtB6_6ParserB1B_E7processINtB6_7OutputMNtB6_4EmitNtB6_5CheckNtB6_9StreamingEEBG_:
  516|  2.46k|  fn process<OM: OutputMode>(&mut self, i: I) -> PResult<OM, I, Self::Output, Self::Error> {
  517|  2.46k|    let (i, o) = self(i).map_err(|e| match e {
  518|       |      Err::Incomplete(i) => Err::Incomplete(i),
  519|       |      Err::Error(e) => Err::Error(OM::Error::bind(|| e)),
  520|       |      Err::Failure(e) => Err::Failure(e),
  521|  1.31k|    })?;
  522|  1.15k|    Ok((i, OM::Output::bind(|| o)))
  523|  2.46k|  }
_RINvXsf_NtCsaZdo92nHnrg_3nom8internalNCINvNtCs4qtBjdjJOwX_15rsonpath_syntax6parser17ignore_whitespacecNCINvNtNtB8_9character8complete4charReNtNtBG_5error18InternalParseErrorE0B2e_E0INtB6_6ParserB2c_E7processINtB6_7OutputMNtB6_5CheckNtB6_4EmitNtB6_9StreamingEEBG_:
  516|  14.5k|  fn process<OM: OutputMode>(&mut self, i: I) -> PResult<OM, I, Self::Output, Self::Error> {
  517|  14.5k|    let (i, o) = self(i).map_err(|e| match e {
  518|       |      Err::Incomplete(i) => Err::Incomplete(i),
  519|       |      Err::Error(e) => Err::Error(OM::Error::bind(|| e)),
  520|       |      Err::Failure(e) => Err::Failure(e),
  521|  12.6k|    })?;
  522|  1.85k|    Ok((i, OM::Output::bind(|| o)))
  523|  14.5k|  }
_RINvXsf_NtCsaZdo92nHnrg_3nom8internalNCNvNtCs4qtBjdjJOwX_15rsonpath_syntax6parser10comparable0INtB6_6ParserReE7processINtB6_7OutputMNtB6_4EmitB26_NtB6_9StreamingEEBF_:
  516|  1.88k|  fn process<OM: OutputMode>(&mut self, i: I) -> PResult<OM, I, Self::Output, Self::Error> {
  517|  1.88k|    let (i, o) = self(i).map_err(|e| match e {
  518|       |      Err::Incomplete(i) => Err::Incomplete(i),
  519|       |      Err::Error(e) => Err::Error(OM::Error::bind(|| e)),
  520|       |      Err::Failure(e) => Err::Failure(e),
  521|      0|    })?;
  522|  1.88k|    Ok((i, OM::Output::bind(|| o)))
  523|  1.88k|  }
_RINvXsf_NtCsaZdo92nHnrg_3nom8internalNCNvNtCs4qtBjdjJOwX_15rsonpath_syntax6parser12filter_query0INtB6_6ParserReE7processINtB6_7OutputMNtB6_4EmitB28_NtB6_9StreamingEEBF_:
  516|  18.9k|  fn process<OM: OutputMode>(&mut self, i: I) -> PResult<OM, I, Self::Output, Self::Error> {
  517|  18.9k|    let (i, o) = self(i).map_err(|e| match e {
  518|       |      Err::Incomplete(i) => Err::Incomplete(i),
  519|       |      Err::Error(e) => Err::Error(OM::Error::bind(|| e)),
  520|       |      Err::Failure(e) => Err::Failure(e),
  521|  16.1k|    })?;
  522|  2.73k|    Ok((i, OM::Output::bind(|| o)))
  523|  18.9k|  }
_RINvXsf_NtCsaZdo92nHnrg_3nom8internalNCNvNtCs4qtBjdjJOwX_15rsonpath_syntax6parser12filter_querys_0INtB6_6ParserReE7processINtB6_7OutputMNtB6_4EmitB2a_NtB6_9StreamingEEBF_:
  516|  16.1k|  fn process<OM: OutputMode>(&mut self, i: I) -> PResult<OM, I, Self::Output, Self::Error> {
  517|  16.1k|    let (i, o) = self(i).map_err(|e| match e {
  518|       |      Err::Incomplete(i) => Err::Incomplete(i),
  519|       |      Err::Error(e) => Err::Error(OM::Error::bind(|| e)),
  520|       |      Err::Failure(e) => Err::Failure(e),
  521|      0|    })?;
  522|  16.1k|    Ok((i, OM::Output::bind(|| o)))
  523|  16.1k|  }
_RINvXsf_NtCsaZdo92nHnrg_3nom8internalNCNvNtCs4qtBjdjJOwX_15rsonpath_syntax6parser12logical_expr0INtB6_6ParserReE7processINtB6_7OutputMNtB6_4EmitB28_NtB6_9StreamingEEBF_:
  516|  8.94k|  fn process<OM: OutputMode>(&mut self, i: I) -> PResult<OM, I, Self::Output, Self::Error> {
  517|  8.94k|    let (i, o) = self(i).map_err(|e| match e {
  518|       |      Err::Incomplete(i) => Err::Incomplete(i),
  519|       |      Err::Error(e) => Err::Error(OM::Error::bind(|| e)),
  520|       |      Err::Failure(e) => Err::Failure(e),
  521|      0|    })?;
  522|  8.94k|    Ok((i, OM::Output::bind(|| o)))
  523|  8.94k|  }
_RINvXsf_NtCsaZdo92nHnrg_3nom8internalNCNvNtCs4qtBjdjJOwX_15rsonpath_syntax6parser12logical_exprs0_0INtB6_6ParserReE7processINtB6_7OutputMNtB6_4EmitB2b_NtB6_9StreamingEEBF_:
  516|  1.53k|  fn process<OM: OutputMode>(&mut self, i: I) -> PResult<OM, I, Self::Output, Self::Error> {
  517|  1.53k|    let (i, o) = self(i).map_err(|e| match e {
  518|       |      Err::Incomplete(i) => Err::Incomplete(i),
  519|       |      Err::Error(e) => Err::Error(OM::Error::bind(|| e)),
  520|       |      Err::Failure(e) => Err::Failure(e),
  521|      0|    })?;
  522|  1.53k|    Ok((i, OM::Output::bind(|| o)))
  523|  1.53k|  }
_RINvXsf_NtCsaZdo92nHnrg_3nom8internalNCNvNtCs4qtBjdjJOwX_15rsonpath_syntax6parser12logical_exprs_0INtB6_6ParserReE7processINtB6_7OutputMNtB6_4EmitB2a_NtB6_9StreamingEEBF_:
  516|  1.69k|  fn process<OM: OutputMode>(&mut self, i: I) -> PResult<OM, I, Self::Output, Self::Error> {
  517|  1.69k|    let (i, o) = self(i).map_err(|e| match e {
  518|       |      Err::Incomplete(i) => Err::Incomplete(i),
  519|       |      Err::Error(e) => Err::Error(OM::Error::bind(|| e)),
  520|       |      Err::Failure(e) => Err::Failure(e),
  521|      0|    })?;
  522|  1.69k|    Ok((i, OM::Output::bind(|| o)))
  523|  1.69k|  }
_RINvXsf_NtCsaZdo92nHnrg_3nom8internalNCNvNtCs4qtBjdjJOwX_15rsonpath_syntax6parser13child_segment0INtB6_6ParserReE7processINtB6_7OutputMNtB6_4EmitB29_NtB6_9StreamingEEBF_:
  516|  18.2k|  fn process<OM: OutputMode>(&mut self, i: I) -> PResult<OM, I, Self::Output, Self::Error> {
  517|  18.2k|    let (i, o) = self(i).map_err(|e| match e {
  518|       |      Err::Incomplete(i) => Err::Incomplete(i),
  519|       |      Err::Error(e) => Err::Error(OM::Error::bind(|| e)),
  520|       |      Err::Failure(e) => Err::Failure(e),
  521|      0|    })?;
  522|  18.2k|    Ok((i, OM::Output::bind(|| o)))
  523|  18.2k|  }
_RINvXsf_NtCsaZdo92nHnrg_3nom8internalNCNvNtCs4qtBjdjJOwX_15rsonpath_syntax6parser15filter_selector0INtB6_6ParserReE7processINtB6_7OutputMNtB6_4EmitB2b_NtB6_9StreamingEEBF_:
  516|  4.21k|  fn process<OM: OutputMode>(&mut self, i: I) -> PResult<OM, I, Self::Output, Self::Error> {
  517|  4.21k|    let (i, o) = self(i).map_err(|e| match e {
  518|       |      Err::Incomplete(i) => Err::Incomplete(i),
  519|       |      Err::Error(e) => Err::Error(OM::Error::bind(|| e)),
  520|       |      Err::Failure(e) => Err::Failure(e),
  521|      0|    })?;
  522|  4.21k|    Ok((i, OM::Output::bind(|| o)))
  523|  4.21k|  }
_RINvXsf_NtCsaZdo92nHnrg_3nom8internalNCNvNtCs4qtBjdjJOwX_15rsonpath_syntax6parser18descendant_segment0INtB6_6ParserReE7processINtB6_7OutputMNtB6_4EmitB2e_NtB6_9StreamingEEBF_:
  516|  3.59k|  fn process<OM: OutputMode>(&mut self, i: I) -> PResult<OM, I, Self::Output, Self::Error> {
  517|  3.59k|    let (i, o) = self(i).map_err(|e| match e {
  518|       |      Err::Incomplete(i) => Err::Incomplete(i),
  519|       |      Err::Error(e) => Err::Error(OM::Error::bind(|| e)),
  520|       |      Err::Failure(e) => Err::Failure(e),
  521|      0|    })?;
  522|  3.59k|    Ok((i, OM::Output::bind(|| o)))
  523|  3.59k|  }
_RINvXsf_NtCsaZdo92nHnrg_3nom8internalNCNvNtCs4qtBjdjJOwX_15rsonpath_syntax6parser6string0INtB6_6ParserReE7processINtB6_7OutputMNtB6_4EmitB21_NtB6_9StreamingEEBF_:
  516|  11.5k|  fn process<OM: OutputMode>(&mut self, i: I) -> PResult<OM, I, Self::Output, Self::Error> {
  517|  11.5k|    let (i, o) = self(i).map_err(|e| match e {
  518|       |      Err::Incomplete(i) => Err::Incomplete(i),
  519|       |      Err::Error(e) => Err::Error(OM::Error::bind(|| e)),
  520|       |      Err::Failure(e) => Err::Failure(e),
  521|      0|    })?;
  522|  11.5k|    Ok((i, OM::Output::bind(|| o)))
  523|  11.5k|  }
_RINvXsf_NtCsaZdo92nHnrg_3nom8internalNCNvNtCs4qtBjdjJOwX_15rsonpath_syntax6parser7segment0INtB6_6ParserReE7processINtB6_7OutputMNtB6_4EmitB22_NtB6_9StreamingEEBF_:
  516|  2.96k|  fn process<OM: OutputMode>(&mut self, i: I) -> PResult<OM, I, Self::Output, Self::Error> {
  517|  2.96k|    let (i, o) = self(i).map_err(|e| match e {
  518|       |      Err::Incomplete(i) => Err::Incomplete(i),
  519|       |      Err::Error(e) => Err::Error(OM::Error::bind(|| e)),
  520|       |      Err::Failure(e) => Err::Failure(e),
  521|  2.10k|    })?;
  522|    862|    Ok((i, OM::Output::bind(|| o)))
  523|  2.96k|  }
_RINvXsf_NtCsaZdo92nHnrg_3nom8internalNCNvNtCs4qtBjdjJOwX_15rsonpath_syntax6parser7segments_0INtB6_6ParserReE7processINtB6_7OutputMNtB6_4EmitB24_NtB6_9StreamingEEBF_:
  516|  2.10k|  fn process<OM: OutputMode>(&mut self, i: I) -> PResult<OM, I, Self::Output, Self::Error> {
  517|  2.10k|    let (i, o) = self(i).map_err(|e| match e {
  518|       |      Err::Incomplete(i) => Err::Incomplete(i),
  519|       |      Err::Error(e) => Err::Error(OM::Error::bind(|| e)),
  520|       |      Err::Failure(e) => Err::Failure(e),
  521|      0|    })?;
  522|  2.10k|    Ok((i, OM::Output::bind(|| o)))
  523|  2.10k|  }
_RINvXsf_NtCsaZdo92nHnrg_3nom8internalNCNvNtCs4qtBjdjJOwX_15rsonpath_syntax6parser8selector0INtB6_6ParserReE7processINtB6_7OutputMNtB6_4EmitB23_NtB6_9StreamingEEBF_:
  516|  4.21k|  fn process<OM: OutputMode>(&mut self, i: I) -> PResult<OM, I, Self::Output, Self::Error> {
  517|  4.21k|    let (i, o) = self(i).map_err(|e| match e {
  518|       |      Err::Incomplete(i) => Err::Incomplete(i),
  519|       |      Err::Error(e) => Err::Error(OM::Error::bind(|| e)),
  520|       |      Err::Failure(e) => Err::Failure(e),
  521|      0|    })?;
  522|  4.21k|    Ok((i, OM::Output::bind(|| o)))
  523|  4.21k|  }
_RINvXsf_NtCsaZdo92nHnrg_3nom8internalNCNvNvNtCs4qtBjdjJOwX_15rsonpath_syntax6parser12logical_expr12parse_single0INtB6_6ParserReE7processINtB6_7OutputMNtB6_4EmitB2o_NtB6_9StreamingEEBH_:
  516|  3.19k|  fn process<OM: OutputMode>(&mut self, i: I) -> PResult<OM, I, Self::Output, Self::Error> {
  517|  3.19k|    let (i, o) = self(i).map_err(|e| match e {
  518|       |      Err::Incomplete(i) => Err::Incomplete(i),
  519|       |      Err::Error(e) => Err::Error(OM::Error::bind(|| e)),
  520|       |      Err::Failure(e) => Err::Failure(e),
  521|      0|    })?;
  522|  3.19k|    Ok((i, OM::Output::bind(|| o)))
  523|  3.19k|  }
_RINvXsf_NtCsaZdo92nHnrg_3nom8internalNvNtCs4qtBjdjJOwX_15rsonpath_syntax6parser13name_selectorINtB6_6ParserReE7processINtB6_7OutputMNtB6_4EmitB26_NtB6_9StreamingEEBD_:
  516|  29.7k|  fn process<OM: OutputMode>(&mut self, i: I) -> PResult<OM, I, Self::Output, Self::Error> {
  517|  29.7k|    let (i, o) = self(i).map_err(|e| match e {
  518|       |      Err::Incomplete(i) => Err::Incomplete(i),
  519|       |      Err::Error(e) => Err::Error(OM::Error::bind(|| e)),
  520|       |      Err::Failure(e) => Err::Failure(e),
  521|  18.6k|    })?;
  522|  11.0k|    Ok((i, OM::Output::bind(|| o)))
  523|  29.7k|  }
_RINvXsf_NtCsaZdo92nHnrg_3nom8internalNvNtCs4qtBjdjJOwX_15rsonpath_syntax6parser14index_selectorINtB6_6ParserReE7processINtB6_7OutputMNtB6_4EmitB27_NtB6_9StreamingEEBD_:
  516|  12.6k|  fn process<OM: OutputMode>(&mut self, i: I) -> PResult<OM, I, Self::Output, Self::Error> {
  517|  12.6k|    let (i, o) = self(i).map_err(|e| match e {
  518|       |      Err::Incomplete(i) => Err::Incomplete(i),
  519|       |      Err::Error(e) => Err::Error(OM::Error::bind(|| e)),
  520|       |      Err::Failure(e) => Err::Failure(e),
  521|  4.21k|    })?;
  522|  8.47k|    Ok((i, OM::Output::bind(|| o)))
  523|  12.6k|  }
_RINvXsf_NtCsaZdo92nHnrg_3nom8internalNvNtCs4qtBjdjJOwX_15rsonpath_syntax6parser14slice_selectorINtB6_6ParserReE7processINtB6_7OutputMNtB6_4EmitB27_NtB6_9StreamingEEBD_:
  516|  14.5k|  fn process<OM: OutputMode>(&mut self, i: I) -> PResult<OM, I, Self::Output, Self::Error> {
  517|  14.5k|    let (i, o) = self(i).map_err(|e| match e {
  518|       |      Err::Incomplete(i) => Err::Incomplete(i),
  519|       |      Err::Error(e) => Err::Error(OM::Error::bind(|| e)),
  520|       |      Err::Failure(e) => Err::Failure(e),
  521|  12.6k|    })?;
  522|  1.85k|    Ok((i, OM::Output::bind(|| o)))
  523|  14.5k|  }
_RINvXsf_NtCsaZdo92nHnrg_3nom8internalNvNtCs4qtBjdjJOwX_15rsonpath_syntax6parser14string_literalINtB6_6ParserReE7processINtB6_7OutputMNtB6_4EmitB27_NtB6_9StreamingEEBD_:
  516|  41.0k|  fn process<OM: OutputMode>(&mut self, i: I) -> PResult<OM, I, Self::Output, Self::Error> {
  517|  41.0k|    let (i, o) = self(i).map_err(|e| match e {
  518|       |      Err::Incomplete(i) => Err::Incomplete(i),
  519|       |      Err::Error(e) => Err::Error(OM::Error::bind(|| e)),
  520|       |      Err::Failure(e) => Err::Failure(e),
  521|  29.4k|    })?;
  522|  11.5k|    Ok((i, OM::Output::bind(|| o)))
  523|  41.0k|  }
_RINvXsf_NtCsaZdo92nHnrg_3nom8internalNvNtCs4qtBjdjJOwX_15rsonpath_syntax6parser17wildcard_selectorINtB6_6ParserReE7processINtB6_7OutputMNtB6_4EmitB2a_NtB6_9StreamingEEBD_:
  516|  18.6k|  fn process<OM: OutputMode>(&mut self, i: I) -> PResult<OM, I, Self::Output, Self::Error> {
  517|  18.6k|    let (i, o) = self(i).map_err(|e| match e {
  518|       |      Err::Incomplete(i) => Err::Incomplete(i),
  519|       |      Err::Error(e) => Err::Error(OM::Error::bind(|| e)),
  520|       |      Err::Failure(e) => Err::Failure(e),
  521|  14.5k|    })?;
  522|  4.14k|    Ok((i, OM::Output::bind(|| o)))
  523|  18.6k|  }
_RINvXsf_NtCsaZdo92nHnrg_3nom8internalNvNtCs4qtBjdjJOwX_15rsonpath_syntax6parser3intINtB6_6ParserReE7processINtB6_7OutputMNtB6_4EmitB1V_NtB6_9StreamingEEBD_:
  516|  2.46k|  fn process<OM: OutputMode>(&mut self, i: I) -> PResult<OM, I, Self::Output, Self::Error> {
  517|  2.46k|    let (i, o) = self(i).map_err(|e| match e {
  518|       |      Err::Incomplete(i) => Err::Incomplete(i),
  519|       |      Err::Error(e) => Err::Error(OM::Error::bind(|| e)),
  520|       |      Err::Failure(e) => Err::Failure(e),
  521|  1.31k|    })?;
  522|  1.15k|    Ok((i, OM::Output::bind(|| o)))
  523|  2.46k|  }
_RINvXsf_NtCsaZdo92nHnrg_3nom8internalNvNtCs4qtBjdjJOwX_15rsonpath_syntax6parser3intINtB6_6ParserReE7processINtB6_7OutputMNtB6_4EmitNtB6_5CheckNtB6_9StreamingEEBD_:
  516|  14.5k|  fn process<OM: OutputMode>(&mut self, i: I) -> PResult<OM, I, Self::Output, Self::Error> {
  517|  14.5k|    let (i, o) = self(i).map_err(|e| match e {
  518|       |      Err::Incomplete(i) => Err::Incomplete(i),
  519|       |      Err::Error(e) => Err::Error(OM::Error::bind(|| e)),
  520|       |      Err::Failure(e) => Err::Failure(e),
  521|  5.62k|    })?;
  522|  8.91k|    Ok((i, OM::Output::bind(|| o)))
  523|  14.5k|  }
_RINvXsf_NtCsaZdo92nHnrg_3nom8internalNvNtCs4qtBjdjJOwX_15rsonpath_syntax6parser5floatINtB6_6ParserReE7processINtB6_7OutputMNtB6_4EmitB1X_NtB6_9StreamingEEBD_:
  516|  12.2k|  fn process<OM: OutputMode>(&mut self, i: I) -> PResult<OM, I, Self::Output, Self::Error> {
  517|  12.2k|    let (i, o) = self(i).map_err(|e| match e {
  518|       |      Err::Incomplete(i) => Err::Incomplete(i),
  519|       |      Err::Error(e) => Err::Error(OM::Error::bind(|| e)),
  520|       |      Err::Failure(e) => Err::Failure(e),
  521|  11.3k|    })?;
  522|    916|    Ok((i, OM::Output::bind(|| o)))
  523|  12.2k|  }
_RINvXsf_NtCsaZdo92nHnrg_3nom8internalNvNtCs4qtBjdjJOwX_15rsonpath_syntax6parser6numberINtB6_6ParserReE7processINtB6_7OutputMNtB6_4EmitB1Y_NtB6_9StreamingEEBD_:
  516|  12.2k|  fn process<OM: OutputMode>(&mut self, i: I) -> PResult<OM, I, Self::Output, Self::Error> {
  517|  12.2k|    let (i, o) = self(i).map_err(|e| match e {
  518|       |      Err::Incomplete(i) => Err::Incomplete(i),
  519|       |      Err::Error(e) => Err::Error(OM::Error::bind(|| e)),
  520|       |      Err::Failure(e) => Err::Failure(e),
  521|  11.3k|    })?;
  522|    916|    Ok((i, OM::Output::bind(|| o)))
  523|  12.2k|  }
_RINvXsf_NtCsaZdo92nHnrg_3nom8internalNvNtCs4qtBjdjJOwX_15rsonpath_syntax6parser7literalINtB6_6ParserReE7processINtB6_7OutputMNtB6_4EmitB1Z_NtB6_9StreamingEEBD_:
  516|  4.77k|  fn process<OM: OutputMode>(&mut self, i: I) -> PResult<OM, I, Self::Output, Self::Error> {
  517|  4.77k|    let (i, o) = self(i).map_err(|e| match e {
  518|       |      Err::Incomplete(i) => Err::Incomplete(i),
  519|       |      Err::Error(e) => Err::Error(OM::Error::bind(|| e)),
  520|       |      Err::Failure(e) => Err::Failure(e),
  521|  1.88k|    })?;
  522|  2.89k|    Ok((i, OM::Output::bind(|| o)))
  523|  4.77k|  }
_RINvXsf_NtCsaZdo92nHnrg_3nom8internalNvNvNtCs4qtBjdjJOwX_15rsonpath_syntax6parser5float10base_floatINtB6_6ParserReE7processINtB6_7OutputMNtB6_5CheckNtB6_4EmitNtB6_9StreamingEEBF_:
  516|  12.2k|  fn process<OM: OutputMode>(&mut self, i: I) -> PResult<OM, I, Self::Output, Self::Error> {
  517|  12.2k|    let (i, o) = self(i).map_err(|e| match e {
  518|       |      Err::Incomplete(i) => Err::Incomplete(i),
  519|       |      Err::Error(e) => Err::Error(OM::Error::bind(|| e)),
  520|       |      Err::Failure(e) => Err::Failure(e),
  521|  11.3k|    })?;
  522|    916|    Ok((i, OM::Output::bind(|| o)))
  523|  12.2k|  }
_RINvYNvNtCs4qtBjdjJOwX_15rsonpath_syntax6parser14string_literalINtNtCsaZdo92nHnrg_3nom8internal6ParserReE3mapNcNtNtB7_8Selector4Name0B1N_EB7_:
  431|  29.7k|  fn map<G, O2>(self, g: G) -> Map<Self, G>
  432|  29.7k|  where
  433|  29.7k|    G: FnMut(Self::Output) -> O2,
  434|  29.7k|    Self: core::marker::Sized,
  435|       |  {
  436|  29.7k|    Map { f: self, g }
  437|  29.7k|  }
_RINvYNvNtCs4qtBjdjJOwX_15rsonpath_syntax6parser14string_literalINtNtCsaZdo92nHnrg_3nom8internal6ParserReE4intoNtB7_7LiteralNtNtB7_5error18InternalParseErrorEB7_:
  497|  12.2k|  fn into<O2: From<Self::Output>, E2: From<Self::Error>>(self) -> Into<Self, O2, E2>
  498|  12.2k|  where
  499|  12.2k|    Self: core::marker::Sized,
  500|       |  {
  501|  12.2k|    Into {
  502|  12.2k|      f: self,
  503|  12.2k|      phantom_out2: core::marker::PhantomData,
  504|  12.2k|      phantom_err2: core::marker::PhantomData,
  505|  12.2k|    }
  506|  12.2k|  }
_RINvYNvNtCs4qtBjdjJOwX_15rsonpath_syntax6parser17wildcard_selectorINtNtCsaZdo92nHnrg_3nom8internal6ParserReE3mapNvMsq_B7_NtB7_9Selectors3oneB1V_EB7_:
  431|  40.1k|  fn map<G, O2>(self, g: G) -> Map<Self, G>
  432|  40.1k|  where
  433|  40.1k|    G: FnMut(Self::Output) -> O2,
  434|  40.1k|    Self: core::marker::Sized,
  435|       |  {
  436|  40.1k|    Map { f: self, g }
  437|  40.1k|  }
_RINvYNvNtCs4qtBjdjJOwX_15rsonpath_syntax6parser5floatINtNtCsaZdo92nHnrg_3nom8internal6ParserReE3mapNCNvB5_6number0NtNtB7_3num10JsonNumberEB7_:
  431|  12.2k|  fn map<G, O2>(self, g: G) -> Map<Self, G>
  432|  12.2k|  where
  433|  12.2k|    G: FnMut(Self::Output) -> O2,
  434|  12.2k|    Self: core::marker::Sized,
  435|       |  {
  436|  12.2k|    Map { f: self, g }
  437|  12.2k|  }
_RINvYNvNtCs4qtBjdjJOwX_15rsonpath_syntax6parser6numberINtNtCsaZdo92nHnrg_3nom8internal6ParserReE4intoNtB7_7LiteralNtNtB7_5error18InternalParseErrorEB7_:
  497|  12.2k|  fn into<O2: From<Self::Output>, E2: From<Self::Error>>(self) -> Into<Self, O2, E2>
  498|  12.2k|  where
  499|  12.2k|    Self: core::marker::Sized,
  500|       |  {
  501|  12.2k|    Into {
  502|  12.2k|      f: self,
  503|  12.2k|      phantom_out2: core::marker::PhantomData,
  504|  12.2k|      phantom_err2: core::marker::PhantomData,
  505|  12.2k|    }
  506|  12.2k|  }
_RINvYNvNtCs4qtBjdjJOwX_15rsonpath_syntax6parser7literalINtNtCsaZdo92nHnrg_3nom8internal6ParserReE4intoNtB7_10ComparableNtNtB7_5error18InternalParseErrorEB7_:
  497|  4.77k|  fn into<O2: From<Self::Output>, E2: From<Self::Error>>(self) -> Into<Self, O2, E2>
  498|  4.77k|  where
  499|  4.77k|    Self: core::marker::Sized,
  500|       |  {
  501|  4.77k|    Into {
  502|  4.77k|      f: self,
  503|  4.77k|      phantom_out2: core::marker::PhantomData,
  504|  4.77k|      phantom_err2: core::marker::PhantomData,
  505|  4.77k|    }
  506|  4.77k|  }
_RNvYNCNvNtCs4qtBjdjJOwX_15rsonpath_syntax6parser12logical_expr0INtNtCsaZdo92nHnrg_3nom8internal6ParserReE5parseB8_:
  412|  8.94k|  fn parse(&mut self, input: Input) -> IResult<Input, Self::Output, Self::Error> {
  413|  8.94k|    self.process::<OutputM<Emit, Emit, Streaming>>(input)
  414|  8.94k|  }
_RNvYNCNvNtCs4qtBjdjJOwX_15rsonpath_syntax6parser12logical_exprs0_0INtNtCsaZdo92nHnrg_3nom8internal6ParserReE5parseB8_:
  412|  1.53k|  fn parse(&mut self, input: Input) -> IResult<Input, Self::Output, Self::Error> {
  413|  1.53k|    self.process::<OutputM<Emit, Emit, Streaming>>(input)
  414|  1.53k|  }
_RNvYNCNvNtCs4qtBjdjJOwX_15rsonpath_syntax6parser12logical_exprs_0INtNtCsaZdo92nHnrg_3nom8internal6ParserReE5parseB8_:
  412|  1.69k|  fn parse(&mut self, input: Input) -> IResult<Input, Self::Output, Self::Error> {
  413|  1.69k|    self.process::<OutputM<Emit, Emit, Streaming>>(input)
  414|  1.69k|  }
_RNvYNCNvNtCs4qtBjdjJOwX_15rsonpath_syntax6parser15filter_selector0INtNtCsaZdo92nHnrg_3nom8internal6ParserReE5parseB8_:
  412|  4.21k|  fn parse(&mut self, input: Input) -> IResult<Input, Self::Output, Self::Error> {
  413|  4.21k|    self.process::<OutputM<Emit, Emit, Streaming>>(input)
  414|  4.21k|  }
_RNvYNCNvNtCs4qtBjdjJOwX_15rsonpath_syntax6parser8selector0INtNtCsaZdo92nHnrg_3nom8internal6ParserReE5parseB8_:
  412|  4.21k|  fn parse(&mut self, input: Input) -> IResult<Input, Self::Output, Self::Error> {
  413|  4.21k|    self.process::<OutputM<Emit, Emit, Streaming>>(input)
  414|  4.21k|  }
_RNvYNvNtCs4qtBjdjJOwX_15rsonpath_syntax6parser13name_selectorINtNtCsaZdo92nHnrg_3nom8internal6ParserReE5parseB6_:
  412|  29.7k|  fn parse(&mut self, input: Input) -> IResult<Input, Self::Output, Self::Error> {
  413|  29.7k|    self.process::<OutputM<Emit, Emit, Streaming>>(input)
  414|  29.7k|  }
_RNvYNvNtCs4qtBjdjJOwX_15rsonpath_syntax6parser14index_selectorINtNtCsaZdo92nHnrg_3nom8internal6ParserReE5parseB6_:
  412|  12.6k|  fn parse(&mut self, input: Input) -> IResult<Input, Self::Output, Self::Error> {
  413|  12.6k|    self.process::<OutputM<Emit, Emit, Streaming>>(input)
  414|  12.6k|  }
_RNvYNvNtCs4qtBjdjJOwX_15rsonpath_syntax6parser14slice_selectorINtNtCsaZdo92nHnrg_3nom8internal6ParserReE5parseB6_:
  412|  14.5k|  fn parse(&mut self, input: Input) -> IResult<Input, Self::Output, Self::Error> {
  413|  14.5k|    self.process::<OutputM<Emit, Emit, Streaming>>(input)
  414|  14.5k|  }
_RNvYNvNtCs4qtBjdjJOwX_15rsonpath_syntax6parser17wildcard_selectorINtNtCsaZdo92nHnrg_3nom8internal6ParserReE5parseB6_:
  412|  18.6k|  fn parse(&mut self, input: Input) -> IResult<Input, Self::Output, Self::Error> {
  413|  18.6k|    self.process::<OutputM<Emit, Emit, Streaming>>(input)
  414|  18.6k|  }
_RNvYNvNtCs4qtBjdjJOwX_15rsonpath_syntax6parser3intINtNtCsaZdo92nHnrg_3nom8internal6ParserReE5parseB6_:
  412|  2.46k|  fn parse(&mut self, input: Input) -> IResult<Input, Self::Output, Self::Error> {
  413|  2.46k|    self.process::<OutputM<Emit, Emit, Streaming>>(input)
  414|  2.46k|  }
_RINvXsa_NtCsaZdo92nHnrg_3nom8internalNtB6_4EmitNtB6_4Mode3mapNtNtCs4qtBjdjJOwX_15rsonpath_syntax5error18InternalParseErrorBX_NCINvXs1_NtB8_6branchINtB28_6ChoiceTINtB6_3MapNCINvNtNtB8_5bytes8complete3tagReB3e_BX_E0NCINvNtB8_10combinator5valueB3e_NtNvNtB11_6parser12logical_expr9BooleanOpBX_B2J_E0EB2z_EEINtB6_6ParserB3e_E7processINtB6_7OutputMBz_Bz_NtB6_9StreamingEEs_0EB11_:
  277|  8.94k|  fn map<T, U, F: FnOnce(T) -> U>(x: Self::Output<T>, f: F) -> Self::Output<U> {
  278|  8.94k|    f(x)
  279|  8.94k|  }
_RINvXsa_NtCsaZdo92nHnrg_3nom8internalNtB6_4EmitNtB6_4Mode3mapNtNtCs4qtBjdjJOwX_15rsonpath_syntax5error18InternalParseErrorBX_NCINvXs1_NtB8_6branchINtB28_6ChoiceTINtNtB8_8sequence8PrecededNCINvNtNtB8_9character8complete4charReBX_E0NCNvNtB11_6parser6string0EB2z_EEINtB6_6ParserB3z_E7processINtB6_7OutputMBz_Bz_NtB6_9StreamingEEs_0EB11_:
  277|  29.4k|  fn map<T, U, F: FnOnce(T) -> U>(x: Self::Output<T>, f: F) -> Self::Output<U> {
  278|  29.4k|    f(x)
  279|  29.4k|  }
_RINvXsa_NtCsaZdo92nHnrg_3nom8internalNtB6_4EmitNtB6_4Mode3mapNtNtCs4qtBjdjJOwX_15rsonpath_syntax5error18InternalParseErrorBX_NCINvXs4_NtB8_6branchINtB28_6ChoiceTINtB6_4IntoNvNtB11_6parser6numberNtB11_7LiteralBX_EIB2A_NvB2M_14string_literalB36_BX_EINtB6_3MapNCINvNtNtB8_5bytes8complete3tagReB4C_BX_E0NCINvNtB8_10combinator5valueB4C_B36_BX_B47_E0EB3X_B3X_EEINtB6_6ParserB4C_E7processINtB6_7OutputMBz_Bz_NtB6_9StreamingEEs2_0EB11_:
  277|  7.27k|  fn map<T, U, F: FnOnce(T) -> U>(x: Self::Output<T>, f: F) -> Self::Output<U> {
  278|  7.27k|    f(x)
  279|  7.27k|  }
_RINvXsa_NtCsaZdo92nHnrg_3nom8internalNtB6_4EmitNtB6_4Mode3mapNtNtCs4qtBjdjJOwX_15rsonpath_syntax5error18InternalParseErrorBX_NCINvXs5_NtB8_6branchINtB28_6ChoiceTINtB6_3MapNCINvNtNtB8_5bytes8complete3tagReB3e_BX_E0NCINvNtB8_10combinator5valueB3e_NtB11_12ComparisonOpBX_B2J_E0EB2z_B2z_B2z_IB2A_NCINvNtNtB8_9character8complete4charB3e_BX_E0NCIB3s_B3e_B3V_BX_B4G_E0EB4B_EEINtB6_6ParserB3e_E7processINtB6_7OutputMBz_Bz_NtB6_9StreamingEEs3_0EB11_:
  277|  2.67k|  fn map<T, U, F: FnOnce(T) -> U>(x: Self::Output<T>, f: F) -> Self::Output<U> {
  278|  2.67k|    f(x)
  279|  2.67k|  }
_RINvXsa_NtCsaZdo92nHnrg_3nom8internalNtB6_4EmitNtB6_4Mode3mapReNtCs4qtBjdjJOwX_15rsonpath_syntax12ComparisonOpNCINvXsg_B6_INtB6_3MapNCINvNtNtB8_5bytes8complete3tagBX_BX_NtNtB11_5error18InternalParseErrorE0NCINvNtB8_10combinator5valueBX_BZ_B2H_B26_E0EINtB6_6ParserBX_E7processINtB6_7OutputMBz_Bz_NtB6_9StreamingEE0EB11_:
  277|  3.63k|  fn map<T, U, F: FnOnce(T) -> U>(x: Self::Output<T>, f: F) -> Self::Output<U> {
  278|  3.63k|    f(x)
  279|  3.63k|  }
_RINvXsa_NtCsaZdo92nHnrg_3nom8internalNtB6_4EmitNtB6_4Mode3mapReNtCs4qtBjdjJOwX_15rsonpath_syntax7LiteralNCINvXsg_B6_INtB6_3MapNCINvNtNtB8_5bytes8complete3tagBX_BX_NtNtB11_5error18InternalParseErrorE0NCINvNtB8_10combinator5valueBX_BZ_B2B_B20_E0EINtB6_6ParserBX_E7processINtB6_7OutputMBz_Bz_NtB6_9StreamingEE0EB11_:
  277|  3.50k|  fn map<T, U, F: FnOnce(T) -> U>(x: Self::Output<T>, f: F) -> Self::Output<U> {
  278|  3.50k|    f(x)
  279|  3.50k|  }
_RINvXsa_NtCsaZdo92nHnrg_3nom8internalNtB6_4EmitNtB6_4Mode3mapReNtNvNtCs4qtBjdjJOwX_15rsonpath_syntax6parser12logical_expr9BooleanOpNCINvXsg_B6_INtB6_3MapNCINvNtNtB8_5bytes8complete3tagBX_BX_NtNtB15_5error18InternalParseErrorE0NCINvNtB8_10combinator5valueBX_BZ_B32_B2r_E0EINtB6_6ParserBX_E7processINtB6_7OutputMBz_Bz_NtB6_9StreamingEE0EB15_:
  277|  3.23k|  fn map<T, U, F: FnOnce(T) -> U>(x: Self::Output<T>, f: F) -> Self::Output<U> {
  278|  3.23k|    f(x)
  279|  3.23k|  }
_RINvXsa_NtCsaZdo92nHnrg_3nom8internalNtB6_4EmitNtB6_4Mode3mapcNtCs4qtBjdjJOwX_15rsonpath_syntax12ComparisonOpNCINvXsg_B6_INtB6_3MapNCINvNtNtB8_9character8complete4charReNtNtB10_5error18InternalParseErrorE0NCINvNtB8_10combinator5valueB2F_BY_B2H_B25_E0EINtB6_6ParserB2F_E7processINtB6_7OutputMBz_Bz_NtB6_9StreamingEE0EB10_:
  277|  1.14k|  fn map<T, U, F: FnOnce(T) -> U>(x: Self::Output<T>, f: F) -> Self::Output<U> {
  278|  1.14k|    f(x)
  279|  1.14k|  }
_RINvXsa_NtCsaZdo92nHnrg_3nom8internalNtB6_4EmitNtB6_4Mode3mapcNtNtCs4qtBjdjJOwX_15rsonpath_syntax6parser16RootSelectorTypeNCINvXsg_B6_INtB6_3MapNCINvNtNtB8_9character8complete4charReNtNtB12_5error18InternalParseErrorE0NCINvNtB8_10combinator5valueB2S_BY_B2U_B2i_E0EINtB6_6ParserB2S_E7processINtB6_7OutputMBz_Bz_NtB6_9StreamingEE0EB12_:
  277|  7.27k|  fn map<T, U, F: FnOnce(T) -> U>(x: Self::Output<T>, f: F) -> Self::Output<U> {
  278|  7.27k|    f(x)
  279|  7.27k|  }
_RINvXsa_NtCsaZdo92nHnrg_3nom8internalNtB6_4EmitNtB6_4Mode7combineNtNtCs4qtBjdjJOwX_15rsonpath_syntax5error18InternalParseErrorB11_B11_NCINvXs1_NtB8_6branchINtB2h_6ChoiceTINtB6_3MapNCINvNtNtB8_5bytes8complete3tagReB3n_B11_E0NCINvNtB8_10combinator5valueB3n_NtNvNtB15_6parser12logical_expr9BooleanOpB11_B2S_E0EB2I_EEINtB6_6ParserB3n_E7processINtB6_7OutputMBz_Bz_NtB6_9StreamingEE0EB15_:
  282|  8.94k|  fn combine<T, U, V, F: FnOnce(T, U) -> V>(
  283|  8.94k|    x: Self::Output<T>,
  284|  8.94k|    y: Self::Output<U>,
  285|  8.94k|    f: F,
  286|  8.94k|  ) -> Self::Output<V> {
  287|  8.94k|    f(x, y)
  288|  8.94k|  }
_RINvXsa_NtCsaZdo92nHnrg_3nom8internalNtB6_4EmitNtB6_4Mode7combineNtNtCs4qtBjdjJOwX_15rsonpath_syntax5error18InternalParseErrorB11_B11_NCINvXs1_NtB8_6branchINtB2h_6ChoiceTINtNtB8_8sequence8PrecededNCINvNtNtB8_9character8complete4charReB11_E0NCNvNtB15_6parser6string0EB2I_EEINtB6_6ParserB3I_E7processINtB6_7OutputMBz_Bz_NtB6_9StreamingEE0EB15_:
  282|  29.4k|  fn combine<T, U, V, F: FnOnce(T, U) -> V>(
  283|  29.4k|    x: Self::Output<T>,
  284|  29.4k|    y: Self::Output<U>,
  285|  29.4k|    f: F,
  286|  29.4k|  ) -> Self::Output<V> {
  287|  29.4k|    f(x, y)
  288|  29.4k|  }
_RINvXsa_NtCsaZdo92nHnrg_3nom8internalNtB6_4EmitNtB6_4Mode7combineNtNtCs4qtBjdjJOwX_15rsonpath_syntax5error18InternalParseErrorB11_B11_NCINvXs4_NtB8_6branchINtB2h_6ChoiceTINtB6_4IntoNvNtB15_6parser6numberNtB15_7LiteralB11_EIB2J_NvB2V_14string_literalB3f_B11_EINtB6_3MapNCINvNtNtB8_5bytes8complete3tagReB4N_B11_E0NCINvNtB8_10combinator5valueB4N_B3f_B11_B4i_E0EB48_B48_EEINtB6_6ParserB4N_E7processINtB6_7OutputMBz_Bz_NtB6_9StreamingEE0EB15_:
  282|  7.27k|  fn combine<T, U, V, F: FnOnce(T, U) -> V>(
  283|  7.27k|    x: Self::Output<T>,
  284|  7.27k|    y: Self::Output<U>,
  285|  7.27k|    f: F,
  286|  7.27k|  ) -> Self::Output<V> {
  287|  7.27k|    f(x, y)
  288|  7.27k|  }
_RINvXsa_NtCsaZdo92nHnrg_3nom8internalNtB6_4EmitNtB6_4Mode7combineNtNtCs4qtBjdjJOwX_15rsonpath_syntax5error18InternalParseErrorB11_B11_NCINvXs4_NtB8_6branchINtB2h_6ChoiceTINtB6_4IntoNvNtB15_6parser6numberNtB15_7LiteralB11_EIB2J_NvB2V_14string_literalB3f_B11_EINtB6_3MapNCINvNtNtB8_5bytes8complete3tagReB4N_B11_E0NCINvNtB8_10combinator5valueB4N_B3f_B11_B4i_E0EB48_B48_EEINtB6_6ParserB4N_E7processINtB6_7OutputMBz_Bz_NtB6_9StreamingEEs0_0EB15_:
  282|  7.27k|  fn combine<T, U, V, F: FnOnce(T, U) -> V>(
  283|  7.27k|    x: Self::Output<T>,
  284|  7.27k|    y: Self::Output<U>,
  285|  7.27k|    f: F,
  286|  7.27k|  ) -> Self::Output<V> {
  287|  7.27k|    f(x, y)
  288|  7.27k|  }
_RINvXsa_NtCsaZdo92nHnrg_3nom8internalNtB6_4EmitNtB6_4Mode7combineNtNtCs4qtBjdjJOwX_15rsonpath_syntax5error18InternalParseErrorB11_B11_NCINvXs4_NtB8_6branchINtB2h_6ChoiceTINtB6_4IntoNvNtB15_6parser6numberNtB15_7LiteralB11_EIB2J_NvB2V_14string_literalB3f_B11_EINtB6_3MapNCINvNtNtB8_5bytes8complete3tagReB4N_B11_E0NCINvNtB8_10combinator5valueB4N_B3f_B11_B4i_E0EB48_B48_EEINtB6_6ParserB4N_E7processINtB6_7OutputMBz_Bz_NtB6_9StreamingEEs1_0EB15_:
  282|  7.27k|  fn combine<T, U, V, F: FnOnce(T, U) -> V>(
  283|  7.27k|    x: Self::Output<T>,
  284|  7.27k|    y: Self::Output<U>,
  285|  7.27k|    f: F,
  286|  7.27k|  ) -> Self::Output<V> {
  287|  7.27k|    f(x, y)
  288|  7.27k|  }
_RINvXsa_NtCsaZdo92nHnrg_3nom8internalNtB6_4EmitNtB6_4Mode7combineNtNtCs4qtBjdjJOwX_15rsonpath_syntax5error18InternalParseErrorB11_B11_NCINvXs4_NtB8_6branchINtB2h_6ChoiceTINtB6_4IntoNvNtB15_6parser6numberNtB15_7LiteralB11_EIB2J_NvB2V_14string_literalB3f_B11_EINtB6_3MapNCINvNtNtB8_5bytes8complete3tagReB4N_B11_E0NCINvNtB8_10combinator5valueB4N_B3f_B11_B4i_E0EB48_B48_EEINtB6_6ParserB4N_E7processINtB6_7OutputMBz_Bz_NtB6_9StreamingEEs_0EB15_:
  282|  7.27k|  fn combine<T, U, V, F: FnOnce(T, U) -> V>(
  283|  7.27k|    x: Self::Output<T>,
  284|  7.27k|    y: Self::Output<U>,
  285|  7.27k|    f: F,
  286|  7.27k|  ) -> Self::Output<V> {
  287|  7.27k|    f(x, y)
  288|  7.27k|  }
_RINvXsa_NtCsaZdo92nHnrg_3nom8internalNtB6_4EmitNtB6_4Mode7combineNtNtCs4qtBjdjJOwX_15rsonpath_syntax5error18InternalParseErrorB11_B11_NCINvXs5_NtB8_6branchINtB2h_6ChoiceTINtB6_3MapNCINvNtNtB8_5bytes8complete3tagReB3n_B11_E0NCINvNtB8_10combinator5valueB3n_NtB15_12ComparisonOpB11_B2S_E0EB2I_B2I_B2I_IB2J_NCINvNtNtB8_9character8complete4charB3n_B11_E0NCIB3C_B3n_B45_B11_B4R_E0EB4M_EEINtB6_6ParserB3n_E7processINtB6_7OutputMBz_Bz_NtB6_9StreamingEE0EB15_:
  282|  2.67k|  fn combine<T, U, V, F: FnOnce(T, U) -> V>(
  283|  2.67k|    x: Self::Output<T>,
  284|  2.67k|    y: Self::Output<U>,
  285|  2.67k|    f: F,
  286|  2.67k|  ) -> Self::Output<V> {
  287|  2.67k|    f(x, y)
  288|  2.67k|  }
_RINvXsa_NtCsaZdo92nHnrg_3nom8internalNtB6_4EmitNtB6_4Mode7combineNtNtCs4qtBjdjJOwX_15rsonpath_syntax5error18InternalParseErrorB11_B11_NCINvXs5_NtB8_6branchINtB2h_6ChoiceTINtB6_3MapNCINvNtNtB8_5bytes8complete3tagReB3n_B11_E0NCINvNtB8_10combinator5valueB3n_NtB15_12ComparisonOpB11_B2S_E0EB2I_B2I_B2I_IB2J_NCINvNtNtB8_9character8complete4charB3n_B11_E0NCIB3C_B3n_B45_B11_B4R_E0EB4M_EEINtB6_6ParserB3n_E7processINtB6_7OutputMBz_Bz_NtB6_9StreamingEEs0_0EB15_:
  282|  2.67k|  fn combine<T, U, V, F: FnOnce(T, U) -> V>(
  283|  2.67k|    x: Self::Output<T>,
  284|  2.67k|    y: Self::Output<U>,
  285|  2.67k|    f: F,
  286|  2.67k|  ) -> Self::Output<V> {
  287|  2.67k|    f(x, y)
  288|  2.67k|  }
_RINvXsa_NtCsaZdo92nHnrg_3nom8internalNtB6_4EmitNtB6_4Mode7combineNtNtCs4qtBjdjJOwX_15rsonpath_syntax5error18InternalParseErrorB11_B11_NCINvXs5_NtB8_6branchINtB2h_6ChoiceTINtB6_3MapNCINvNtNtB8_5bytes8complete3tagReB3n_B11_E0NCINvNtB8_10combinator5valueB3n_NtB15_12ComparisonOpB11_B2S_E0EB2I_B2I_B2I_IB2J_NCINvNtNtB8_9character8complete4charB3n_B11_E0NCIB3C_B3n_B45_B11_B4R_E0EB4M_EEINtB6_6ParserB3n_E7processINtB6_7OutputMBz_Bz_NtB6_9StreamingEEs1_0EB15_:
  282|  2.67k|  fn combine<T, U, V, F: FnOnce(T, U) -> V>(
  283|  2.67k|    x: Self::Output<T>,
  284|  2.67k|    y: Self::Output<U>,
  285|  2.67k|    f: F,
  286|  2.67k|  ) -> Self::Output<V> {
  287|  2.67k|    f(x, y)
  288|  2.67k|  }
_RINvXsa_NtCsaZdo92nHnrg_3nom8internalNtB6_4EmitNtB6_4Mode7combineNtNtCs4qtBjdjJOwX_15rsonpath_syntax5error18InternalParseErrorB11_B11_NCINvXs5_NtB8_6branchINtB2h_6ChoiceTINtB6_3MapNCINvNtNtB8_5bytes8complete3tagReB3n_B11_E0NCINvNtB8_10combinator5valueB3n_NtB15_12ComparisonOpB11_B2S_E0EB2I_B2I_B2I_IB2J_NCINvNtNtB8_9character8complete4charB3n_B11_E0NCIB3C_B3n_B45_B11_B4R_E0EB4M_EEINtB6_6ParserB3n_E7processINtB6_7OutputMBz_Bz_NtB6_9StreamingEEs2_0EB15_:
  282|  2.67k|  fn combine<T, U, V, F: FnOnce(T, U) -> V>(
  283|  2.67k|    x: Self::Output<T>,
  284|  2.67k|    y: Self::Output<U>,
  285|  2.67k|    f: F,
  286|  2.67k|  ) -> Self::Output<V> {
  287|  2.67k|    f(x, y)
  288|  2.67k|  }
_RINvXsa_NtCsaZdo92nHnrg_3nom8internalNtB6_4EmitNtB6_4Mode7combineNtNtCs4qtBjdjJOwX_15rsonpath_syntax5error18InternalParseErrorB11_B11_NCINvXs5_NtB8_6branchINtB2h_6ChoiceTINtB6_3MapNCINvNtNtB8_5bytes8complete3tagReB3n_B11_E0NCINvNtB8_10combinator5valueB3n_NtB15_12ComparisonOpB11_B2S_E0EB2I_B2I_B2I_IB2J_NCINvNtNtB8_9character8complete4charB3n_B11_E0NCIB3C_B3n_B45_B11_B4R_E0EB4M_EEINtB6_6ParserB3n_E7processINtB6_7OutputMBz_Bz_NtB6_9StreamingEEs_0EB15_:
  282|  2.67k|  fn combine<T, U, V, F: FnOnce(T, U) -> V>(
  283|  2.67k|    x: Self::Output<T>,
  284|  2.67k|    y: Self::Output<U>,
  285|  2.67k|    f: F,
  286|  2.67k|  ) -> Self::Output<V> {
  287|  2.67k|    f(x, y)
  288|  2.67k|  }
_RINvXsg_NtCsaZdo92nHnrg_3nom8internalINtB6_3MapNCINvNtNtB8_5bytes8complete3tagReB1e_NtNtCs4qtBjdjJOwX_15rsonpath_syntax5error18InternalParseErrorE0NCINvNtB8_10combinator5valueB1e_NtB1o_12ComparisonOpB1k_BJ_E0EINtB6_6ParserB1e_E7processINtB6_7OutputMNtB6_4EmitB3Z_NtB6_9StreamingEEB1o_:
  592|  21.3k|  fn process<OM: OutputMode>(&mut self, i: I) -> PResult<OM, I, Self::Output, Self::Error> {
  593|  21.3k|    match self.f.process::<OM>(i) {
  594|  17.7k|      Err(e) => Err(e),
  595|  3.63k|      Ok((i, o)) => Ok((i, OM::Output::map(o, |o| (self.g)(o)))),
  596|       |    }
  597|  21.3k|  }
_RINvXsg_NtCsaZdo92nHnrg_3nom8internalINtB6_3MapNCINvNtNtB8_5bytes8complete3tagReB1e_NtNtCs4qtBjdjJOwX_15rsonpath_syntax5error18InternalParseErrorE0NCINvNtB8_10combinator5valueB1e_NtB1o_7LiteralB1k_BJ_E0EINtB6_6ParserB1e_E7processINtB6_7OutputMNtB6_4EmitB3T_NtB6_9StreamingEEB1o_:
  592|  31.3k|  fn process<OM: OutputMode>(&mut self, i: I) -> PResult<OM, I, Self::Output, Self::Error> {
  593|  31.3k|    match self.f.process::<OM>(i) {
  594|  27.7k|      Err(e) => Err(e),
  595|  3.50k|      Ok((i, o)) => Ok((i, OM::Output::map(o, |o| (self.g)(o)))),
  596|       |    }
  597|  31.3k|  }
_RINvXsg_NtCsaZdo92nHnrg_3nom8internalINtB6_3MapNCINvNtNtB8_5bytes8complete3tagReB1e_NtNtCs4qtBjdjJOwX_15rsonpath_syntax5error18InternalParseErrorE0NCINvNtB8_10combinator5valueB1e_NtNvNtB1o_6parser12logical_expr9BooleanOpB1k_BJ_E0EINtB6_6ParserB1e_E7processINtB6_7OutputMNtB6_4EmitB4k_NtB6_9StreamingEEB1o_:
  592|  22.6k|  fn process<OM: OutputMode>(&mut self, i: I) -> PResult<OM, I, Self::Output, Self::Error> {
  593|  22.6k|    match self.f.process::<OM>(i) {
  594|  19.4k|      Err(e) => Err(e),
  595|  3.23k|      Ok((i, o)) => Ok((i, OM::Output::map(o, |o| (self.g)(o)))),
  596|       |    }
  597|  22.6k|  }
_RINvXsg_NtCsaZdo92nHnrg_3nom8internalINtB6_3MapNCINvNtNtB8_9character8complete4charReNtNtCs4qtBjdjJOwX_15rsonpath_syntax5error18InternalParseErrorE0NCINvNtB8_10combinator5valueB1j_NtB1p_12ComparisonOpB1l_BJ_E0EINtB6_6ParserB1j_E7processINtB6_7OutputMNtB6_4EmitB40_NtB6_9StreamingEEB1p_:
  592|  7.12k|  fn process<OM: OutputMode>(&mut self, i: I) -> PResult<OM, I, Self::Output, Self::Error> {
  593|  7.12k|    match self.f.process::<OM>(i) {
  594|  5.98k|      Err(e) => Err(e),
  595|  1.14k|      Ok((i, o)) => Ok((i, OM::Output::map(o, |o| (self.g)(o)))),
  596|       |    }
  597|  7.12k|  }
_RINvXsg_NtCsaZdo92nHnrg_3nom8internalINtB6_3MapNCINvNtNtB8_9character8complete4charReNtNtCs4qtBjdjJOwX_15rsonpath_syntax5error18InternalParseErrorE0NCINvNtB8_10combinator5valueB1j_NtNtB1p_6parser16RootSelectorTypeB1l_BJ_E0EINtB6_6ParserB1j_E7processINtB6_7OutputMNtB6_4EmitB4d_NtB6_9StreamingEEB1p_:
  592|  10.9k|  fn process<OM: OutputMode>(&mut self, i: I) -> PResult<OM, I, Self::Output, Self::Error> {
  593|  10.9k|    match self.f.process::<OM>(i) {
  594|  3.64k|      Err(e) => Err(e),
  595|  7.27k|      Ok((i, o)) => Ok((i, OM::Output::map(o, |o| (self.g)(o)))),
  596|       |    }
  597|  10.9k|  }
_RINvYINtNtCsaZdo92nHnrg_3nom6branch6ChoiceTNCNvNtCs4qtBjdjJOwX_15rsonpath_syntax6parser13child_segment0INtNtB8_8sequence8PrecededNCINvNtNtB8_9character8complete4charReNtNtBL_5error18InternalParseErrorE0INtNtB8_10combinator3CutIB4_TINtNtB8_8internal3MapNvBJ_17wildcard_selectorNvMsq_BL_NtBL_9Selectors3oneENvBJ_21member_name_shorthandNCINvBJ_14failed_segmentB4z_E0EEEEEEINtB3K_6ParserB2D_E3mapNcNtNtBL_7Segment5Child0B6m_EBL_:
  431|  18.2k|  fn map<G, O2>(self, g: G) -> Map<Self, G>
  432|  18.2k|  where
  433|  18.2k|    G: FnMut(Self::Output) -> O2,
  434|  18.2k|    Self: core::marker::Sized,
  435|       |  {
  436|  18.2k|    Map { f: self, g }
  437|  18.2k|  }
_RNvYINtNtCsaZdo92nHnrg_3nom6branch6ChoiceTINtNtB7_8internal3MapNCINvNtNtB7_5bytes8complete3tagReB1u_NtNtCs4qtBjdjJOwX_15rsonpath_syntax5error18InternalParseErrorE0NCINvNtB7_10combinator5valueB1u_NtB1E_12ComparisonOpB1A_BZ_E0EBE_BE_BE_IBF_NCINvNtNtB7_9character8complete4charB1u_B1A_E0NCIB2E_B1u_B37_B1A_B3O_E0EB3K_EEINtBH_6ParserB1u_E5parseB1E_:
  412|  7.44k|  fn parse(&mut self, input: Input) -> IResult<Input, Self::Output, Self::Error> {
  413|  7.44k|    self.process::<OutputM<Emit, Emit, Streaming>>(input)
  414|  7.44k|  }
_RNvYINtNtCsaZdo92nHnrg_3nom6branch6ChoiceTINtNtB7_8internal3MapNCINvNtNtB7_5bytes8complete3tagReB1u_NtNtCs4qtBjdjJOwX_15rsonpath_syntax5error18InternalParseErrorE0NCINvNtB7_10combinator5valueB1u_NtNvNtB1E_6parser12logical_expr9BooleanOpB1A_BZ_E0EBE_EEINtBH_6ParserB1u_E5parseB1E_:
  412|  12.1k|  fn parse(&mut self, input: Input) -> IResult<Input, Self::Output, Self::Error> {
  413|  12.1k|    self.process::<OutputM<Emit, Emit, Streaming>>(input)
  414|  12.1k|  }
_RNvYINtNtCsaZdo92nHnrg_3nom6branch6ChoiceTINtNtB7_8internal3MapNCINvNtNtB7_9character8complete4charReNtNtCs4qtBjdjJOwX_15rsonpath_syntax5error18InternalParseErrorE0NCINvNtB7_10combinator5valueB1z_NtNtB1F_6parser16RootSelectorTypeB1B_BZ_E0EBE_EEINtBH_6ParserB1z_E5parseB1F_:
  412|  7.27k|  fn parse(&mut self, input: Input) -> IResult<Input, Self::Output, Self::Error> {
  413|  7.27k|    self.process::<OutputM<Emit, Emit, Streaming>>(input)
  414|  7.27k|  }
_RNvYINtNtCsaZdo92nHnrg_3nom6branch6ChoiceTINtNtB7_8internal4IntoNvNtCs4qtBjdjJOwX_15rsonpath_syntax6parser6numberNtB14_7LiteralNtNtB14_5error18InternalParseErrorEIBF_NvB12_14string_literalB1N_B21_EINtBH_3MapNCINvNtNtB7_5bytes8complete3tagReB3O_B21_E0NCINvNtB7_10combinator5valueB3O_B1N_B21_B3j_E0EB39_B39_EEINtBH_6ParserB3O_E5parseB14_:
  412|  12.2k|  fn parse(&mut self, input: Input) -> IResult<Input, Self::Output, Self::Error> {
  413|  12.2k|    self.process::<OutputM<Emit, Emit, Streaming>>(input)
  414|  12.2k|  }
_RNvYINtNtCsaZdo92nHnrg_3nom6branch6ChoiceTINtNtB7_8internal4IntoNvNtCs4qtBjdjJOwX_15rsonpath_syntax6parser7literalNtB14_10ComparableNtNtB14_5error18InternalParseErrorENCNvB12_10comparable0NCINvB12_24failed_filter_expressionB1O_E0EEINtBH_6ParserReE5parseB14_:
  412|  4.77k|  fn parse(&mut self, input: Input) -> IResult<Input, Self::Output, Self::Error> {
  413|  4.77k|    self.process::<OutputM<Emit, Emit, Streaming>>(input)
  414|  4.77k|  }
_RNvYINtNtCsaZdo92nHnrg_3nom6branch6ChoiceTINtNtB7_8sequence8PrecededNCINvNtNtB7_9character8complete4charReNtNtCs4qtBjdjJOwX_15rsonpath_syntax5error18InternalParseErrorE0NCNvNtB1K_6parser6string0EBE_EEINtNtB7_8internal6ParserB1E_E5parseB1K_:
  412|  41.0k|  fn parse(&mut self, input: Input) -> IResult<Input, Self::Output, Self::Error> {
  413|  41.0k|    self.process::<OutputM<Emit, Emit, Streaming>>(input)
  414|  41.0k|  }
_RNvYINtNtCsaZdo92nHnrg_3nom6branch6ChoiceTNCINvNtCs4qtBjdjJOwX_15rsonpath_syntax6parser17ignore_whitespaceNtBL_8SelectorNvBJ_13name_selectorNtNtBL_5error18InternalParseErrorE0NCIBH_B1G_NvBJ_17wildcard_selectorB2e_E0NCIBH_B1G_NvBJ_14slice_selectorB2e_E0NCIBH_B1G_NvBJ_14index_selectorB2e_E0NCIBH_B1G_NCNvBJ_8selector0B2e_E0NvBJ_15failed_selectorEEINtNtB7_8internal6ParserReE5parseBL_:
  412|  29.7k|  fn parse(&mut self, input: Input) -> IResult<Input, Self::Output, Self::Error> {
  413|  29.7k|    self.process::<OutputM<Emit, Emit, Streaming>>(input)
  414|  29.7k|  }
_RNvYINtNtCsaZdo92nHnrg_3nom6branch6ChoiceTNCNvNtCs4qtBjdjJOwX_15rsonpath_syntax6parser12filter_query0NCBG_s_0NCINvBI_28failed_segment_within_filterNtBK_7SegmentE0EEINtNtB7_8internal6ParserReE5parseBK_:
  412|  18.9k|  fn parse(&mut self, input: Input) -> IResult<Input, Self::Output, Self::Error> {
  413|  18.9k|    self.process::<OutputM<Emit, Emit, Streaming>>(input)
  414|  18.9k|  }
_RNvYINtNtCsaZdo92nHnrg_3nom6branch6ChoiceTNCNvNtCs4qtBjdjJOwX_15rsonpath_syntax6parser7segment0NCBG_s_0NCINvBI_14failed_segmentNtBK_7SegmentE0EEINtNtB7_8internal6ParserReE5parseBK_:
  412|  2.96k|  fn parse(&mut self, input: Input) -> IResult<Input, Self::Output, Self::Error> {
  413|  2.96k|    self.process::<OutputM<Emit, Emit, Streaming>>(input)
  414|  2.96k|  }
_RINvXsB_NtCsaZdo92nHnrg_3nom8internalTINvNtNtB8_9character8complete6digit1ReNtNtCs4qtBjdjJOwX_15rsonpath_syntax5error18InternalParseErrorEINtNtB8_10combinator3OptINtNtB8_8sequence8PrecededNCINvBD_4charB1a_B1c_E0BA_EEIB2d_IB2B_NCINvNtNtB8_5bytes8complete11tag_no_caseB1a_B1a_B1c_E0IB2B_IB2d_INtNtB8_6branch6ChoiceTB30_B30_EEEBA_EEEEINtB6_6ParserB1a_E7processINtB6_7OutputMNtB6_5CheckNtB6_4EmitNtB6_9StreamingEEB1g_:
  537|  12.2k|      fn process<OM: OutputMode>(&mut self, i: I) -> PResult<OM, I, Self::Output, Self::Error> {
  538|  12.2k|        let ($(ref mut $parser),+,) = *self;
  539|       |
  540|       |        // FIXME: is there a way to avoid producing the output values?
  541|    916|        $(let(i, $output) = $parser.process::<OutputM<Emit, OM::Error, OM::Incomplete>>(i)?;)+
  542|       |
  543|       |        // ???
  544|    916|        Ok((i, OM::Output::bind(|| ($($output),+,))))
  545|  12.2k|      }
_RINvXsa_NtCsaZdo92nHnrg_3nom8internalNtB6_4EmitNtB6_4Mode3mapINtNtCs6SNw0SRvItZ_4core6option6OptionReEIBY_BX_ENcNtB1C_4Some0ECs4qtBjdjJOwX_15rsonpath_syntax:
  277|    610|  fn map<T, U, F: FnOnce(T) -> U>(x: Self::Output<T>, f: F) -> Self::Output<U> {
  278|    610|    f(x)
  279|    610|  }
_RINvXsa_NtCsaZdo92nHnrg_3nom8internalNtB6_4EmitNtB6_4Mode3mapNtNtCs4qtBjdjJOwX_15rsonpath_syntax5error18InternalParseErrorBX_NCINvXs1_NtB8_6branchINtB28_6ChoiceTINtNtB8_8sequence8PrecededNCINvNtNtB8_9character8complete4charReBX_E0INvB34_6digit1B3z_BX_EEB3G_EEINtB6_6ParserB3z_E7processINtB6_7OutputMNtB6_5CheckBz_NtB6_9StreamingEEs_0EB11_:
  277|  11.1k|  fn map<T, U, F: FnOnce(T) -> U>(x: Self::Output<T>, f: F) -> Self::Output<U> {
  278|  11.1k|    f(x)
  279|  11.1k|  }
_RINvXsa_NtCsaZdo92nHnrg_3nom8internalNtB6_4EmitNtB6_4Mode3mapNtNtCs4qtBjdjJOwX_15rsonpath_syntax5error18InternalParseErrorBX_NCINvXs1_NtB8_6branchINtB28_6ChoiceTINtNtB8_8sequence8PrecededNCINvNtNtB8_9character8complete4charReBX_E0NvNvNtB11_6parser5float10base_floatEB3G_EEINtB6_6ParserB3z_E7processINtB6_7OutputMNtB6_5CheckBz_NtB6_9StreamingEEs_0EB11_:
  277|  11.3k|  fn map<T, U, F: FnOnce(T) -> U>(x: Self::Output<T>, f: F) -> Self::Output<U> {
  278|  11.3k|    f(x)
  279|  11.3k|  }
_RINvXsa_NtCsaZdo92nHnrg_3nom8internalNtB6_4EmitNtB6_4Mode3mapNtNvNtCs4qtBjdjJOwX_15rsonpath_syntax6parser12logical_expr9BooleanOpINtNtCs6SNw0SRvItZ_4core6option6OptionBX_ENcNtB23_4Some0EB13_:
  277|  3.23k|  fn map<T, U, F: FnOnce(T) -> U>(x: Self::Output<T>, f: F) -> Self::Output<U> {
  278|  3.23k|    f(x)
  279|  3.23k|  }
_RINvXsa_NtCsaZdo92nHnrg_3nom8internalNtB6_4EmitNtB6_4Mode3mapReINtNtCs6SNw0SRvItZ_4core6option6OptionBX_ENcNtBZ_4Some0ECs4qtBjdjJOwX_15rsonpath_syntax:
  277|  10.2k|  fn map<T, U, F: FnOnce(T) -> U>(x: Self::Output<T>, f: F) -> Self::Output<U> {
  278|  10.2k|    f(x)
  279|  10.2k|  }
_RINvXsa_NtCsaZdo92nHnrg_3nom8internalNtB6_4EmitNtB6_4Mode3mapcINtNtCs6SNw0SRvItZ_4core6option6OptioncENcNtBY_4Some0ECs4qtBjdjJOwX_15rsonpath_syntax:
  277|  3.24k|  fn map<T, U, F: FnOnce(T) -> U>(x: Self::Output<T>, f: F) -> Self::Output<U> {
  278|  3.24k|    f(x)
  279|  3.24k|  }
_RINvXsa_NtCsaZdo92nHnrg_3nom8internalNtB6_4EmitNtB6_4Mode4bindINtNtCs6SNw0SRvItZ_4core6option6OptionIBZ_ReEENCINvXNtB8_10combinatorINtB1O_3OptNCINvNtCs4qtBjdjJOwX_15rsonpath_syntax6parser17ignore_whitespaceB1A_INtNtB8_8sequence8PrecededNCINvNtNtB8_9character8complete4charB1E_NtNtB2n_5error18InternalParseErrorE0IB26_NCIB2j_B1E_NvB2l_3intB4q_E0EEB4q_E0EINtB6_6ParserB1E_E7processINtB6_7OutputMBz_Bz_NtB6_9StreamingEE0EB2n_:
  272|  1.24k|  fn bind<T, F: FnOnce() -> T>(f: F) -> Self::Output<T> {
  273|  1.24k|    f()
  274|  1.24k|  }
_RINvXsa_NtCsaZdo92nHnrg_3nom8internalNtB6_4EmitNtB6_4Mode4bindINtNtCs6SNw0SRvItZ_4core6option6OptionNtNvNtCs4qtBjdjJOwX_15rsonpath_syntax6parser12logical_expr9BooleanOpENCINvXNtB8_10combinatorINtB2N_3OptNCINvB1E_17ignore_whitespaceB1A_INtNtB8_6branch6ChoiceTINtB6_3MapNCINvNtNtB8_5bytes8complete3tagReB4N_NtNtB1G_5error18InternalParseErrorE0NCINvB2N_5valueB4N_B1A_B4T_B4i_E0EB48_EEB4T_E0EINtB6_6ParserB4N_E7processINtB6_7OutputMBz_Bz_NtB6_9StreamingEE0EB1G_:
  272|  8.94k|  fn bind<T, F: FnOnce() -> T>(f: F) -> Self::Output<T> {
  273|  8.94k|    f()
  274|  8.94k|  }
_RINvXsa_NtCsaZdo92nHnrg_3nom8internalNtB6_4EmitNtB6_4Mode4bindINtNtCs6SNw0SRvItZ_4core6option6OptionReENCINvXNtB8_10combinatorINtB1J_3OptINtNtB8_8sequence8PrecededNCINvNtNtB8_5bytes8complete11tag_no_caseB1A_B1A_NtNtCs4qtBjdjJOwX_15rsonpath_syntax5error18InternalParseErrorE0IB2c_IB21_INtNtB8_6branch6ChoiceTNCINvNtNtB8_9character8complete4charB1A_B3n_E0B4V_EEEINvB50_6digit1B1A_B3n_EEEEINtB6_6ParserB1A_E7processINtB6_7OutputMBz_Bz_NtB6_9StreamingEE0EB3r_:
  272|    916|  fn bind<T, F: FnOnce() -> T>(f: F) -> Self::Output<T> {
  273|    916|    f()
  274|    916|  }
_RINvXsa_NtCsaZdo92nHnrg_3nom8internalNtB6_4EmitNtB6_4Mode4bindINtNtCs6SNw0SRvItZ_4core6option6OptionReENCINvXNtB8_10combinatorINtB1J_3OptINtNtB8_8sequence8PrecededNCINvNtNtB8_9character8complete4charB1A_NtNtCs4qtBjdjJOwX_15rsonpath_syntax5error18InternalParseErrorE0INvB2G_6digit1B1A_B3f_EEEINtB6_6ParserB1A_E7processINtB6_7OutputMBz_Bz_NtB6_9StreamingEE0EB3j_:
  272|    770|  fn bind<T, F: FnOnce() -> T>(f: F) -> Self::Output<T> {
  273|    770|    f()
  274|    770|  }
_RINvXsa_NtCsaZdo92nHnrg_3nom8internalNtB6_4EmitNtB6_4Mode4bindINtNtCs6SNw0SRvItZ_4core6option6OptionReENCINvXNtB8_10combinatorINtB1J_3OptNCINvNtCs4qtBjdjJOwX_15rsonpath_syntax6parser17ignore_whitespaceB1A_NvB2g_3intNtNtB2i_5error18InternalParseErrorE0EINtB6_6ParserB1A_E7processINtB6_7OutputMBz_Bz_NtB6_9StreamingEE0EB2i_:
  272|  1.31k|  fn bind<T, F: FnOnce() -> T>(f: F) -> Self::Output<T> {
  273|  1.31k|    f()
  274|  1.31k|  }
_RINvXsa_NtCsaZdo92nHnrg_3nom8internalNtB6_4EmitNtB6_4Mode4bindINtNtCs6SNw0SRvItZ_4core6option6OptioncENCINvXNtB8_10combinatorINtB1I_3OptNCINvNtNtB8_9character8complete4charReNtNtCs4qtBjdjJOwX_15rsonpath_syntax5error18InternalParseErrorE0EINtB6_6ParserB2K_E7processINtB6_7OutputMBz_Bz_NtB6_9StreamingEE0EB2Q_:
  272|  7.40k|  fn bind<T, F: FnOnce() -> T>(f: F) -> Self::Output<T> {
  273|  7.40k|    f()
  274|  7.40k|  }
_RINvXsa_NtCsaZdo92nHnrg_3nom8internalNtB6_4EmitNtB6_4Mode4bindReNCINvXs5_NtB8_10combinatorINtB19_9RecognizeINtNtB8_6branch6ChoiceTINtNtB8_8sequence8PrecededNCINvNtNtB8_9character8complete4charBY_NtNtCs4qtBjdjJOwX_15rsonpath_syntax5error18InternalParseErrorE0INvB2z_6digit1BY_B37_EEB48_EEEINtB6_6ParserBY_E7processINtB6_7OutputMBz_Bz_NtB6_9StreamingEE0EB3b_:
  272|  18.5k|  fn bind<T, F: FnOnce() -> T>(f: F) -> Self::Output<T> {
  273|  18.5k|    f()
  274|  18.5k|  }
_RINvXsa_NtCsaZdo92nHnrg_3nom8internalNtB6_4EmitNtB6_4Mode4bindReNCINvXs5_NtB8_10combinatorINtB19_9RecognizeINtNtB8_6branch6ChoiceTINtNtB8_8sequence8PrecededNCINvNtNtB8_9character8complete4charBY_NtNtCs4qtBjdjJOwX_15rsonpath_syntax5error18InternalParseErrorE0NvNvNtB3b_6parser5float10base_floatEB48_EEEINtB6_6ParserBY_E7processINtB6_7OutputMBz_Bz_NtB6_9StreamingEE0EB3b_:
  272|    916|  fn bind<T, F: FnOnce() -> T>(f: F) -> Self::Output<T> {
  273|    916|    f()
  274|    916|  }
_RINvXsa_NtCsaZdo92nHnrg_3nom8internalNtB6_4EmitNtB6_4Mode4bindReNCINvXs5_NtB8_10combinatorINtB19_9RecognizeTINvNtNtB8_9character8complete6digit1BY_NtNtCs4qtBjdjJOwX_15rsonpath_syntax5error18InternalParseErrorEINtB19_3OptINtNtB8_8sequence8PrecededNCINvB1L_4charBY_B2l_E0B1I_EEIB3m_IB3x_NCINvNtNtB8_5bytes8complete11tag_no_caseBY_BY_B2l_E0IB3x_IB3m_INtNtB8_6branch6ChoiceTB3W_B3W_EEEB1I_EEEEEINtB6_6ParserBY_E7processINtB6_7OutputMBz_Bz_NtB6_9StreamingEE0EB2p_:
  272|    916|  fn bind<T, F: FnOnce() -> T>(f: F) -> Self::Output<T> {
  273|    916|    f()
  274|    916|  }
_RINvXsa_NtCsaZdo92nHnrg_3nom8internalNtB6_4EmitNtB6_4Mode7combineNtNtCs4qtBjdjJOwX_15rsonpath_syntax5error18InternalParseErrorB11_B11_NCINvXs1_NtB8_6branchINtB2h_6ChoiceTINtNtB8_8sequence8PrecededNCINvNtNtB8_9character8complete4charReB11_E0INvB3d_6digit1B3I_B11_EEB3Q_EEINtB6_6ParserB3I_E7processINtB6_7OutputMNtB6_5CheckBz_NtB6_9StreamingEE0EB15_:
  282|  11.1k|  fn combine<T, U, V, F: FnOnce(T, U) -> V>(
  283|  11.1k|    x: Self::Output<T>,
  284|  11.1k|    y: Self::Output<U>,
  285|  11.1k|    f: F,
  286|  11.1k|  ) -> Self::Output<V> {
  287|  11.1k|    f(x, y)
  288|  11.1k|  }
_RINvXsa_NtCsaZdo92nHnrg_3nom8internalNtB6_4EmitNtB6_4Mode7combineNtNtCs4qtBjdjJOwX_15rsonpath_syntax5error18InternalParseErrorB11_B11_NCINvXs1_NtB8_6branchINtB2h_6ChoiceTINtNtB8_8sequence8PrecededNCINvNtNtB8_9character8complete4charReB11_E0NvNvNtB15_6parser5float10base_floatEB3Q_EEINtB6_6ParserB3I_E7processINtB6_7OutputMNtB6_5CheckBz_NtB6_9StreamingEE0EB15_:
  282|  11.3k|  fn combine<T, U, V, F: FnOnce(T, U) -> V>(
  283|  11.3k|    x: Self::Output<T>,
  284|  11.3k|    y: Self::Output<U>,
  285|  11.3k|    f: F,
  286|  11.3k|  ) -> Self::Output<V> {
  287|  11.3k|    f(x, y)
  288|  11.3k|  }
_RINvXsb_NtCsaZdo92nHnrg_3nom8internalNtB6_5CheckNtB6_4Mode4bindTReINtNtCs6SNw0SRvItZ_4core6option6OptionB10_EB12_ENCINvXsB_B6_TINvNtNtB8_9character8complete6digit1B10_NtNtCs4qtBjdjJOwX_15rsonpath_syntax5error18InternalParseErrorEINtNtB8_10combinator3OptINtNtB8_8sequence8PrecededNCINvB24_4charB10_B2F_E0B21_EEIB3G_IB44_NCINvNtNtB8_5bytes8complete11tag_no_caseB10_B10_B2F_E0IB44_IB3G_INtNtB8_6branch6ChoiceTB4t_B4t_EEEB21_EEEEINtB6_6ParserB10_E7processINtB6_7OutputMBz_NtB6_4EmitNtB6_9StreamingEE0EB2J_:
  302|    916|  fn bind<T, F: FnOnce() -> T>(_: F) -> Self::Output<T> {}
_RNvYINtNtCsaZdo92nHnrg_3nom10combinator3CutNCNvNvNtCs4qtBjdjJOwX_15rsonpath_syntax6parser12logical_expr12parse_single0EINtNtB7_8internal6ParserReE5parseBN_:
  412|  3.19k|  fn parse(&mut self, input: Input) -> IResult<Input, Self::Output, Self::Error> {
  413|  3.19k|    self.process::<OutputM<Emit, Emit, Streaming>>(input)
  414|  3.19k|  }
_RNvYINtNtCsaZdo92nHnrg_3nom10combinator3OptNCINvNtCs4qtBjdjJOwX_15rsonpath_syntax6parser17ignore_whitespaceINtNtCs6SNw0SRvItZ_4core6option6OptionReEINtNtB7_8sequence8PrecededNCINvNtNtB7_9character8complete4charB2j_NtNtBM_5error18InternalParseErrorE0IB3_NCIBI_B2j_NvBK_3intB3q_E0EEB3q_E0EINtNtB7_8internal6ParserB2j_E5parseBM_:
  412|  1.85k|  fn parse(&mut self, input: Input) -> IResult<Input, Self::Output, Self::Error> {
  413|  1.85k|    self.process::<OutputM<Emit, Emit, Streaming>>(input)
  414|  1.85k|  }
_RNvYINtNtCsaZdo92nHnrg_3nom10combinator3OptNCINvNtCs4qtBjdjJOwX_15rsonpath_syntax6parser17ignore_whitespaceNtNvBK_12logical_expr9BooleanOpINtNtB7_6branch6ChoiceTINtNtB7_8internal3MapNCINvNtNtB7_5bytes8complete3tagReB3p_NtNtBM_5error18InternalParseErrorE0NCINvB5_5valueB3p_B1H_B3v_B2U_E0EB2z_EEB3v_E0EINtB2C_6ParserB3p_E5parseBM_:
  412|  12.1k|  fn parse(&mut self, input: Input) -> IResult<Input, Self::Output, Self::Error> {
  413|  12.1k|    self.process::<OutputM<Emit, Emit, Streaming>>(input)
  414|  12.1k|  }
_RNvYINtNtCsaZdo92nHnrg_3nom10combinator3OptNCINvNtCs4qtBjdjJOwX_15rsonpath_syntax6parser17ignore_whitespaceReNvBK_3intNtNtBM_5error18InternalParseErrorE0EINtNtB7_8internal6ParserB1H_E5parseBM_:
  412|  1.85k|  fn parse(&mut self, input: Input) -> IResult<Input, Self::Output, Self::Error> {
  413|  1.85k|    self.process::<OutputM<Emit, Emit, Streaming>>(input)
  414|  1.85k|  }
_RNvYINtNtCsaZdo92nHnrg_3nom10combinator3OptNCINvNtNtB7_9character8complete4charReNtNtCs4qtBjdjJOwX_15rsonpath_syntax5error18InternalParseErrorE0EINtNtB7_8internal6ParserB1f_E5parseB1l_:
  412|  10.6k|  fn parse(&mut self, input: Input) -> IResult<Input, Self::Output, Self::Error> {
  413|  10.6k|    self.process::<OutputM<Emit, Emit, Streaming>>(input)
  414|  10.6k|  }
_RNvYINtNtCsaZdo92nHnrg_3nom10combinator4PeekNCINvNtNtB7_9character8complete6one_ofReB1i_uE0EINtNtB7_8internal6ParserB1i_E5parseCs4qtBjdjJOwX_15rsonpath_syntax:
  412|  26.1k|  fn parse(&mut self, input: Input) -> IResult<Input, Self::Output, Self::Error> {
  413|  26.1k|    self.process::<OutputM<Emit, Emit, Streaming>>(input)
  414|  26.1k|  }
_RNvYINtNtCsaZdo92nHnrg_3nom10combinator9RecognizeINtNtB7_6branch6ChoiceTINtNtB7_8sequence8PrecededNCINvNtNtB7_9character8complete4charReNtNtCs4qtBjdjJOwX_15rsonpath_syntax5error18InternalParseErrorE0INvB1D_6digit1B28_B2a_EEB3b_EEEINtNtB7_8internal6ParserB28_E5parseB2e_:
  412|  29.7k|  fn parse(&mut self, input: Input) -> IResult<Input, Self::Output, Self::Error> {
  413|  29.7k|    self.process::<OutputM<Emit, Emit, Streaming>>(input)
  414|  29.7k|  }
_RNvYINtNtCsaZdo92nHnrg_3nom10combinator9RecognizeINtNtB7_6branch6ChoiceTINtNtB7_8sequence8PrecededNCINvNtNtB7_9character8complete4charReNtNtCs4qtBjdjJOwX_15rsonpath_syntax5error18InternalParseErrorE0NvNvNtB2e_6parser5float10base_floatEB3b_EEEINtNtB7_8internal6ParserB28_E5parseB2e_:
  412|  12.2k|  fn parse(&mut self, input: Input) -> IResult<Input, Self::Output, Self::Error> {
  413|  12.2k|    self.process::<OutputM<Emit, Emit, Streaming>>(input)
  414|  12.2k|  }
_RNvYINtNtCsaZdo92nHnrg_3nom10combinator9RecognizeTINvNtNtB7_9character8complete6digit1ReNtNtCs4qtBjdjJOwX_15rsonpath_syntax5error18InternalParseErrorEINtB5_3OptINtNtB7_8sequence8PrecededNCINvBP_4charB1m_B1o_E0BM_EEIB2p_IB2z_NCINvNtNtB7_5bytes8complete11tag_no_caseB1m_B1m_B1o_E0IB2z_IB2p_INtNtB7_6branch6ChoiceTB2Y_B2Y_EEEBM_EEEEEINtNtB7_8internal6ParserB1m_E5parseB1s_:
  412|  12.2k|  fn parse(&mut self, input: Input) -> IResult<Input, Self::Output, Self::Error> {
  413|  12.2k|    self.process::<OutputM<Emit, Emit, Streaming>>(input)
  414|  12.2k|  }
_RINvXsa_NtCsaZdo92nHnrg_3nom8internalNtB6_4EmitNtB6_4Mode4bindINtNtB8_5error5ErrorReENCINvXNtB8_9characterINtB1r_4CharBY_EINtB6_6ParserB1i_E7processINtB6_7OutputMBz_Bz_NtB6_8CompleteEEs0_0ECs4qtBjdjJOwX_15rsonpath_syntax:
  272|  21.8k|  fn bind<T, F: FnOnce() -> T>(f: F) -> Self::Output<T> {
  273|  21.8k|    f()
  274|  21.8k|  }
_RINvXsa_NtCsaZdo92nHnrg_3nom8internalNtB6_4EmitNtB6_4Mode4bindNtNtCs4qtBjdjJOwX_15rsonpath_syntax5error18InternalParseErrorNCINvXNtB8_9characterINtB23_4CharBY_EINtB6_6ParserReE7processINtB6_7OutputMBz_Bz_NtB6_8CompleteEEs0_0EB12_:
  272|   122k|  fn bind<T, F: FnOnce() -> T>(f: F) -> Self::Output<T> {
  273|   122k|    f()
  274|   122k|  }
_RINvXsa_NtCsaZdo92nHnrg_3nom8internalNtB6_4EmitNtB6_4Mode4bindReNCINvXsf_B6_INvNtNtB8_9character8complete6digit1BY_NtNtCs4qtBjdjJOwX_15rsonpath_syntax5error18InternalParseErrorEINtB6_6ParserBY_E7processINtB6_7OutputMBz_Bz_NtB6_9StreamingEEs_0EB1T_:
  272|    916|  fn bind<T, F: FnOnce() -> T>(f: F) -> Self::Output<T> {
  273|    916|    f()
  274|    916|  }
_RINvXsa_NtCsaZdo92nHnrg_3nom8internalNtB6_4EmitNtB6_4Mode4bindReNCINvXsf_B6_INvNtNtB8_9character8complete6digit1BY_NtNtCs4qtBjdjJOwX_15rsonpath_syntax5error18InternalParseErrorEINtB6_6ParserBY_E7processINtB6_7OutputMBz_NtB6_5CheckNtB6_9StreamingEEs_0EB1T_:
  272|    146|  fn bind<T, F: FnOnce() -> T>(f: F) -> Self::Output<T> {
  273|    146|    f()
  274|    146|  }
_RINvXsa_NtCsaZdo92nHnrg_3nom8internalNtB6_4EmitNtB6_4Mode4bindcNCINvXNtB8_9characterINtB15_4CharINtNtB8_5error5ErrorReEEINtB6_6ParserB1Q_E7processINtB6_7OutputMBz_Bz_NtB6_8CompleteEEs1_0ECs4qtBjdjJOwX_15rsonpath_syntax:
  272|  30.6k|  fn bind<T, F: FnOnce() -> T>(f: F) -> Self::Output<T> {
  273|  30.6k|    f()
  274|  30.6k|  }
_RINvXsa_NtCsaZdo92nHnrg_3nom8internalNtB6_4EmitNtB6_4Mode4bindcNCINvXNtB8_9characterINtB15_4CharNtNtCs4qtBjdjJOwX_15rsonpath_syntax5error18InternalParseErrorEINtB6_6ParserReE7processINtB6_7OutputMBz_Bz_NtB6_8CompleteEEs1_0EB1A_:
  272|  62.3k|  fn bind<T, F: FnOnce() -> T>(f: F) -> Self::Output<T> {
  273|  62.3k|    f()
  274|  62.3k|  }
_RINvXsa_NtCsaZdo92nHnrg_3nom8internalNtB6_4EmitNtB6_4Mode4bindcNCINvXNtB8_9characterINtB15_4CharuEINtB6_6ParserReE7processINtB6_7OutputMBz_Bz_NtB6_8CompleteEEs1_0ECs4qtBjdjJOwX_15rsonpath_syntax:
  272|  6.39k|  fn bind<T, F: FnOnce() -> T>(f: F) -> Self::Output<T> {
  273|  6.39k|    f()
  274|  6.39k|  }
_RINvXsa_NtCsaZdo92nHnrg_3nom8internalNtB6_4EmitNtB6_4Mode4bindcNCINvXs_NtB8_9characterINtB17_7SatisfyNCINvB17_6one_ofReB1R_uE0NCB1D_s_0EINtB6_6ParserB1R_E7processINtB6_7OutputMBz_Bz_NtB6_8CompleteEEs1_0ECs4qtBjdjJOwX_15rsonpath_syntax:
  272|  18.9k|  fn bind<T, F: FnOnce() -> T>(f: F) -> Self::Output<T> {
  273|  18.9k|    f()
  274|  18.9k|  }
_RINvXsa_NtCsaZdo92nHnrg_3nom8internalNtB6_4EmitNtB6_4Mode4bindcNCINvXsf_B6_NCINvNtNtB8_9character8complete4charReNtNtCs4qtBjdjJOwX_15rsonpath_syntax5error18InternalParseErrorE0INtB6_6ParserB1L_E7processINtB6_7OutputMBz_Bz_NtB6_9StreamingEEs_0EB1R_:
  272|  10.2k|  fn bind<T, F: FnOnce() -> T>(f: F) -> Self::Output<T> {
  273|  10.2k|    f()
  274|  10.2k|  }
_RINvXsa_NtCsaZdo92nHnrg_3nom8internalNtB6_4EmitNtB6_4Mode4bindcNCINvXsf_B6_NCINvNtNtB8_9character8complete4charReNtNtCs4qtBjdjJOwX_15rsonpath_syntax5error18InternalParseErrorE0INtB6_6ParserB1L_E7processINtB6_7OutputMBz_NtB6_5CheckNtB6_9StreamingEEs_0EB1R_:
  272|  3.24k|  fn bind<T, F: FnOnce() -> T>(f: F) -> Self::Output<T> {
  273|  3.24k|    f()
  274|  3.24k|  }
_RINvXsa_NtCsaZdo92nHnrg_3nom8internalNtB6_4EmitNtB6_4Mode4bindcNCINvXsf_B6_NCINvNtNtB8_9character8complete6one_ofReB1N_uE0INtB6_6ParserB1N_E7processINtB6_7OutputMBz_Bz_NtB6_9StreamingEEs_0ECs4qtBjdjJOwX_15rsonpath_syntax:
  272|  18.9k|  fn bind<T, F: FnOnce() -> T>(f: F) -> Self::Output<T> {
  273|  18.9k|    f()
  274|  18.9k|  }
_RINvXsa_NtCsaZdo92nHnrg_3nom8internalNtB6_4EmitNtB6_4Mode4binduNCINvXNtB8_9characterINtB15_4CharuEINtB6_6ParserReE7processINtB6_7OutputMBz_Bz_NtB6_8CompleteEEs0_0ECs4qtBjdjJOwX_15rsonpath_syntax:
  272|  7.44k|  fn bind<T, F: FnOnce() -> T>(f: F) -> Self::Output<T> {
  273|  7.44k|    f()
  274|  7.44k|  }
_RINvXsa_NtCsaZdo92nHnrg_3nom8internalNtB6_4EmitNtB6_4Mode4binduNCINvXs_NtB8_9characterINtB17_7SatisfyNCINvB17_6one_ofReB1R_uE0NCB1D_s_0EINtB6_6ParserB1R_E7processINtB6_7OutputMBz_Bz_NtB6_8CompleteEEs0_0ECs4qtBjdjJOwX_15rsonpath_syntax:
  272|  7.27k|  fn bind<T, F: FnOnce() -> T>(f: F) -> Self::Output<T> {
  273|  7.27k|    f()
  274|  7.27k|  }
_RINvXsb_NtCsaZdo92nHnrg_3nom8internalNtB6_5CheckNtB6_4Mode4bindReNCINvXsf_B6_INvNtNtB8_9character8complete6digit1BZ_NtNtCs4qtBjdjJOwX_15rsonpath_syntax5error18InternalParseErrorEINtB6_6ParserBZ_E7processINtB6_7OutputMBz_NtB6_4EmitNtB6_9StreamingEEs_0EB1U_:
  302|  18.5k|  fn bind<T, F: FnOnce() -> T>(_: F) -> Self::Output<T> {}
_RINvXsb_NtCsaZdo92nHnrg_3nom8internalNtB6_5CheckNtB6_4Mode4bindcNCINvXsf_B6_NCINvNtNtB8_9character8complete4charReNtNtCs4qtBjdjJOwX_15rsonpath_syntax5error18InternalParseErrorE0INtB6_6ParserB1M_E7processINtB6_7OutputMBz_Bz_NtB6_9StreamingEEs_0EB1S_:
  302|    146|  fn bind<T, F: FnOnce() -> T>(_: F) -> Self::Output<T> {}
_RINvXsb_NtCsaZdo92nHnrg_3nom8internalNtB6_5CheckNtB6_4Mode4bindcNCINvXsf_B6_NCINvNtNtB8_9character8complete4charReNtNtCs4qtBjdjJOwX_15rsonpath_syntax5error18InternalParseErrorE0INtB6_6ParserB1M_E7processINtB6_7OutputMBz_NtB6_4EmitNtB6_9StreamingEEs_0EB1S_:
  302|  26.8k|  fn bind<T, F: FnOnce() -> T>(_: F) -> Self::Output<T> {}
_RINvXsf_NtCsaZdo92nHnrg_3nom8internalINvNtNtB8_9character8complete6digit1ReNtNtCs4qtBjdjJOwX_15rsonpath_syntax5error18InternalParseErrorEINtB6_6ParserB19_E7processINtB6_7OutputMNtB6_4EmitB2P_NtB6_9StreamingEEB1f_:
  516|  12.2k|  fn process<OM: OutputMode>(&mut self, i: I) -> PResult<OM, I, Self::Output, Self::Error> {
  517|  12.2k|    let (i, o) = self(i).map_err(|e| match e {
  518|       |      Err::Incomplete(i) => Err::Incomplete(i),
  519|       |      Err::Error(e) => Err::Error(OM::Error::bind(|| e)),
  520|       |      Err::Failure(e) => Err::Failure(e),
  521|  11.3k|    })?;
  522|    916|    Ok((i, OM::Output::bind(|| o)))
  523|  12.2k|  }
_RINvXsf_NtCsaZdo92nHnrg_3nom8internalINvNtNtB8_9character8complete6digit1ReNtNtCs4qtBjdjJOwX_15rsonpath_syntax5error18InternalParseErrorEINtB6_6ParserB19_E7processINtB6_7OutputMNtB6_4EmitNtB6_5CheckNtB6_9StreamingEEB1f_:
  516|    146|  fn process<OM: OutputMode>(&mut self, i: I) -> PResult<OM, I, Self::Output, Self::Error> {
  517|    146|    let (i, o) = self(i).map_err(|e| match e {
  518|       |      Err::Incomplete(i) => Err::Incomplete(i),
  519|       |      Err::Error(e) => Err::Error(OM::Error::bind(|| e)),
  520|       |      Err::Failure(e) => Err::Failure(e),
  521|      0|    })?;
  522|    146|    Ok((i, OM::Output::bind(|| o)))
  523|    146|  }
_RINvXsf_NtCsaZdo92nHnrg_3nom8internalINvNtNtB8_9character8complete6digit1ReNtNtCs4qtBjdjJOwX_15rsonpath_syntax5error18InternalParseErrorEINtB6_6ParserB19_E7processINtB6_7OutputMNtB6_5CheckNtB6_4EmitNtB6_9StreamingEEB1f_:
  516|  29.7k|  fn process<OM: OutputMode>(&mut self, i: I) -> PResult<OM, I, Self::Output, Self::Error> {
  517|  29.7k|    let (i, o) = self(i).map_err(|e| match e {
  518|       |      Err::Incomplete(i) => Err::Incomplete(i),
  519|       |      Err::Error(e) => Err::Error(OM::Error::bind(|| e)),
  520|       |      Err::Failure(e) => Err::Failure(e),
  521|  11.1k|    })?;
  522|  18.5k|    Ok((i, OM::Output::bind(|| o)))
  523|  29.7k|  }
_RINvXsf_NtCsaZdo92nHnrg_3nom8internalNCINvNtNtB8_9character8complete4charReNtNtCs4qtBjdjJOwX_15rsonpath_syntax5error18InternalParseErrorE0INtB6_6ParserB19_E7processINtB6_7OutputMNtB6_4EmitB2Q_NtB6_9StreamingEEB1f_:
  516|  32.5k|  fn process<OM: OutputMode>(&mut self, i: I) -> PResult<OM, I, Self::Output, Self::Error> {
  517|  32.5k|    let (i, o) = self(i).map_err(|e| match e {
  518|       |      Err::Incomplete(i) => Err::Incomplete(i),
  519|       |      Err::Error(e) => Err::Error(OM::Error::bind(|| e)),
  520|       |      Err::Failure(e) => Err::Failure(e),
  521|  22.3k|    })?;
  522|  10.2k|    Ok((i, OM::Output::bind(|| o)))
  523|  32.5k|  }
_RINvXsf_NtCsaZdo92nHnrg_3nom8internalNCINvNtNtB8_9character8complete4charReNtNtCs4qtBjdjJOwX_15rsonpath_syntax5error18InternalParseErrorE0INtB6_6ParserB19_E7processINtB6_7OutputMNtB6_4EmitNtB6_5CheckNtB6_9StreamingEEB1f_:
  516|  10.6k|  fn process<OM: OutputMode>(&mut self, i: I) -> PResult<OM, I, Self::Output, Self::Error> {
  517|  10.6k|    let (i, o) = self(i).map_err(|e| match e {
  518|       |      Err::Incomplete(i) => Err::Incomplete(i),
  519|       |      Err::Error(e) => Err::Error(OM::Error::bind(|| e)),
  520|       |      Err::Failure(e) => Err::Failure(e),
  521|  7.40k|    })?;
  522|  3.24k|    Ok((i, OM::Output::bind(|| o)))
  523|  10.6k|  }
_RINvXsf_NtCsaZdo92nHnrg_3nom8internalNCINvNtNtB8_9character8complete4charReNtNtCs4qtBjdjJOwX_15rsonpath_syntax5error18InternalParseErrorE0INtB6_6ParserB19_E7processINtB6_7OutputMNtB6_5CheckB2Q_NtB6_9StreamingEEB1f_:
  516|    916|  fn process<OM: OutputMode>(&mut self, i: I) -> PResult<OM, I, Self::Output, Self::Error> {
  517|    916|    let (i, o) = self(i).map_err(|e| match e {
  518|       |      Err::Incomplete(i) => Err::Incomplete(i),
  519|       |      Err::Error(e) => Err::Error(OM::Error::bind(|| e)),
  520|       |      Err::Failure(e) => Err::Failure(e),
  521|    770|    })?;
  522|    146|    Ok((i, OM::Output::bind(|| o)))
  523|    916|  }
_RINvXsf_NtCsaZdo92nHnrg_3nom8internalNCINvNtNtB8_9character8complete4charReNtNtCs4qtBjdjJOwX_15rsonpath_syntax5error18InternalParseErrorE0INtB6_6ParserB19_E7processINtB6_7OutputMNtB6_5CheckNtB6_4EmitNtB6_9StreamingEEB1f_:
  516|   119k|  fn process<OM: OutputMode>(&mut self, i: I) -> PResult<OM, I, Self::Output, Self::Error> {
  517|   119k|    let (i, o) = self(i).map_err(|e| match e {
  518|       |      Err::Incomplete(i) => Err::Incomplete(i),
  519|       |      Err::Error(e) => Err::Error(OM::Error::bind(|| e)),
  520|       |      Err::Failure(e) => Err::Failure(e),
  521|  92.2k|    })?;
  522|  26.8k|    Ok((i, OM::Output::bind(|| o)))
  523|   119k|  }
_RINvXsf_NtCsaZdo92nHnrg_3nom8internalNCINvNtNtB8_9character8complete6one_ofReB1b_uE0INtB6_6ParserB1b_E7processINtB6_7OutputMNtB6_4EmitB1Y_NtB6_9StreamingEECs4qtBjdjJOwX_15rsonpath_syntax:
  516|  26.1k|  fn process<OM: OutputMode>(&mut self, i: I) -> PResult<OM, I, Self::Output, Self::Error> {
  517|  26.1k|    let (i, o) = self(i).map_err(|e| match e {
  518|       |      Err::Incomplete(i) => Err::Incomplete(i),
  519|       |      Err::Error(e) => Err::Error(OM::Error::bind(|| e)),
  520|       |      Err::Failure(e) => Err::Failure(e),
  521|  7.27k|    })?;
  522|  18.9k|    Ok((i, OM::Output::bind(|| o)))
  523|  26.1k|  }
_RINvYNCINvNtNtCsaZdo92nHnrg_3nom9character8complete4charReNtNtCs4qtBjdjJOwX_15rsonpath_syntax5error18InternalParseErrorE0INtNtBc_8internal6ParserBS_E3mapNCINvNtBc_10combinator5valueBS_NtBY_12ComparisonOpBU_B3_E0B2W_EBY_:
  431|  14.8k|  fn map<G, O2>(self, g: G) -> Map<Self, G>
  432|  14.8k|  where
  433|  14.8k|    G: FnMut(Self::Output) -> O2,
  434|  14.8k|    Self: core::marker::Sized,
  435|       |  {
  436|  14.8k|    Map { f: self, g }
  437|  14.8k|  }
_RINvYNCINvNtNtCsaZdo92nHnrg_3nom9character8complete4charReNtNtCs4qtBjdjJOwX_15rsonpath_syntax5error18InternalParseErrorE0INtNtBc_8internal6ParserBS_E3mapNCINvNtBc_10combinator5valueBS_NtNtBY_6parser16RootSelectorTypeBU_B3_E0B2W_EBY_:
  431|  14.5k|  fn map<G, O2>(self, g: G) -> Map<Self, G>
  432|  14.5k|  where
  433|  14.5k|    G: FnMut(Self::Output) -> O2,
  434|  14.5k|    Self: core::marker::Sized,
  435|       |  {
  436|  14.5k|    Map { f: self, g }
  437|  14.5k|  }
_RNvYNCINvNtNtCsaZdo92nHnrg_3nom9character8complete4charReNtNtCs4qtBjdjJOwX_15rsonpath_syntax5error18InternalParseErrorE0INtNtBb_8internal6ParserBR_E5parseBX_:
  412|  14.5k|  fn parse(&mut self, input: Input) -> IResult<Input, Self::Output, Self::Error> {
  413|  14.5k|    self.process::<OutputM<Emit, Emit, Streaming>>(input)
  414|  14.5k|  }
_RINvXsa_NtCsaZdo92nHnrg_3nom8internalNtB6_4EmitNtB6_4Mode4bindINtNtCs6SNw0SRvItZ_4core6option6OptionReENCINvXNtB8_10combinatorINtB1J_3OptNvNtCs4qtBjdjJOwX_15rsonpath_syntax6parser3intEINtB6_6ParserB1A_E7processINtB6_7OutputMBz_Bz_NtB6_9StreamingEE0EB2f_:
  272|  5.62k|  fn bind<T, F: FnOnce() -> T>(f: F) -> Self::Output<T> {
  273|  5.62k|    f()
  274|  5.62k|  }
_RINvYINtNtCsaZdo92nHnrg_3nom8sequence8PrecededNCINvNtNtB8_5bytes8complete3tagReB1d_NtNtCs4qtBjdjJOwX_15rsonpath_syntax5error18InternalParseErrorE0INtNtB8_10combinator3CutINtNtB8_6branch6ChoiceTNCNvNtB1n_6parser18descendant_segment0INtNtB8_8internal3MapNvB39_17wildcard_selectorNvMsq_B1n_NtB1n_9Selectors3oneENvB39_21member_name_shorthandNCINvB39_14failed_segmentB4B_E0EEEEINtB3K_6ParserB1d_E3mapNcNtNtB1n_7Segment10Descendant0B6p_EB1n_:
  431|  21.8k|  fn map<G, O2>(self, g: G) -> Map<Self, G>
  432|  21.8k|  where
  433|  21.8k|    G: FnMut(Self::Output) -> O2,
  434|  21.8k|    Self: core::marker::Sized,
  435|       |  {
  436|  21.8k|    Map { f: self, g }
  437|  21.8k|  }
_RINvYINtNtCsaZdo92nHnrg_3nom8sequence8PrecededNCINvNtNtB8_9character8complete4charReNtNtCs4qtBjdjJOwX_15rsonpath_syntax5error18InternalParseErrorE0NCINvNtB1o_6parser17ignore_whitespaceNtB1o_11LogicalExprNCNvB2q_15filter_selector0B1k_E0EINtNtB8_8internal6ParserB1i_E4intoNtB1o_8SelectorB1k_EB1o_:
  497|  4.21k|  fn into<O2: From<Self::Output>, E2: From<Self::Error>>(self) -> Into<Self, O2, E2>
  498|  4.21k|  where
  499|  4.21k|    Self: core::marker::Sized,
  500|       |  {
  501|  4.21k|    Into {
  502|  4.21k|      f: self,
  503|  4.21k|      phantom_out2: core::marker::PhantomData,
  504|  4.21k|      phantom_err2: core::marker::PhantomData,
  505|  4.21k|    }
  506|  4.21k|  }
_RNvYINtNtCsaZdo92nHnrg_3nom8sequence10TerminatedINtNtB7_10combinator3OptNvNtCs4qtBjdjJOwX_15rsonpath_syntax6parser3intENCINvB1a_17ignore_whitespacecNCINvNtNtB7_9character8complete4charReNtNtB1c_5error18InternalParseErrorE0B2Y_E0EINtNtB7_8internal6ParserB2W_E5parseB1c_:
  412|  14.5k|  fn parse(&mut self, input: Input) -> IResult<Input, Self::Output, Self::Error> {
  413|  14.5k|    self.process::<OutputM<Emit, Emit, Streaming>>(input)
  414|  14.5k|  }
_RNvYINtNtCsaZdo92nHnrg_3nom8sequence8PrecededNCINvNtNtB7_9character8complete4charReNtNtCs4qtBjdjJOwX_15rsonpath_syntax5error18InternalParseErrorE0INtNtB7_10combinator3OptNCINvNtB1n_6parser17ignore_whitespaceB1h_NvB2N_3intB1j_E0EEINtNtB7_8internal6ParserB1h_E5parseB1n_:
  412|  1.85k|  fn parse(&mut self, input: Input) -> IResult<Input, Self::Output, Self::Error> {
  413|  1.85k|    self.process::<OutputM<Emit, Emit, Streaming>>(input)
  414|  1.85k|  }
_RINvXsa_NtCsaZdo92nHnrg_3nom8internalNtB6_4EmitNtB6_4Mode3mapNtCs4qtBjdjJOwX_15rsonpath_syntax11LogicalExprNtBZ_8SelectorNCINvXsn_B6_INtB6_4IntoINtNtB8_8sequence8PrecededNCINvNtNtB8_9character8complete4charReNtNtBZ_5error18InternalParseErrorE0NCINvNtBZ_6parser17ignore_whitespaceBX_NCNvB3Y_15filter_selector0B3k_E0EB1H_B3k_EINtB6_6ParserB3i_E7processINtB6_7OutputMBz_Bz_NtB6_9StreamingEE0EBZ_:
  277|  4.21k|  fn map<T, U, F: FnOnce(T) -> U>(x: Self::Output<T>, f: F) -> Self::Output<U> {
  278|  4.21k|    f(x)
  279|  4.21k|  }
_RINvXsa_NtCsaZdo92nHnrg_3nom8internalNtB6_4EmitNtB6_4Mode3mapNtCs4qtBjdjJOwX_15rsonpath_syntax7LiteralNtBZ_10ComparableNCINvXsn_B6_INtB6_4IntoNvNtBZ_6parser7literalB1C_NtNtBZ_5error18InternalParseErrorEINtB6_6ParserReE7processINtB6_7OutputMBz_Bz_NtB6_9StreamingEE0EBZ_:
  277|  2.89k|  fn map<T, U, F: FnOnce(T) -> U>(x: Self::Output<T>, f: F) -> Self::Output<U> {
  278|  2.89k|    f(x)
  279|  2.89k|  }
_RINvXsa_NtCsaZdo92nHnrg_3nom8internalNtB6_4EmitNtB6_4Mode3mapNtCs4qtBjdjJOwX_15rsonpath_syntax9SelectorsNtBZ_7SegmentNCINvXsg_B6_INtB6_3MapINtNtB8_6branch6ChoiceTNCNvNtBZ_6parser13child_segment0INtNtB8_8sequence8PrecededNCINvNtNtB8_9character8complete4charReNtNtBZ_5error18InternalParseErrorE0INtNtB8_10combinator3CutIB2e_TIB24_NvB2E_17wildcard_selectorNvMsq_BZ_BX_3oneENvB2E_21member_name_shorthandNCINvB2E_14failed_segmentBX_E0EEEEEENcNtB1E_5Child0EINtB6_6ParserB46_E7processINtB6_7OutputMBz_Bz_NtB6_9StreamingEE0EBZ_:
  277|  18.2k|  fn map<T, U, F: FnOnce(T) -> U>(x: Self::Output<T>, f: F) -> Self::Output<U> {
  278|  18.2k|    f(x)
  279|  18.2k|  }
_RINvXsa_NtCsaZdo92nHnrg_3nom8internalNtB6_4EmitNtB6_4Mode3mapNtCs4qtBjdjJOwX_15rsonpath_syntax9SelectorsNtBZ_7SegmentNCINvXsg_B6_INtB6_3MapINtNtB8_8sequence8PrecededNCINvNtNtB8_5bytes8complete3tagReB38_NtNtBZ_5error18InternalParseErrorE0INtNtB8_10combinator3CutINtNtB8_6branch6ChoiceTNCNvNtBZ_6parser18descendant_segment0IB24_NvB4C_17wildcard_selectorNvMsq_BZ_BX_3oneENvB4C_21member_name_shorthandNCINvB4C_14failed_segmentBX_E0EEEENcNtB1E_10Descendant0EINtB6_6ParserB38_E7processINtB6_7OutputMBz_Bz_NtB6_9StreamingEE0EBZ_:
  277|  3.59k|  fn map<T, U, F: FnOnce(T) -> U>(x: Self::Output<T>, f: F) -> Self::Output<U> {
  278|  3.59k|    f(x)
  279|  3.59k|  }
_RINvXsa_NtCsaZdo92nHnrg_3nom8internalNtB6_4EmitNtB6_4Mode3mapNtNtCs4qtBjdjJOwX_15rsonpath_syntax3num10JsonNumberNtB11_7LiteralNCINvXsn_B6_INtB6_4IntoNvNtB11_6parser6numberB1M_NtNtB11_5error18InternalParseErrorEINtB6_6ParserReE7processINtB6_7OutputMBz_Bz_NtB6_9StreamingEE0EB11_:
  277|    916|  fn map<T, U, F: FnOnce(T) -> U>(x: Self::Output<T>, f: F) -> Self::Output<U> {
  278|    916|    f(x)
  279|    916|  }
_RINvXsa_NtCsaZdo92nHnrg_3nom8internalNtB6_4EmitNtB6_4Mode3mapNtNtCs4qtBjdjJOwX_15rsonpath_syntax3num9JsonFloatNtBZ_10JsonNumberNCINvXsg_B6_INtB6_3MapNvNtB11_6parser5floatNCNvB2p_6number0EINtB6_6ParserReE7processINtB6_7OutputMBz_Bz_NtB6_9StreamingEE0EB11_:
  277|    916|  fn map<T, U, F: FnOnce(T) -> U>(x: Self::Output<T>, f: F) -> Self::Output<U> {
  278|    916|    f(x)
  279|    916|  }
_RINvXsa_NtCsaZdo92nHnrg_3nom8internalNtB6_4EmitNtB6_4Mode3mapNtNtCs4qtBjdjJOwX_15rsonpath_syntax3str10JsonStringNtB11_7LiteralNCINvXsn_B6_INtB6_4IntoNvNtB11_6parser14string_literalB1M_NtNtB11_5error18InternalParseErrorEINtB6_6ParserReE7processINtB6_7OutputMBz_Bz_NtB6_9StreamingEE0EB11_:
  277|    528|  fn map<T, U, F: FnOnce(T) -> U>(x: Self::Output<T>, f: F) -> Self::Output<U> {
  278|    528|    f(x)
  279|    528|  }
_RINvXsa_NtCsaZdo92nHnrg_3nom8internalNtB6_4EmitNtB6_4Mode3mapNtNtCs4qtBjdjJOwX_15rsonpath_syntax3str10JsonStringNtB11_8SelectorNCINvXsg_B6_INtB6_3MapNvNtB11_6parser14string_literalNcNtB1M_4Name0EINtB6_6ParserReE7processINtB6_7OutputMBz_Bz_NtB6_9StreamingEE0EB11_:
  277|  11.0k|  fn map<T, U, F: FnOnce(T) -> U>(x: Self::Output<T>, f: F) -> Self::Output<U> {
  278|  11.0k|    f(x)
  279|  11.0k|  }
_RINvXsa_NtCsaZdo92nHnrg_3nom8internalNtB6_4EmitNtB6_4Mode3mapNtNtCs4qtBjdjJOwX_15rsonpath_syntax5error18InternalParseErrorBX_NCINvXsn_B6_INtB6_4IntoNvNtB11_6parser14string_literalNtB11_7LiteralBX_EINtB6_6ParserReE7processINtB6_7OutputMBz_Bz_NtB6_9StreamingEEs_0EB11_:
  277|  10.7k|  fn map<T, U, F: FnOnce(T) -> U>(x: Self::Output<T>, f: F) -> Self::Output<U> {
  278|  10.7k|    f(x)
  279|  10.7k|  }
_RINvXsa_NtCsaZdo92nHnrg_3nom8internalNtB6_4EmitNtB6_4Mode3mapNtNtCs4qtBjdjJOwX_15rsonpath_syntax5error18InternalParseErrorBX_NCINvXsn_B6_INtB6_4IntoNvNtB11_6parser6numberNtB11_7LiteralBX_EINtB6_6ParserReE7processINtB6_7OutputMBz_Bz_NtB6_9StreamingEEs_0EB11_:
  277|  11.3k|  fn map<T, U, F: FnOnce(T) -> U>(x: Self::Output<T>, f: F) -> Self::Output<U> {
  278|  11.3k|    f(x)
  279|  11.3k|  }
_RINvXsa_NtCsaZdo92nHnrg_3nom8internalNtB6_4EmitNtB6_4Mode3mapNtNtCs4qtBjdjJOwX_15rsonpath_syntax5error18InternalParseErrorBX_NCINvXsn_B6_INtB6_4IntoNvNtB11_6parser7literalNtB11_10ComparableBX_EINtB6_6ParserReE7processINtB6_7OutputMBz_Bz_NtB6_9StreamingEEs_0EB11_:
  277|  1.88k|  fn map<T, U, F: FnOnce(T) -> U>(x: Self::Output<T>, f: F) -> Self::Output<U> {
  278|  1.88k|    f(x)
  279|  1.88k|  }
_RINvXsa_NtCsaZdo92nHnrg_3nom8internalNtB6_4EmitNtB6_4Mode3mapReNtCs4qtBjdjJOwX_15rsonpath_syntax8SelectorNCINvXsg_B6_INtB6_3MapNCINvNtNtB8_5bytes8complete3tagBX_BX_NtNtB11_5error18InternalParseErrorE0NCNvNtB11_6parser17wildcard_selector0EINtB6_6ParserBX_E7processINtB6_7OutputMBz_Bz_NtB6_9StreamingEE0EB11_:
  277|  4.14k|  fn map<T, U, F: FnOnce(T) -> U>(x: Self::Output<T>, f: F) -> Self::Output<U> {
  278|  4.14k|    f(x)
  279|  4.14k|  }
_RINvXsa_NtCsaZdo92nHnrg_3nom8internalNtB6_4EmitNtB6_4Mode4bindNtNtCs4qtBjdjJOwX_15rsonpath_syntax5error18InternalParseErrorNCNCINvXsf_B6_INvNtNtB8_9character8complete6digit1ReBY_EINtB6_6ParserB2L_E7processINtB6_7OutputMBz_Bz_NtB6_9StreamingEE00EB12_:
  272|  11.3k|  fn bind<T, F: FnOnce() -> T>(f: F) -> Self::Output<T> {
  273|  11.3k|    f()
  274|  11.3k|  }
_RINvXsa_NtCsaZdo92nHnrg_3nom8internalNtB6_4EmitNtB6_4Mode4bindNtNtCs4qtBjdjJOwX_15rsonpath_syntax5error18InternalParseErrorNCNCINvXsf_B6_INvNtNtB8_9character8complete6digit1ReBY_EINtB6_6ParserB2L_E7processINtB6_7OutputMNtB6_5CheckBz_NtB6_9StreamingEE00EB12_:
  272|  11.1k|  fn bind<T, F: FnOnce() -> T>(f: F) -> Self::Output<T> {
  273|  11.1k|    f()
  274|  11.1k|  }
_RINvXsa_NtCsaZdo92nHnrg_3nom8internalNtB6_4EmitNtB6_4Mode4bindNtNtCs4qtBjdjJOwX_15rsonpath_syntax5error18InternalParseErrorNCNCINvXsf_B6_NCINvNtB12_6parser17ignore_whitespaceNtB12_8SelectorNvB2g_13name_selectorBY_E0INtB6_6ParserReE7processINtB6_7OutputMBz_Bz_NtB6_9StreamingEE00EB12_:
  272|  18.6k|  fn bind<T, F: FnOnce() -> T>(f: F) -> Self::Output<T> {
  273|  18.6k|    f()
  274|  18.6k|  }
_RINvXsa_NtCsaZdo92nHnrg_3nom8internalNtB6_4EmitNtB6_4Mode4bindNtNtCs4qtBjdjJOwX_15rsonpath_syntax5error18InternalParseErrorNCNCINvXsf_B6_NCINvNtB12_6parser17ignore_whitespaceNtB12_8SelectorNvB2g_14index_selectorBY_E0INtB6_6ParserReE7processINtB6_7OutputMBz_Bz_NtB6_9StreamingEE00EB12_:
  272|  4.21k|  fn bind<T, F: FnOnce() -> T>(f: F) -> Self::Output<T> {
  273|  4.21k|    f()
  274|  4.21k|  }
_RINvXsa_NtCsaZdo92nHnrg_3nom8internalNtB6_4EmitNtB6_4Mode4bindNtNtCs4qtBjdjJOwX_15rsonpath_syntax5error18InternalParseErrorNCNCINvXsf_B6_NCINvNtB12_6parser17ignore_whitespaceNtB12_8SelectorNvB2g_14slice_selectorBY_E0INtB6_6ParserReE7processINtB6_7OutputMBz_Bz_NtB6_9StreamingEE00EB12_:
  272|  12.6k|  fn bind<T, F: FnOnce() -> T>(f: F) -> Self::Output<T> {
  273|  12.6k|    f()
  274|  12.6k|  }
_RINvXsa_NtCsaZdo92nHnrg_3nom8internalNtB6_4EmitNtB6_4Mode4bindNtNtCs4qtBjdjJOwX_15rsonpath_syntax5error18InternalParseErrorNCNCINvXsf_B6_NCINvNtB12_6parser17ignore_whitespaceNtB12_8SelectorNvB2g_17wildcard_selectorBY_E0INtB6_6ParserReE7processINtB6_7OutputMBz_Bz_NtB6_9StreamingEE00EB12_:
  272|  14.5k|  fn bind<T, F: FnOnce() -> T>(f: F) -> Self::Output<T> {
  273|  14.5k|    f()
  274|  14.5k|  }
_RINvXsa_NtCsaZdo92nHnrg_3nom8internalNtB6_4EmitNtB6_4Mode4bindNtNtCs4qtBjdjJOwX_15rsonpath_syntax5error18InternalParseErrorNCNCINvXsf_B6_NCINvNtB12_6parser17ignore_whitespacecNCINvNtNtB8_9character8complete4charReBY_E0BY_E0INtB6_6ParserB3n_E7processINtB6_7OutputMNtB6_5CheckBz_NtB6_9StreamingEE00EB12_:
  272|  12.6k|  fn bind<T, F: FnOnce() -> T>(f: F) -> Self::Output<T> {
  273|  12.6k|    f()
  274|  12.6k|  }
_RINvXsa_NtCsaZdo92nHnrg_3nom8internalNtB6_4EmitNtB6_4Mode4bindNtNtCs4qtBjdjJOwX_15rsonpath_syntax5error18InternalParseErrorNCNCINvXsf_B6_NCINvNtNtB8_5bytes8complete3tagReB2G_BY_E0INtB6_6ParserB2G_E7processINtB6_7OutputMBz_Bz_NtB6_9StreamingEE00EB12_:
  272|  79.4k|  fn bind<T, F: FnOnce() -> T>(f: F) -> Self::Output<T> {
  273|  79.4k|    f()
  274|  79.4k|  }
_RINvXsa_NtCsaZdo92nHnrg_3nom8internalNtB6_4EmitNtB6_4Mode4bindNtNtCs4qtBjdjJOwX_15rsonpath_syntax5error18InternalParseErrorNCNCINvXsf_B6_NCINvNtNtB8_5bytes8complete3tagReB2G_BY_E0INtB6_6ParserB2G_E7processINtB6_7OutputMNtB6_5CheckBz_NtB6_9StreamingEE00EB12_:
  272|  18.2k|  fn bind<T, F: FnOnce() -> T>(f: F) -> Self::Output<T> {
  273|  18.2k|    f()
  274|  18.2k|  }
_RINvXsa_NtCsaZdo92nHnrg_3nom8internalNtB6_4EmitNtB6_4Mode4bindNtNtCs4qtBjdjJOwX_15rsonpath_syntax5error18InternalParseErrorNCNCINvXsf_B6_NCINvNtNtB8_9character8complete4charReBY_E0INtB6_6ParserB2L_E7processINtB6_7OutputMBz_Bz_NtB6_9StreamingEE00EB12_:
  272|  22.3k|  fn bind<T, F: FnOnce() -> T>(f: F) -> Self::Output<T> {
  273|  22.3k|    f()
  274|  22.3k|  }
_RINvXsa_NtCsaZdo92nHnrg_3nom8internalNtB6_4EmitNtB6_4Mode4bindNtNtCs4qtBjdjJOwX_15rsonpath_syntax5error18InternalParseErrorNCNCINvXsf_B6_NCINvNtNtB8_9character8complete4charReBY_E0INtB6_6ParserB2L_E7processINtB6_7OutputMNtB6_5CheckBz_NtB6_9StreamingEE00EB12_:
  272|  92.2k|  fn bind<T, F: FnOnce() -> T>(f: F) -> Self::Output<T> {
  273|  92.2k|    f()
  274|  92.2k|  }
_RINvXsa_NtCsaZdo92nHnrg_3nom8internalNtB6_4EmitNtB6_4Mode4bindNtNtCs4qtBjdjJOwX_15rsonpath_syntax5error18InternalParseErrorNCNCINvXsf_B6_NCNvNtB12_6parser12filter_query0INtB6_6ParserReE7processINtB6_7OutputMBz_Bz_NtB6_9StreamingEE00EB12_:
  272|  16.1k|  fn bind<T, F: FnOnce() -> T>(f: F) -> Self::Output<T> {
  273|  16.1k|    f()
  274|  16.1k|  }
_RINvXsa_NtCsaZdo92nHnrg_3nom8internalNtB6_4EmitNtB6_4Mode4bindNtNtCs4qtBjdjJOwX_15rsonpath_syntax5error18InternalParseErrorNCNCINvXsf_B6_NCNvNtB12_6parser7segment0INtB6_6ParserReE7processINtB6_7OutputMBz_Bz_NtB6_9StreamingEE00EB12_:
  272|  2.10k|  fn bind<T, F: FnOnce() -> T>(f: F) -> Self::Output<T> {
  273|  2.10k|    f()
  274|  2.10k|  }
_RINvXsa_NtCsaZdo92nHnrg_3nom8internalNtB6_4EmitNtB6_4Mode4bindNtNtCs4qtBjdjJOwX_15rsonpath_syntax5error18InternalParseErrorNCNCINvXsf_B6_NvNtB12_6parser13name_selectorINtB6_6ParserReE7processINtB6_7OutputMBz_Bz_NtB6_9StreamingEE00EB12_:
  272|  18.6k|  fn bind<T, F: FnOnce() -> T>(f: F) -> Self::Output<T> {
  273|  18.6k|    f()
  274|  18.6k|  }
_RINvXsa_NtCsaZdo92nHnrg_3nom8internalNtB6_4EmitNtB6_4Mode4bindNtNtCs4qtBjdjJOwX_15rsonpath_syntax5error18InternalParseErrorNCNCINvXsf_B6_NvNtB12_6parser14index_selectorINtB6_6ParserReE7processINtB6_7OutputMBz_Bz_NtB6_9StreamingEE00EB12_:
  272|  4.21k|  fn bind<T, F: FnOnce() -> T>(f: F) -> Self::Output<T> {
  273|  4.21k|    f()
  274|  4.21k|  }
_RINvXsa_NtCsaZdo92nHnrg_3nom8internalNtB6_4EmitNtB6_4Mode4bindNtNtCs4qtBjdjJOwX_15rsonpath_syntax5error18InternalParseErrorNCNCINvXsf_B6_NvNtB12_6parser14slice_selectorINtB6_6ParserReE7processINtB6_7OutputMBz_Bz_NtB6_9StreamingEE00EB12_:
  272|  12.6k|  fn bind<T, F: FnOnce() -> T>(f: F) -> Self::Output<T> {
  273|  12.6k|    f()
  274|  12.6k|  }
_RINvXsa_NtCsaZdo92nHnrg_3nom8internalNtB6_4EmitNtB6_4Mode4bindNtNtCs4qtBjdjJOwX_15rsonpath_syntax5error18InternalParseErrorNCNCINvXsf_B6_NvNtB12_6parser14string_literalINtB6_6ParserReE7processINtB6_7OutputMBz_Bz_NtB6_9StreamingEE00EB12_:
  272|  29.4k|  fn bind<T, F: FnOnce() -> T>(f: F) -> Self::Output<T> {
  273|  29.4k|    f()
  274|  29.4k|  }
_RINvXsa_NtCsaZdo92nHnrg_3nom8internalNtB6_4EmitNtB6_4Mode4bindNtNtCs4qtBjdjJOwX_15rsonpath_syntax5error18InternalParseErrorNCNCINvXsf_B6_NvNtB12_6parser17wildcard_selectorINtB6_6ParserReE7processINtB6_7OutputMBz_Bz_NtB6_9StreamingEE00EB12_:
  272|  14.5k|  fn bind<T, F: FnOnce() -> T>(f: F) -> Self::Output<T> {
  273|  14.5k|    f()
  274|  14.5k|  }
_RINvXsa_NtCsaZdo92nHnrg_3nom8internalNtB6_4EmitNtB6_4Mode4bindNtNtCs4qtBjdjJOwX_15rsonpath_syntax5error18InternalParseErrorNCNCINvXsf_B6_NvNtB12_6parser3intINtB6_6ParserReE7processINtB6_7OutputMBz_Bz_NtB6_9StreamingEE00EB12_:
  272|  1.31k|  fn bind<T, F: FnOnce() -> T>(f: F) -> Self::Output<T> {
  273|  1.31k|    f()
  274|  1.31k|  }
_RINvXsa_NtCsaZdo92nHnrg_3nom8internalNtB6_4EmitNtB6_4Mode4bindNtNtCs4qtBjdjJOwX_15rsonpath_syntax5error18InternalParseErrorNCNCINvXsf_B6_NvNtB12_6parser5floatINtB6_6ParserReE7processINtB6_7OutputMBz_Bz_NtB6_9StreamingEE00EB12_:
  272|  11.3k|  fn bind<T, F: FnOnce() -> T>(f: F) -> Self::Output<T> {
  273|  11.3k|    f()
  274|  11.3k|  }
_RINvXsa_NtCsaZdo92nHnrg_3nom8internalNtB6_4EmitNtB6_4Mode4bindNtNtCs4qtBjdjJOwX_15rsonpath_syntax5error18InternalParseErrorNCNCINvXsf_B6_NvNtB12_6parser6numberINtB6_6ParserReE7processINtB6_7OutputMBz_Bz_NtB6_9StreamingEE00EB12_:
  272|  11.3k|  fn bind<T, F: FnOnce() -> T>(f: F) -> Self::Output<T> {
  273|  11.3k|    f()
  274|  11.3k|  }
_RINvXsa_NtCsaZdo92nHnrg_3nom8internalNtB6_4EmitNtB6_4Mode4bindNtNtCs4qtBjdjJOwX_15rsonpath_syntax5error18InternalParseErrorNCNCINvXsf_B6_NvNtB12_6parser7literalINtB6_6ParserReE7processINtB6_7OutputMBz_Bz_NtB6_9StreamingEE00EB12_:
  272|  1.88k|  fn bind<T, F: FnOnce() -> T>(f: F) -> Self::Output<T> {
  273|  1.88k|    f()
  274|  1.88k|  }
_RINvXsa_NtCsaZdo92nHnrg_3nom8internalNtB6_4EmitNtB6_4Mode4bindNtNtCs4qtBjdjJOwX_15rsonpath_syntax5error18InternalParseErrorNCNCINvXsf_B6_NvNvNtB12_6parser5float10base_floatINtB6_6ParserReE7processINtB6_7OutputMNtB6_5CheckBz_NtB6_9StreamingEE00EB12_:
  272|  11.3k|  fn bind<T, F: FnOnce() -> T>(f: F) -> Self::Output<T> {
  273|  11.3k|    f()
  274|  11.3k|  }
_RINvXsa_NtCsaZdo92nHnrg_3nom8internalNtB6_4EmitNtB6_4Mode4binduNCNCINvXsf_B6_NCINvNtNtB8_9character8complete6one_ofReB1P_uE0INtB6_6ParserB1P_E7processINtB6_7OutputMBz_Bz_NtB6_9StreamingEE00ECs4qtBjdjJOwX_15rsonpath_syntax:
  272|  7.27k|  fn bind<T, F: FnOnce() -> T>(f: F) -> Self::Output<T> {
  273|  7.27k|    f()
  274|  7.27k|  }
_RINvXsb_NtCsaZdo92nHnrg_3nom8internalNtB6_5CheckNtB6_4Mode4bindNtNtCs4qtBjdjJOwX_15rsonpath_syntax5error18InternalParseErrorNCNCINvXsf_B6_NCINvNtB13_6parser17ignore_whitespaceINtNtCs6SNw0SRvItZ_4core6option6OptionReEINtNtB8_8sequence8PrecededNCINvNtNtB8_9character8complete4charB3p_BZ_E0INtNtB8_10combinator3OptNCIB2f_B3p_NvB2h_3intBZ_E0EEBZ_E0INtB6_6ParserB3p_E7processINtB6_7OutputMNtB6_4EmitBz_NtB6_9StreamingEE00EB13_:
  302|  1.24k|  fn bind<T, F: FnOnce() -> T>(_: F) -> Self::Output<T> {}
_RINvXsb_NtCsaZdo92nHnrg_3nom8internalNtB6_5CheckNtB6_4Mode4bindNtNtCs4qtBjdjJOwX_15rsonpath_syntax5error18InternalParseErrorNCNCINvXsf_B6_NCINvNtB13_6parser17ignore_whitespaceNtNvB2h_12logical_expr9BooleanOpINtNtB8_6branch6ChoiceTINtB6_3MapNCINvNtNtB8_5bytes8complete3tagReB4l_BZ_E0NCINvNtB8_10combinator5valueB4l_B2N_BZ_B3Q_E0EB3G_EEBZ_E0INtB6_6ParserB4l_E7processINtB6_7OutputMNtB6_4EmitBz_NtB6_9StreamingEE00EB13_:
  302|  8.94k|  fn bind<T, F: FnOnce() -> T>(_: F) -> Self::Output<T> {}
_RINvXsb_NtCsaZdo92nHnrg_3nom8internalNtB6_5CheckNtB6_4Mode4bindNtNtCs4qtBjdjJOwX_15rsonpath_syntax5error18InternalParseErrorNCNCINvXsf_B6_NCINvNtB13_6parser17ignore_whitespaceReNvB2h_3intBZ_E0INtB6_6ParserB2N_E7processINtB6_7OutputMNtB6_4EmitBz_NtB6_9StreamingEE00EB13_:
  302|  1.31k|  fn bind<T, F: FnOnce() -> T>(_: F) -> Self::Output<T> {}
_RINvXsb_NtCsaZdo92nHnrg_3nom8internalNtB6_5CheckNtB6_4Mode4bindNtNtCs4qtBjdjJOwX_15rsonpath_syntax5error18InternalParseErrorNCNCINvXsf_B6_NCINvNtNtB8_5bytes8complete11tag_no_caseReB2Q_BZ_E0INtB6_6ParserB2Q_E7processINtB6_7OutputMBz_Bz_NtB6_9StreamingEE00EB13_:
  302|    916|  fn bind<T, F: FnOnce() -> T>(_: F) -> Self::Output<T> {}
_RINvXsb_NtCsaZdo92nHnrg_3nom8internalNtB6_5CheckNtB6_4Mode4bindNtNtCs4qtBjdjJOwX_15rsonpath_syntax5error18InternalParseErrorNCNCINvXsf_B6_NCINvNtNtB8_9character8complete4charReBZ_E0INtB6_6ParserB2M_E7processINtB6_7OutputMBz_Bz_NtB6_9StreamingEE00EB13_:
  302|    770|  fn bind<T, F: FnOnce() -> T>(_: F) -> Self::Output<T> {}
_RINvXsb_NtCsaZdo92nHnrg_3nom8internalNtB6_5CheckNtB6_4Mode4bindNtNtCs4qtBjdjJOwX_15rsonpath_syntax5error18InternalParseErrorNCNCINvXsf_B6_NCINvNtNtB8_9character8complete4charReBZ_E0INtB6_6ParserB2M_E7processINtB6_7OutputMNtB6_4EmitBz_NtB6_9StreamingEE00EB13_:
  302|  7.40k|  fn bind<T, F: FnOnce() -> T>(_: F) -> Self::Output<T> {}
_RINvXsb_NtCsaZdo92nHnrg_3nom8internalNtB6_5CheckNtB6_4Mode4bindNtNtCs4qtBjdjJOwX_15rsonpath_syntax5error18InternalParseErrorNCNCINvXsf_B6_NvNtB13_6parser3intINtB6_6ParserReE7processINtB6_7OutputMNtB6_4EmitBz_NtB6_9StreamingEE00EB13_:
  302|  5.62k|  fn bind<T, F: FnOnce() -> T>(_: F) -> Self::Output<T> {}
_RINvXsg_NtCsaZdo92nHnrg_3nom8internalINtB6_3MapINtNtB8_6branch6ChoiceTNCNvNtCs4qtBjdjJOwX_15rsonpath_syntax6parser13child_segment0INtNtB8_8sequence8PrecededNCINvNtNtB8_9character8complete4charReNtNtB1c_5error18InternalParseErrorE0INtNtB8_10combinator3CutIBK_TIBA_NvB1a_17wildcard_selectorNvMsq_B1c_NtB1c_9Selectors3oneENvB1a_21member_name_shorthandNCINvB1a_14failed_segmentB4M_E0EEEEEENcNtNtB1c_7Segment5Child0EINtB6_6ParserB34_E7processINtB6_7OutputMNtB6_4EmitB7f_NtB6_9StreamingEEB1c_:
  592|  18.2k|  fn process<OM: OutputMode>(&mut self, i: I) -> PResult<OM, I, Self::Output, Self::Error> {
  593|  18.2k|    match self.f.process::<OM>(i) {
  594|      0|      Err(e) => Err(e),
  595|  18.2k|      Ok((i, o)) => Ok((i, OM::Output::map(o, |o| (self.g)(o)))),
  596|       |    }
  597|  18.2k|  }
_RINvXsg_NtCsaZdo92nHnrg_3nom8internalINtB6_3MapINtNtB8_8sequence8PrecededNCINvNtNtB8_5bytes8complete3tagReB1E_NtNtCs4qtBjdjJOwX_15rsonpath_syntax5error18InternalParseErrorE0INtNtB8_10combinator3CutINtNtB8_6branch6ChoiceTNCNvNtB1O_6parser18descendant_segment0IBA_NvB3A_17wildcard_selectorNvMsq_B1O_NtB1O_9Selectors3oneENvB3A_21member_name_shorthandNCINvB3A_14failed_segmentB4L_E0EEEENcNtNtB1O_7Segment10Descendant0EINtB6_6ParserB1E_E7processINtB6_7OutputMNtB6_4EmitB7i_NtB6_9StreamingEEB1O_:
  592|  21.8k|  fn process<OM: OutputMode>(&mut self, i: I) -> PResult<OM, I, Self::Output, Self::Error> {
  593|  21.8k|    match self.f.process::<OM>(i) {
  594|  18.2k|      Err(e) => Err(e),
  595|  3.59k|      Ok((i, o)) => Ok((i, OM::Output::map(o, |o| (self.g)(o)))),
  596|       |    }
  597|  21.8k|  }
_RINvXsg_NtCsaZdo92nHnrg_3nom8internalINtB6_3MapNCINvNtNtB8_5bytes8complete3tagReB1e_NtNtCs4qtBjdjJOwX_15rsonpath_syntax5error18InternalParseErrorE0NCNvNtB1o_6parser17wildcard_selector0EINtB6_6ParserB1e_E7processINtB6_7OutputMNtB6_4EmitB3B_NtB6_9StreamingEEB1o_:
  592|  18.6k|  fn process<OM: OutputMode>(&mut self, i: I) -> PResult<OM, I, Self::Output, Self::Error> {
  593|  18.6k|    match self.f.process::<OM>(i) {
  594|  14.5k|      Err(e) => Err(e),
  595|  4.14k|      Ok((i, o)) => Ok((i, OM::Output::map(o, |o| (self.g)(o)))),
  596|       |    }
  597|  18.6k|  }
_RINvXsg_NtCsaZdo92nHnrg_3nom8internalINtB6_3MapNvNtCs4qtBjdjJOwX_15rsonpath_syntax6parser14string_literalNcNtNtBN_8Selector4Name0EINtB6_6ParserReE7processINtB6_7OutputMNtB6_4EmitB2G_NtB6_9StreamingEEBN_:
  592|  29.7k|  fn process<OM: OutputMode>(&mut self, i: I) -> PResult<OM, I, Self::Output, Self::Error> {
  593|  29.7k|    match self.f.process::<OM>(i) {
  594|  18.6k|      Err(e) => Err(e),
  595|  11.0k|      Ok((i, o)) => Ok((i, OM::Output::map(o, |o| (self.g)(o)))),
  596|       |    }
  597|  29.7k|  }
_RINvXsg_NtCsaZdo92nHnrg_3nom8internalINtB6_3MapNvNtCs4qtBjdjJOwX_15rsonpath_syntax6parser5floatNCNvBL_6number0EINtB6_6ParserReE7processINtB6_7OutputMNtB6_4EmitB2n_NtB6_9StreamingEEBN_:
  592|  12.2k|  fn process<OM: OutputMode>(&mut self, i: I) -> PResult<OM, I, Self::Output, Self::Error> {
  593|  12.2k|    match self.f.process::<OM>(i) {
  594|  11.3k|      Err(e) => Err(e),
  595|    916|      Ok((i, o)) => Ok((i, OM::Output::map(o, |o| (self.g)(o)))),
  596|       |    }
  597|  12.2k|  }
_RINvXsn_NtCsaZdo92nHnrg_3nom8internalINtB6_4IntoINtNtB8_8sequence8PrecededNCINvNtNtB8_9character8complete4charReNtNtCs4qtBjdjJOwX_15rsonpath_syntax5error18InternalParseErrorE0NCINvNtB1Q_6parser17ignore_whitespaceNtB1Q_11LogicalExprNCNvB2S_15filter_selector0B1M_E0ENtB1Q_8SelectorB1M_EINtB6_6ParserB1K_E7processINtB6_7OutputMNtB6_4EmitB5c_NtB6_9StreamingEEB1Q_:
  773|  4.21k|  fn process<OM: OutputMode>(&mut self, i: I) -> PResult<OM, I, Self::Output, Self::Error> {
  774|  4.21k|    match self.f.process::<OM>(i) {
  775|  4.21k|      Ok((i, o)) => Ok((i, OM::Output::map(o, |o| o.into()))),
  776|      0|      Err(Err::Error(e)) => Err(Err::Error(OM::Error::map(e, |e| e.into()))),
  777|      0|      Err(Err::Failure(e)) => Err(Err::Failure(e.into())),
  778|      0|      Err(Err::Incomplete(e)) => Err(Err::Incomplete(e)),
  779|       |    }
  780|  4.21k|  }
_RINvXsn_NtCsaZdo92nHnrg_3nom8internalINtB6_4IntoNvNtCs4qtBjdjJOwX_15rsonpath_syntax6parser14string_literalNtBO_7LiteralNtNtBO_5error18InternalParseErrorEINtB6_6ParserReE7processINtB6_7OutputMNtB6_4EmitB33_NtB6_9StreamingEEBO_:
  773|  11.3k|  fn process<OM: OutputMode>(&mut self, i: I) -> PResult<OM, I, Self::Output, Self::Error> {
  774|  11.3k|    match self.f.process::<OM>(i) {
  775|    528|      Ok((i, o)) => Ok((i, OM::Output::map(o, |o| o.into()))),
  776|  10.7k|      Err(Err::Error(e)) => Err(Err::Error(OM::Error::map(e, |e| e.into()))),
  777|      0|      Err(Err::Failure(e)) => Err(Err::Failure(e.into())),
  778|      0|      Err(Err::Incomplete(e)) => Err(Err::Incomplete(e)),
  779|       |    }
  780|  11.3k|  }
_RINvXsn_NtCsaZdo92nHnrg_3nom8internalINtB6_4IntoNvNtCs4qtBjdjJOwX_15rsonpath_syntax6parser6numberNtBO_7LiteralNtNtBO_5error18InternalParseErrorEINtB6_6ParserReE7processINtB6_7OutputMNtB6_4EmitB2U_NtB6_9StreamingEEBO_:
  773|  12.2k|  fn process<OM: OutputMode>(&mut self, i: I) -> PResult<OM, I, Self::Output, Self::Error> {
  774|  12.2k|    match self.f.process::<OM>(i) {
  775|    916|      Ok((i, o)) => Ok((i, OM::Output::map(o, |o| o.into()))),
  776|  11.3k|      Err(Err::Error(e)) => Err(Err::Error(OM::Error::map(e, |e| e.into()))),
  777|      0|      Err(Err::Failure(e)) => Err(Err::Failure(e.into())),
  778|      0|      Err(Err::Incomplete(e)) => Err(Err::Incomplete(e)),
  779|       |    }
  780|  12.2k|  }
_RINvXsn_NtCsaZdo92nHnrg_3nom8internalINtB6_4IntoNvNtCs4qtBjdjJOwX_15rsonpath_syntax6parser7literalNtBO_10ComparableNtNtBO_5error18InternalParseErrorEINtB6_6ParserReE7processINtB6_7OutputMNtB6_4EmitB2Z_NtB6_9StreamingEEBO_:
  773|  4.77k|  fn process<OM: OutputMode>(&mut self, i: I) -> PResult<OM, I, Self::Output, Self::Error> {
  774|  4.77k|    match self.f.process::<OM>(i) {
  775|  2.89k|      Ok((i, o)) => Ok((i, OM::Output::map(o, |o| o.into()))),
  776|  1.88k|      Err(Err::Error(e)) => Err(Err::Error(OM::Error::map(e, |e| e.into()))),
  777|      0|      Err(Err::Failure(e)) => Err(Err::Failure(e.into())),
  778|      0|      Err(Err::Incomplete(e)) => Err(Err::Incomplete(e)),
  779|       |    }
  780|  4.77k|  }
_RNCINvXsf_NtCsaZdo92nHnrg_3nom8internalINvNtNtBa_9character8complete6digit1ReNtNtCs4qtBjdjJOwX_15rsonpath_syntax5error18InternalParseErrorEINtB8_6ParserB1b_E7processINtB8_7OutputMNtB8_4EmitB2R_NtB8_9StreamingEE0B1h_:
  517|  11.3k|    let (i, o) = self(i).map_err(|e| match e {
  518|      0|      Err::Incomplete(i) => Err::Incomplete(i),
  519|  11.3k|      Err::Error(e) => Err::Error(OM::Error::bind(|| e)),
  520|      0|      Err::Failure(e) => Err::Failure(e),
  521|  11.3k|    })?;
_RNCINvXsf_NtCsaZdo92nHnrg_3nom8internalINvNtNtBa_9character8complete6digit1ReNtNtCs4qtBjdjJOwX_15rsonpath_syntax5error18InternalParseErrorEINtB8_6ParserB1b_E7processINtB8_7OutputMNtB8_5CheckNtB8_4EmitNtB8_9StreamingEE0B1h_:
  517|  11.1k|    let (i, o) = self(i).map_err(|e| match e {
  518|      0|      Err::Incomplete(i) => Err::Incomplete(i),
  519|  11.1k|      Err::Error(e) => Err::Error(OM::Error::bind(|| e)),
  520|      0|      Err::Failure(e) => Err::Failure(e),
  521|  11.1k|    })?;
_RNCINvXsf_NtCsaZdo92nHnrg_3nom8internalNCINvNtCs4qtBjdjJOwX_15rsonpath_syntax6parser17ignore_whitespaceINtNtCs6SNw0SRvItZ_4core6option6OptionReEINtNtBa_8sequence8PrecededNCINvNtNtBa_9character8complete4charB2f_NtNtBI_5error18InternalParseErrorE0INtNtBa_10combinator3OptNCIBE_B2f_NvBG_3intB3m_E0EEB3m_E0INtB8_6ParserB2f_E7processINtB8_7OutputMNtB8_4EmitNtB8_5CheckNtB8_9StreamingEE0BI_:
  517|  1.24k|    let (i, o) = self(i).map_err(|e| match e {
  518|      0|      Err::Incomplete(i) => Err::Incomplete(i),
  519|  1.24k|      Err::Error(e) => Err::Error(OM::Error::bind(|| e)),
  520|      0|      Err::Failure(e) => Err::Failure(e),
  521|  1.24k|    })?;
_RNCINvXsf_NtCsaZdo92nHnrg_3nom8internalNCINvNtCs4qtBjdjJOwX_15rsonpath_syntax6parser17ignore_whitespaceNtBI_8SelectorNvBG_13name_selectorNtNtBI_5error18InternalParseErrorE0INtB8_6ParserReE7processINtB8_7OutputMNtB8_4EmitB3m_NtB8_9StreamingEE0BI_:
  517|  18.6k|    let (i, o) = self(i).map_err(|e| match e {
  518|      0|      Err::Incomplete(i) => Err::Incomplete(i),
  519|  18.6k|      Err::Error(e) => Err::Error(OM::Error::bind(|| e)),
  520|      0|      Err::Failure(e) => Err::Failure(e),
  521|  18.6k|    })?;
_RNCINvXsf_NtCsaZdo92nHnrg_3nom8internalNCINvNtCs4qtBjdjJOwX_15rsonpath_syntax6parser17ignore_whitespaceNtBI_8SelectorNvBG_14index_selectorNtNtBI_5error18InternalParseErrorE0INtB8_6ParserReE7processINtB8_7OutputMNtB8_4EmitB3n_NtB8_9StreamingEE0BI_:
  517|  4.21k|    let (i, o) = self(i).map_err(|e| match e {
  518|      0|      Err::Incomplete(i) => Err::Incomplete(i),
  519|  4.21k|      Err::Error(e) => Err::Error(OM::Error::bind(|| e)),
  520|      0|      Err::Failure(e) => Err::Failure(e),
  521|  4.21k|    })?;
_RNCINvXsf_NtCsaZdo92nHnrg_3nom8internalNCINvNtCs4qtBjdjJOwX_15rsonpath_syntax6parser17ignore_whitespaceNtBI_8SelectorNvBG_14slice_selectorNtNtBI_5error18InternalParseErrorE0INtB8_6ParserReE7processINtB8_7OutputMNtB8_4EmitB3n_NtB8_9StreamingEE0BI_:
  517|  12.6k|    let (i, o) = self(i).map_err(|e| match e {
  518|      0|      Err::Incomplete(i) => Err::Incomplete(i),
  519|  12.6k|      Err::Error(e) => Err::Error(OM::Error::bind(|| e)),
  520|      0|      Err::Failure(e) => Err::Failure(e),
  521|  12.6k|    })?;
_RNCINvXsf_NtCsaZdo92nHnrg_3nom8internalNCINvNtCs4qtBjdjJOwX_15rsonpath_syntax6parser17ignore_whitespaceNtBI_8SelectorNvBG_17wildcard_selectorNtNtBI_5error18InternalParseErrorE0INtB8_6ParserReE7processINtB8_7OutputMNtB8_4EmitB3q_NtB8_9StreamingEE0BI_:
  517|  14.5k|    let (i, o) = self(i).map_err(|e| match e {
  518|      0|      Err::Incomplete(i) => Err::Incomplete(i),
  519|  14.5k|      Err::Error(e) => Err::Error(OM::Error::bind(|| e)),
  520|      0|      Err::Failure(e) => Err::Failure(e),
  521|  14.5k|    })?;
_RNCINvXsf_NtCsaZdo92nHnrg_3nom8internalNCINvNtCs4qtBjdjJOwX_15rsonpath_syntax6parser17ignore_whitespaceNtNvBG_12logical_expr9BooleanOpINtNtBa_6branch6ChoiceTINtB8_3MapNCINvNtNtBa_5bytes8complete3tagReB3a_NtNtBI_5error18InternalParseErrorE0NCINvNtBa_10combinator5valueB3a_B1D_B3g_B2F_E0EB2v_EEB3g_E0INtB8_6ParserB3a_E7processINtB8_7OutputMNtB8_4EmitNtB8_5CheckNtB8_9StreamingEE0BI_:
  517|  8.94k|    let (i, o) = self(i).map_err(|e| match e {
  518|      0|      Err::Incomplete(i) => Err::Incomplete(i),
  519|  8.94k|      Err::Error(e) => Err::Error(OM::Error::bind(|| e)),
  520|      0|      Err::Failure(e) => Err::Failure(e),
  521|  8.94k|    })?;
_RNCINvXsf_NtCsaZdo92nHnrg_3nom8internalNCINvNtCs4qtBjdjJOwX_15rsonpath_syntax6parser17ignore_whitespaceReNvBG_3intNtNtBI_5error18InternalParseErrorE0INtB8_6ParserB1D_E7processINtB8_7OutputMNtB8_4EmitNtB8_5CheckNtB8_9StreamingEE0BI_:
  517|  1.31k|    let (i, o) = self(i).map_err(|e| match e {
  518|      0|      Err::Incomplete(i) => Err::Incomplete(i),
  519|  1.31k|      Err::Error(e) => Err::Error(OM::Error::bind(|| e)),
  520|      0|      Err::Failure(e) => Err::Failure(e),
  521|  1.31k|    })?;
_RNCINvXsf_NtCsaZdo92nHnrg_3nom8internalNCINvNtCs4qtBjdjJOwX_15rsonpath_syntax6parser17ignore_whitespacecNCINvNtNtBa_9character8complete4charReNtNtBI_5error18InternalParseErrorE0B2g_E0INtB8_6ParserB2e_E7processINtB8_7OutputMNtB8_5CheckNtB8_4EmitNtB8_9StreamingEE0BI_:
  517|  12.6k|    let (i, o) = self(i).map_err(|e| match e {
  518|      0|      Err::Incomplete(i) => Err::Incomplete(i),
  519|  12.6k|      Err::Error(e) => Err::Error(OM::Error::bind(|| e)),
  520|      0|      Err::Failure(e) => Err::Failure(e),
  521|  12.6k|    })?;
_RNCINvXsf_NtCsaZdo92nHnrg_3nom8internalNCINvNtNtBa_5bytes8complete11tag_no_caseReB1f_NtNtCs4qtBjdjJOwX_15rsonpath_syntax5error18InternalParseErrorE0INtB8_6ParserB1f_E7processINtB8_7OutputMNtB8_5CheckB30_NtB8_9StreamingEE0B1p_:
  517|    916|    let (i, o) = self(i).map_err(|e| match e {
  518|      0|      Err::Incomplete(i) => Err::Incomplete(i),
  519|    916|      Err::Error(e) => Err::Error(OM::Error::bind(|| e)),
  520|      0|      Err::Failure(e) => Err::Failure(e),
  521|    916|    })?;
_RNCINvXsf_NtCsaZdo92nHnrg_3nom8internalNCINvNtNtBa_5bytes8complete3tagReB16_NtNtCs4qtBjdjJOwX_15rsonpath_syntax5error18InternalParseErrorE0INtB8_6ParserB16_E7processINtB8_7OutputMNtB8_4EmitB2R_NtB8_9StreamingEE0B1g_:
  517|  79.4k|    let (i, o) = self(i).map_err(|e| match e {
  518|      0|      Err::Incomplete(i) => Err::Incomplete(i),
  519|  79.4k|      Err::Error(e) => Err::Error(OM::Error::bind(|| e)),
  520|      0|      Err::Failure(e) => Err::Failure(e),
  521|  79.4k|    })?;
_RNCINvXsf_NtCsaZdo92nHnrg_3nom8internalNCINvNtNtBa_5bytes8complete3tagReB16_NtNtCs4qtBjdjJOwX_15rsonpath_syntax5error18InternalParseErrorE0INtB8_6ParserB16_E7processINtB8_7OutputMNtB8_5CheckNtB8_4EmitNtB8_9StreamingEE0B1g_:
  517|  18.2k|    let (i, o) = self(i).map_err(|e| match e {
  518|      0|      Err::Incomplete(i) => Err::Incomplete(i),
  519|  18.2k|      Err::Error(e) => Err::Error(OM::Error::bind(|| e)),
  520|      0|      Err::Failure(e) => Err::Failure(e),
  521|  18.2k|    })?;
_RNCINvXsf_NtCsaZdo92nHnrg_3nom8internalNCINvNtNtBa_9character8complete4charReNtNtCs4qtBjdjJOwX_15rsonpath_syntax5error18InternalParseErrorE0INtB8_6ParserB1b_E7processINtB8_7OutputMNtB8_4EmitB2S_NtB8_9StreamingEE0B1h_:
  517|  22.3k|    let (i, o) = self(i).map_err(|e| match e {
  518|      0|      Err::Incomplete(i) => Err::Incomplete(i),
  519|  22.3k|      Err::Error(e) => Err::Error(OM::Error::bind(|| e)),
  520|      0|      Err::Failure(e) => Err::Failure(e),
  521|  22.3k|    })?;
_RNCINvXsf_NtCsaZdo92nHnrg_3nom8internalNCINvNtNtBa_9character8complete4charReNtNtCs4qtBjdjJOwX_15rsonpath_syntax5error18InternalParseErrorE0INtB8_6ParserB1b_E7processINtB8_7OutputMNtB8_4EmitNtB8_5CheckNtB8_9StreamingEE0B1h_:
  517|  7.40k|    let (i, o) = self(i).map_err(|e| match e {
  518|      0|      Err::Incomplete(i) => Err::Incomplete(i),
  519|  7.40k|      Err::Error(e) => Err::Error(OM::Error::bind(|| e)),
  520|      0|      Err::Failure(e) => Err::Failure(e),
  521|  7.40k|    })?;
_RNCINvXsf_NtCsaZdo92nHnrg_3nom8internalNCINvNtNtBa_9character8complete4charReNtNtCs4qtBjdjJOwX_15rsonpath_syntax5error18InternalParseErrorE0INtB8_6ParserB1b_E7processINtB8_7OutputMNtB8_5CheckB2S_NtB8_9StreamingEE0B1h_:
  517|    770|    let (i, o) = self(i).map_err(|e| match e {
  518|      0|      Err::Incomplete(i) => Err::Incomplete(i),
  519|    770|      Err::Error(e) => Err::Error(OM::Error::bind(|| e)),
  520|      0|      Err::Failure(e) => Err::Failure(e),
  521|    770|    })?;
_RNCINvXsf_NtCsaZdo92nHnrg_3nom8internalNCINvNtNtBa_9character8complete4charReNtNtCs4qtBjdjJOwX_15rsonpath_syntax5error18InternalParseErrorE0INtB8_6ParserB1b_E7processINtB8_7OutputMNtB8_5CheckNtB8_4EmitNtB8_9StreamingEE0B1h_:
  517|  92.2k|    let (i, o) = self(i).map_err(|e| match e {
  518|      0|      Err::Incomplete(i) => Err::Incomplete(i),
  519|  92.2k|      Err::Error(e) => Err::Error(OM::Error::bind(|| e)),
  520|      0|      Err::Failure(e) => Err::Failure(e),
  521|  92.2k|    })?;
_RNCINvXsf_NtCsaZdo92nHnrg_3nom8internalNCINvNtNtBa_9character8complete6one_ofReB1d_uE0INtB8_6ParserB1d_E7processINtB8_7OutputMNtB8_4EmitB20_NtB8_9StreamingEE0Cs4qtBjdjJOwX_15rsonpath_syntax:
  517|  7.27k|    let (i, o) = self(i).map_err(|e| match e {
  518|      0|      Err::Incomplete(i) => Err::Incomplete(i),
  519|  7.27k|      Err::Error(e) => Err::Error(OM::Error::bind(|| e)),
  520|      0|      Err::Failure(e) => Err::Failure(e),
  521|  7.27k|    })?;
_RNCINvXsf_NtCsaZdo92nHnrg_3nom8internalNCNvNtCs4qtBjdjJOwX_15rsonpath_syntax6parser12filter_query0INtB8_6ParserReE7processINtB8_7OutputMNtB8_4EmitB2a_NtB8_9StreamingEE0BH_:
  517|  16.1k|    let (i, o) = self(i).map_err(|e| match e {
  518|      0|      Err::Incomplete(i) => Err::Incomplete(i),
  519|  16.1k|      Err::Error(e) => Err::Error(OM::Error::bind(|| e)),
  520|      0|      Err::Failure(e) => Err::Failure(e),
  521|  16.1k|    })?;
_RNCINvXsf_NtCsaZdo92nHnrg_3nom8internalNCNvNtCs4qtBjdjJOwX_15rsonpath_syntax6parser7segment0INtB8_6ParserReE7processINtB8_7OutputMNtB8_4EmitB24_NtB8_9StreamingEE0BH_:
  517|  2.10k|    let (i, o) = self(i).map_err(|e| match e {
  518|      0|      Err::Incomplete(i) => Err::Incomplete(i),
  519|  2.10k|      Err::Error(e) => Err::Error(OM::Error::bind(|| e)),
  520|      0|      Err::Failure(e) => Err::Failure(e),
  521|  2.10k|    })?;
_RNCINvXsf_NtCsaZdo92nHnrg_3nom8internalNvNtCs4qtBjdjJOwX_15rsonpath_syntax6parser13name_selectorINtB8_6ParserReE7processINtB8_7OutputMNtB8_4EmitB28_NtB8_9StreamingEE0BF_:
  517|  18.6k|    let (i, o) = self(i).map_err(|e| match e {
  518|      0|      Err::Incomplete(i) => Err::Incomplete(i),
  519|  18.6k|      Err::Error(e) => Err::Error(OM::Error::bind(|| e)),
  520|      0|      Err::Failure(e) => Err::Failure(e),
  521|  18.6k|    })?;
_RNCINvXsf_NtCsaZdo92nHnrg_3nom8internalNvNtCs4qtBjdjJOwX_15rsonpath_syntax6parser14index_selectorINtB8_6ParserReE7processINtB8_7OutputMNtB8_4EmitB29_NtB8_9StreamingEE0BF_:
  517|  4.21k|    let (i, o) = self(i).map_err(|e| match e {
  518|      0|      Err::Incomplete(i) => Err::Incomplete(i),
  519|  4.21k|      Err::Error(e) => Err::Error(OM::Error::bind(|| e)),
  520|      0|      Err::Failure(e) => Err::Failure(e),
  521|  4.21k|    })?;
_RNCINvXsf_NtCsaZdo92nHnrg_3nom8internalNvNtCs4qtBjdjJOwX_15rsonpath_syntax6parser14slice_selectorINtB8_6ParserReE7processINtB8_7OutputMNtB8_4EmitB29_NtB8_9StreamingEE0BF_:
  517|  12.6k|    let (i, o) = self(i).map_err(|e| match e {
  518|      0|      Err::Incomplete(i) => Err::Incomplete(i),
  519|  12.6k|      Err::Error(e) => Err::Error(OM::Error::bind(|| e)),
  520|      0|      Err::Failure(e) => Err::Failure(e),
  521|  12.6k|    })?;
_RNCINvXsf_NtCsaZdo92nHnrg_3nom8internalNvNtCs4qtBjdjJOwX_15rsonpath_syntax6parser14string_literalINtB8_6ParserReE7processINtB8_7OutputMNtB8_4EmitB29_NtB8_9StreamingEE0BF_:
  517|  29.4k|    let (i, o) = self(i).map_err(|e| match e {
  518|      0|      Err::Incomplete(i) => Err::Incomplete(i),
  519|  29.4k|      Err::Error(e) => Err::Error(OM::Error::bind(|| e)),
  520|      0|      Err::Failure(e) => Err::Failure(e),
  521|  29.4k|    })?;
_RNCINvXsf_NtCsaZdo92nHnrg_3nom8internalNvNtCs4qtBjdjJOwX_15rsonpath_syntax6parser17wildcard_selectorINtB8_6ParserReE7processINtB8_7OutputMNtB8_4EmitB2c_NtB8_9StreamingEE0BF_:
  517|  14.5k|    let (i, o) = self(i).map_err(|e| match e {
  518|      0|      Err::Incomplete(i) => Err::Incomplete(i),
  519|  14.5k|      Err::Error(e) => Err::Error(OM::Error::bind(|| e)),
  520|      0|      Err::Failure(e) => Err::Failure(e),
  521|  14.5k|    })?;
_RNCINvXsf_NtCsaZdo92nHnrg_3nom8internalNvNtCs4qtBjdjJOwX_15rsonpath_syntax6parser3intINtB8_6ParserReE7processINtB8_7OutputMNtB8_4EmitB1X_NtB8_9StreamingEE0BF_:
  517|  1.31k|    let (i, o) = self(i).map_err(|e| match e {
  518|      0|      Err::Incomplete(i) => Err::Incomplete(i),
  519|  1.31k|      Err::Error(e) => Err::Error(OM::Error::bind(|| e)),
  520|      0|      Err::Failure(e) => Err::Failure(e),
  521|  1.31k|    })?;
_RNCINvXsf_NtCsaZdo92nHnrg_3nom8internalNvNtCs4qtBjdjJOwX_15rsonpath_syntax6parser3intINtB8_6ParserReE7processINtB8_7OutputMNtB8_4EmitNtB8_5CheckNtB8_9StreamingEE0BF_:
  517|  5.62k|    let (i, o) = self(i).map_err(|e| match e {
  518|      0|      Err::Incomplete(i) => Err::Incomplete(i),
  519|  5.62k|      Err::Error(e) => Err::Error(OM::Error::bind(|| e)),
  520|      0|      Err::Failure(e) => Err::Failure(e),
  521|  5.62k|    })?;
_RNCINvXsf_NtCsaZdo92nHnrg_3nom8internalNvNtCs4qtBjdjJOwX_15rsonpath_syntax6parser5floatINtB8_6ParserReE7processINtB8_7OutputMNtB8_4EmitB1Z_NtB8_9StreamingEE0BF_:
  517|  11.3k|    let (i, o) = self(i).map_err(|e| match e {
  518|      0|      Err::Incomplete(i) => Err::Incomplete(i),
  519|  11.3k|      Err::Error(e) => Err::Error(OM::Error::bind(|| e)),
  520|      0|      Err::Failure(e) => Err::Failure(e),
  521|  11.3k|    })?;
_RNCINvXsf_NtCsaZdo92nHnrg_3nom8internalNvNtCs4qtBjdjJOwX_15rsonpath_syntax6parser6numberINtB8_6ParserReE7processINtB8_7OutputMNtB8_4EmitB20_NtB8_9StreamingEE0BF_:
  517|  11.3k|    let (i, o) = self(i).map_err(|e| match e {
  518|      0|      Err::Incomplete(i) => Err::Incomplete(i),
  519|  11.3k|      Err::Error(e) => Err::Error(OM::Error::bind(|| e)),
  520|      0|      Err::Failure(e) => Err::Failure(e),
  521|  11.3k|    })?;
_RNCINvXsf_NtCsaZdo92nHnrg_3nom8internalNvNtCs4qtBjdjJOwX_15rsonpath_syntax6parser7literalINtB8_6ParserReE7processINtB8_7OutputMNtB8_4EmitB21_NtB8_9StreamingEE0BF_:
  517|  1.88k|    let (i, o) = self(i).map_err(|e| match e {
  518|      0|      Err::Incomplete(i) => Err::Incomplete(i),
  519|  1.88k|      Err::Error(e) => Err::Error(OM::Error::bind(|| e)),
  520|      0|      Err::Failure(e) => Err::Failure(e),
  521|  1.88k|    })?;
_RNCINvXsf_NtCsaZdo92nHnrg_3nom8internalNvNvNtCs4qtBjdjJOwX_15rsonpath_syntax6parser5float10base_floatINtB8_6ParserReE7processINtB8_7OutputMNtB8_5CheckNtB8_4EmitNtB8_9StreamingEE0BH_:
  517|  11.3k|    let (i, o) = self(i).map_err(|e| match e {
  518|      0|      Err::Incomplete(i) => Err::Incomplete(i),
  519|  11.3k|      Err::Error(e) => Err::Error(OM::Error::bind(|| e)),
  520|      0|      Err::Failure(e) => Err::Failure(e),
  521|  11.3k|    })?;
_RNCINvXsg_NtCsaZdo92nHnrg_3nom8internalINtB8_3MapINtNtBa_6branch6ChoiceTNCNvNtCs4qtBjdjJOwX_15rsonpath_syntax6parser13child_segment0INtNtBa_8sequence8PrecededNCINvNtNtBa_9character8complete4charReNtNtB1e_5error18InternalParseErrorE0INtNtBa_10combinator3CutIBM_TIBC_NvB1c_17wildcard_selectorNvMsq_B1e_NtB1e_9Selectors3oneENvB1c_21member_name_shorthandNCINvB1c_14failed_segmentB4O_E0EEEEEENcNtNtB1e_7Segment5Child0EINtB8_6ParserB36_E7processINtB8_7OutputMNtB8_4EmitB7h_NtB8_9StreamingEE0B1e_:
  595|  18.2k|      Ok((i, o)) => Ok((i, OM::Output::map(o, |o| (self.g)(o)))),
_RNCINvXsg_NtCsaZdo92nHnrg_3nom8internalINtB8_3MapINtNtBa_8sequence8PrecededNCINvNtNtBa_5bytes8complete3tagReB1G_NtNtCs4qtBjdjJOwX_15rsonpath_syntax5error18InternalParseErrorE0INtNtBa_10combinator3CutINtNtBa_6branch6ChoiceTNCNvNtB1Q_6parser18descendant_segment0IBC_NvB3C_17wildcard_selectorNvMsq_B1Q_NtB1Q_9Selectors3oneENvB3C_21member_name_shorthandNCINvB3C_14failed_segmentB4N_E0EEEENcNtNtB1Q_7Segment10Descendant0EINtB8_6ParserB1G_E7processINtB8_7OutputMNtB8_4EmitB7k_NtB8_9StreamingEE0B1Q_:
  595|  3.59k|      Ok((i, o)) => Ok((i, OM::Output::map(o, |o| (self.g)(o)))),
_RNCINvXsg_NtCsaZdo92nHnrg_3nom8internalINtB8_3MapNCINvNtNtBa_5bytes8complete3tagReB1g_NtNtCs4qtBjdjJOwX_15rsonpath_syntax5error18InternalParseErrorE0NCINvNtBa_10combinator5valueB1g_NtB1q_12ComparisonOpB1m_BL_E0EINtB8_6ParserB1g_E7processINtB8_7OutputMNtB8_4EmitB41_NtB8_9StreamingEE0B1q_:
  595|  3.63k|      Ok((i, o)) => Ok((i, OM::Output::map(o, |o| (self.g)(o)))),
_RNCINvXsg_NtCsaZdo92nHnrg_3nom8internalINtB8_3MapNCINvNtNtBa_5bytes8complete3tagReB1g_NtNtCs4qtBjdjJOwX_15rsonpath_syntax5error18InternalParseErrorE0NCINvNtBa_10combinator5valueB1g_NtB1q_7LiteralB1m_BL_E0EINtB8_6ParserB1g_E7processINtB8_7OutputMNtB8_4EmitB3V_NtB8_9StreamingEE0B1q_:
  595|  3.50k|      Ok((i, o)) => Ok((i, OM::Output::map(o, |o| (self.g)(o)))),
_RNCINvXsg_NtCsaZdo92nHnrg_3nom8internalINtB8_3MapNCINvNtNtBa_5bytes8complete3tagReB1g_NtNtCs4qtBjdjJOwX_15rsonpath_syntax5error18InternalParseErrorE0NCINvNtBa_10combinator5valueB1g_NtNvNtB1q_6parser12logical_expr9BooleanOpB1m_BL_E0EINtB8_6ParserB1g_E7processINtB8_7OutputMNtB8_4EmitB4m_NtB8_9StreamingEE0B1q_:
  595|  3.23k|      Ok((i, o)) => Ok((i, OM::Output::map(o, |o| (self.g)(o)))),
_RNCINvXsg_NtCsaZdo92nHnrg_3nom8internalINtB8_3MapNCINvNtNtBa_5bytes8complete3tagReB1g_NtNtCs4qtBjdjJOwX_15rsonpath_syntax5error18InternalParseErrorE0NCNvNtB1q_6parser17wildcard_selector0EINtB8_6ParserB1g_E7processINtB8_7OutputMNtB8_4EmitB3D_NtB8_9StreamingEE0B1q_:
  595|  4.14k|      Ok((i, o)) => Ok((i, OM::Output::map(o, |o| (self.g)(o)))),
_RNCINvXsg_NtCsaZdo92nHnrg_3nom8internalINtB8_3MapNCINvNtNtBa_9character8complete4charReNtNtCs4qtBjdjJOwX_15rsonpath_syntax5error18InternalParseErrorE0NCINvNtBa_10combinator5valueB1l_NtB1r_12ComparisonOpB1n_BL_E0EINtB8_6ParserB1l_E7processINtB8_7OutputMNtB8_4EmitB42_NtB8_9StreamingEE0B1r_:
  595|  1.14k|      Ok((i, o)) => Ok((i, OM::Output::map(o, |o| (self.g)(o)))),
_RNCINvXsg_NtCsaZdo92nHnrg_3nom8internalINtB8_3MapNCINvNtNtBa_9character8complete4charReNtNtCs4qtBjdjJOwX_15rsonpath_syntax5error18InternalParseErrorE0NCINvNtBa_10combinator5valueB1l_NtNtB1r_6parser16RootSelectorTypeB1n_BL_E0EINtB8_6ParserB1l_E7processINtB8_7OutputMNtB8_4EmitB4f_NtB8_9StreamingEE0B1r_:
  595|  7.27k|      Ok((i, o)) => Ok((i, OM::Output::map(o, |o| (self.g)(o)))),
_RNCINvXsg_NtCsaZdo92nHnrg_3nom8internalINtB8_3MapNvNtCs4qtBjdjJOwX_15rsonpath_syntax6parser14string_literalNcNtNtBP_8Selector4Name0EINtB8_6ParserReE7processINtB8_7OutputMNtB8_4EmitB2I_NtB8_9StreamingEE0BP_:
  595|  11.0k|      Ok((i, o)) => Ok((i, OM::Output::map(o, |o| (self.g)(o)))),
_RNCINvXsg_NtCsaZdo92nHnrg_3nom8internalINtB8_3MapNvNtCs4qtBjdjJOwX_15rsonpath_syntax6parser5floatNCNvBN_6number0EINtB8_6ParserReE7processINtB8_7OutputMNtB8_4EmitB2p_NtB8_9StreamingEE0BP_:
  595|    916|      Ok((i, o)) => Ok((i, OM::Output::map(o, |o| (self.g)(o)))),
_RNCINvXsn_NtCsaZdo92nHnrg_3nom8internalINtB8_4IntoINtNtBa_8sequence8PrecededNCINvNtNtBa_9character8complete4charReNtNtCs4qtBjdjJOwX_15rsonpath_syntax5error18InternalParseErrorE0NCINvNtB1S_6parser17ignore_whitespaceNtB1S_11LogicalExprNCNvB2U_15filter_selector0B1O_E0ENtB1S_8SelectorB1O_EINtB8_6ParserB1M_E7processINtB8_7OutputMNtB8_4EmitB5e_NtB8_9StreamingEE0B1S_:
  775|  4.21k|      Ok((i, o)) => Ok((i, OM::Output::map(o, |o| o.into()))),
_RNCINvXsn_NtCsaZdo92nHnrg_3nom8internalINtB8_4IntoNvNtCs4qtBjdjJOwX_15rsonpath_syntax6parser14string_literalNtBQ_7LiteralNtNtBQ_5error18InternalParseErrorEINtB8_6ParserReE7processINtB8_7OutputMNtB8_4EmitB35_NtB8_9StreamingEE0BQ_:
  775|    528|      Ok((i, o)) => Ok((i, OM::Output::map(o, |o| o.into()))),
_RNCINvXsn_NtCsaZdo92nHnrg_3nom8internalINtB8_4IntoNvNtCs4qtBjdjJOwX_15rsonpath_syntax6parser14string_literalNtBQ_7LiteralNtNtBQ_5error18InternalParseErrorEINtB8_6ParserReE7processINtB8_7OutputMNtB8_4EmitB35_NtB8_9StreamingEEs_0BQ_:
  776|  10.7k|      Err(Err::Error(e)) => Err(Err::Error(OM::Error::map(e, |e| e.into()))),
_RNCINvXsn_NtCsaZdo92nHnrg_3nom8internalINtB8_4IntoNvNtCs4qtBjdjJOwX_15rsonpath_syntax6parser6numberNtBQ_7LiteralNtNtBQ_5error18InternalParseErrorEINtB8_6ParserReE7processINtB8_7OutputMNtB8_4EmitB2W_NtB8_9StreamingEE0BQ_:
  775|    916|      Ok((i, o)) => Ok((i, OM::Output::map(o, |o| o.into()))),
_RNCINvXsn_NtCsaZdo92nHnrg_3nom8internalINtB8_4IntoNvNtCs4qtBjdjJOwX_15rsonpath_syntax6parser6numberNtBQ_7LiteralNtNtBQ_5error18InternalParseErrorEINtB8_6ParserReE7processINtB8_7OutputMNtB8_4EmitB2W_NtB8_9StreamingEEs_0BQ_:
  776|  11.3k|      Err(Err::Error(e)) => Err(Err::Error(OM::Error::map(e, |e| e.into()))),
_RNCINvXsn_NtCsaZdo92nHnrg_3nom8internalINtB8_4IntoNvNtCs4qtBjdjJOwX_15rsonpath_syntax6parser7literalNtBQ_10ComparableNtNtBQ_5error18InternalParseErrorEINtB8_6ParserReE7processINtB8_7OutputMNtB8_4EmitB31_NtB8_9StreamingEE0BQ_:
  775|  2.89k|      Ok((i, o)) => Ok((i, OM::Output::map(o, |o| o.into()))),
_RNCINvXsn_NtCsaZdo92nHnrg_3nom8internalINtB8_4IntoNvNtCs4qtBjdjJOwX_15rsonpath_syntax6parser7literalNtBQ_10ComparableNtNtBQ_5error18InternalParseErrorEINtB8_6ParserReE7processINtB8_7OutputMNtB8_4EmitB31_NtB8_9StreamingEEs_0BQ_:
  776|  1.88k|      Err(Err::Error(e)) => Err(Err::Error(OM::Error::map(e, |e| e.into()))),
_RNvYINtNtCsaZdo92nHnrg_3nom8internal3MapINtNtB7_6branch6ChoiceTNCNvNtCs4qtBjdjJOwX_15rsonpath_syntax6parser13child_segment0INtNtB7_8sequence8PrecededNCINvNtNtB7_9character8complete4charReNtNtB15_5error18InternalParseErrorE0INtNtB7_10combinator3CutIBD_TIB3_NvB13_17wildcard_selectorNvMsq_B15_NtB15_9Selectors3oneENvB13_21member_name_shorthandNCINvB13_14failed_segmentB4F_E0EEEEEENcNtNtB15_7Segment5Child0EINtB5_6ParserB2X_E5parseB15_:
  412|  18.2k|  fn parse(&mut self, input: Input) -> IResult<Input, Self::Output, Self::Error> {
  413|  18.2k|    self.process::<OutputM<Emit, Emit, Streaming>>(input)
  414|  18.2k|  }
_RNvYINtNtCsaZdo92nHnrg_3nom8internal3MapINtNtB7_8sequence8PrecededNCINvNtNtB7_5bytes8complete3tagReB1x_NtNtCs4qtBjdjJOwX_15rsonpath_syntax5error18InternalParseErrorE0INtNtB7_10combinator3CutINtNtB7_6branch6ChoiceTNCNvNtB1H_6parser18descendant_segment0IB3_NvB3t_17wildcard_selectorNvMsq_B1H_NtB1H_9Selectors3oneENvB3t_21member_name_shorthandNCINvB3t_14failed_segmentB4E_E0EEEENcNtNtB1H_7Segment10Descendant0EINtB5_6ParserB1x_E5parseB1H_:
  412|  21.8k|  fn parse(&mut self, input: Input) -> IResult<Input, Self::Output, Self::Error> {
  413|  21.8k|    self.process::<OutputM<Emit, Emit, Streaming>>(input)
  414|  21.8k|  }
_RNvYINtNtCsaZdo92nHnrg_3nom8internal3MapNCINvNtNtB7_5bytes8complete3tagReB17_NtNtCs4qtBjdjJOwX_15rsonpath_syntax5error18InternalParseErrorE0NCNvNtB1h_6parser17wildcard_selector0EINtB5_6ParserB17_E5parseB1h_:
  412|  18.6k|  fn parse(&mut self, input: Input) -> IResult<Input, Self::Output, Self::Error> {
  413|  18.6k|    self.process::<OutputM<Emit, Emit, Streaming>>(input)
  414|  18.6k|  }
_RNvYINtNtCsaZdo92nHnrg_3nom8internal3MapNvNtCs4qtBjdjJOwX_15rsonpath_syntax6parser14string_literalNcNtNtBG_8Selector4Name0EINtB5_6ParserReE5parseBG_:
  412|  29.7k|  fn parse(&mut self, input: Input) -> IResult<Input, Self::Output, Self::Error> {
  413|  29.7k|    self.process::<OutputM<Emit, Emit, Streaming>>(input)
  414|  29.7k|  }
_RNvYINtNtCsaZdo92nHnrg_3nom8internal3MapNvNtCs4qtBjdjJOwX_15rsonpath_syntax6parser5floatNCNvBE_6number0EINtB5_6ParserReE5parseBG_:
  412|  12.2k|  fn parse(&mut self, input: Input) -> IResult<Input, Self::Output, Self::Error> {
  413|  12.2k|    self.process::<OutputM<Emit, Emit, Streaming>>(input)
  414|  12.2k|  }
_RNvYINtNtCsaZdo92nHnrg_3nom8internal4IntoINtNtB7_8sequence8PrecededNCINvNtNtB7_9character8complete4charReNtNtCs4qtBjdjJOwX_15rsonpath_syntax5error18InternalParseErrorE0NCINvNtB1J_6parser17ignore_whitespaceNtB1J_11LogicalExprNCNvB2L_15filter_selector0B1F_E0ENtB1J_8SelectorB1F_EINtB5_6ParserB1D_E5parseB1J_:
  412|  4.21k|  fn parse(&mut self, input: Input) -> IResult<Input, Self::Output, Self::Error> {
  413|  4.21k|    self.process::<OutputM<Emit, Emit, Streaming>>(input)
  414|  4.21k|  }
_RINvXsa_NtCsaZdo92nHnrg_3nom8internalNtB6_4EmitNtB6_4Mode4bindReNCINvXsf_B6_NCINvNtNtB8_5bytes8complete3tagBY_BY_NtNtCs4qtBjdjJOwX_15rsonpath_syntax5error18InternalParseErrorE0INtB6_6ParserBY_E7processINtB6_7OutputMBz_Bz_NtB6_9StreamingEEs_0EB1R_:
  272|  14.5k|  fn bind<T, F: FnOnce() -> T>(f: F) -> Self::Output<T> {
  273|  14.5k|    f()
  274|  14.5k|  }
_RINvXsb_NtCsaZdo92nHnrg_3nom8internalNtB6_5CheckNtB6_4Mode4bindReNCINvXsf_B6_NCINvNtNtB8_5bytes8complete3tagBZ_BZ_NtNtCs4qtBjdjJOwX_15rsonpath_syntax5error18InternalParseErrorE0INtB6_6ParserBZ_E7processINtB6_7OutputMBz_NtB6_4EmitNtB6_9StreamingEEs_0EB1S_:
  302|  3.59k|  fn bind<T, F: FnOnce() -> T>(_: F) -> Self::Output<T> {}
_RINvXsf_NtCsaZdo92nHnrg_3nom8internalNCINvNtNtB8_5bytes8complete11tag_no_caseReB1d_NtNtCs4qtBjdjJOwX_15rsonpath_syntax5error18InternalParseErrorE0INtB6_6ParserB1d_E7processINtB6_7OutputMNtB6_5CheckB2Y_NtB6_9StreamingEEB1n_:
  516|    916|  fn process<OM: OutputMode>(&mut self, i: I) -> PResult<OM, I, Self::Output, Self::Error> {
  517|    916|    let (i, o) = self(i).map_err(|e| match e {
  518|       |      Err::Incomplete(i) => Err::Incomplete(i),
  519|       |      Err::Error(e) => Err::Error(OM::Error::bind(|| e)),
  520|       |      Err::Failure(e) => Err::Failure(e),
  521|    916|    })?;
  522|      0|    Ok((i, OM::Output::bind(|| o)))
  523|    916|  }
_RINvXsf_NtCsaZdo92nHnrg_3nom8internalNCINvNtNtB8_5bytes8complete3tagReB14_NtNtCs4qtBjdjJOwX_15rsonpath_syntax5error18InternalParseErrorE0INtB6_6ParserB14_E7processINtB6_7OutputMNtB6_4EmitB2P_NtB6_9StreamingEEB1e_:
  516|  94.0k|  fn process<OM: OutputMode>(&mut self, i: I) -> PResult<OM, I, Self::Output, Self::Error> {
  517|  94.0k|    let (i, o) = self(i).map_err(|e| match e {
  518|       |      Err::Incomplete(i) => Err::Incomplete(i),
  519|       |      Err::Error(e) => Err::Error(OM::Error::bind(|| e)),
  520|       |      Err::Failure(e) => Err::Failure(e),
  521|  79.4k|    })?;
  522|  14.5k|    Ok((i, OM::Output::bind(|| o)))
  523|  94.0k|  }
_RINvXsf_NtCsaZdo92nHnrg_3nom8internalNCINvNtNtB8_5bytes8complete3tagReB14_NtNtCs4qtBjdjJOwX_15rsonpath_syntax5error18InternalParseErrorE0INtB6_6ParserB14_E7processINtB6_7OutputMNtB6_5CheckNtB6_4EmitNtB6_9StreamingEEB1e_:
  516|  21.8k|  fn process<OM: OutputMode>(&mut self, i: I) -> PResult<OM, I, Self::Output, Self::Error> {
  517|  21.8k|    let (i, o) = self(i).map_err(|e| match e {
  518|       |      Err::Incomplete(i) => Err::Incomplete(i),
  519|       |      Err::Error(e) => Err::Error(OM::Error::bind(|| e)),
  520|       |      Err::Failure(e) => Err::Failure(e),
  521|  18.2k|    })?;
  522|  3.59k|    Ok((i, OM::Output::bind(|| o)))
  523|  21.8k|  }
_RINvYNCINvNtNtCsaZdo92nHnrg_3nom5bytes8complete3tagReBN_NtNtCs4qtBjdjJOwX_15rsonpath_syntax5error18InternalParseErrorE0INtNtBc_8internal6ParserBN_E3mapNCINvNtBc_10combinator5valueBN_NtBW_12ComparisonOpBS_B3_E0B2U_EBW_:
  431|  29.7k|  fn map<G, O2>(self, g: G) -> Map<Self, G>
  432|  29.7k|  where
  433|  29.7k|    G: FnMut(Self::Output) -> O2,
  434|  29.7k|    Self: core::marker::Sized,
  435|       |  {
  436|  29.7k|    Map { f: self, g }
  437|  29.7k|  }
_RINvYNCINvNtNtCsaZdo92nHnrg_3nom5bytes8complete3tagReBN_NtNtCs4qtBjdjJOwX_15rsonpath_syntax5error18InternalParseErrorE0INtNtBc_8internal6ParserBN_E3mapNCINvNtBc_10combinator5valueBN_NtBW_7LiteralBS_B3_E0B2U_EBW_:
  431|  36.6k|  fn map<G, O2>(self, g: G) -> Map<Self, G>
  432|  36.6k|  where
  433|  36.6k|    G: FnMut(Self::Output) -> O2,
  434|  36.6k|    Self: core::marker::Sized,
  435|       |  {
  436|  36.6k|    Map { f: self, g }
  437|  36.6k|  }
_RINvYNCINvNtNtCsaZdo92nHnrg_3nom5bytes8complete3tagReBN_NtNtCs4qtBjdjJOwX_15rsonpath_syntax5error18InternalParseErrorE0INtNtBc_8internal6ParserBN_E3mapNCINvNtBc_10combinator5valueBN_NtNvNtBW_6parser12logical_expr9BooleanOpBS_B3_E0B2U_EBW_:
  431|  24.3k|  fn map<G, O2>(self, g: G) -> Map<Self, G>
  432|  24.3k|  where
  433|  24.3k|    G: FnMut(Self::Output) -> O2,
  434|  24.3k|    Self: core::marker::Sized,
  435|       |  {
  436|  24.3k|    Map { f: self, g }
  437|  24.3k|  }
_RINvYNCINvNtNtCsaZdo92nHnrg_3nom5bytes8complete3tagReBN_NtNtCs4qtBjdjJOwX_15rsonpath_syntax5error18InternalParseErrorE0INtNtBc_8internal6ParserBN_E3mapNCNvNtBW_6parser17wildcard_selector0NtBW_8SelectorEBW_:
  431|  18.6k|  fn map<G, O2>(self, g: G) -> Map<Self, G>
  432|  18.6k|  where
  433|  18.6k|    G: FnMut(Self::Output) -> O2,
  434|  18.6k|    Self: core::marker::Sized,
  435|       |  {
  436|  18.6k|    Map { f: self, g }
  437|  18.6k|  }
_RINvXsa_NtCsaZdo92nHnrg_3nom8internalNtB6_4EmitNtB6_4Mode4bindNtNtCs4qtBjdjJOwX_15rsonpath_syntax5error18InternalParseErrorNCINvXNtB8_5bytesINtB23_3TagReBY_EINtB6_6ParserB2p_E7processINtB6_7OutputMBz_Bz_NtB6_8CompleteEEs0_0EB12_:
  272|  97.7k|  fn bind<T, F: FnOnce() -> T>(f: F) -> Self::Output<T> {
  273|  97.7k|    f()
  274|  97.7k|  }
_RINvXsa_NtCsaZdo92nHnrg_3nom8internalNtB6_4EmitNtB6_4Mode4bindNtNtCs4qtBjdjJOwX_15rsonpath_syntax5error18InternalParseErrorNCINvXs_NtB8_5bytesINtB25_9TagNoCaseReBY_EINtB6_6ParserB2x_E7processINtB6_7OutputMBz_Bz_NtB6_8CompleteEEs0_0EB12_:
  272|    916|  fn bind<T, F: FnOnce() -> T>(f: F) -> Self::Output<T> {
  273|    916|    f()
  274|    916|  }
_RINvXsa_NtCsaZdo92nHnrg_3nom8internalNtB6_4EmitNtB6_4Mode4bindReNCINvXNtB8_5bytesINtB16_3TagBY_NtNtCs4qtBjdjJOwX_15rsonpath_syntax5error18InternalParseErrorEINtB6_6ParserBY_E7processINtB6_7OutputMBz_Bz_NtB6_8CompleteEE0EB1z_:
  272|  18.1k|  fn bind<T, F: FnOnce() -> T>(f: F) -> Self::Output<T> {
  273|  18.1k|    f()
  274|  18.1k|  }

_RINvXNtCsaZdo92nHnrg_3nom8sequenceINtB3_8PrecededNCINvNtNtB5_9character8complete4charReNtNtCs4qtBjdjJOwX_15rsonpath_syntax5error18InternalParseErrorE0NCNvNtB1r_6parser6string0EINtNtB5_8internal6ParserB1l_E7processINtB2R_7OutputMNtB2R_4EmitB3E_NtB2R_9StreamingEEB1r_:
   88|  71.0k|  fn process<OM: OutputMode>(&mut self, i: I) -> PResult<OM, I, Self::Output, Self::Error> {
   89|  71.0k|    let (i, _) = self
   90|  71.0k|      .f
   91|  71.0k|      .process::<OutputM<Check, OM::Error, OM::Incomplete>>(i)?;
   92|  11.5k|    let (i, o2) = self.g.process::<OM>(i)?;
   93|       |
   94|  11.5k|    Ok((i, o2))
   95|  71.0k|  }
_RINvXNtCsaZdo92nHnrg_3nom8sequenceINtB3_8PrecededNCINvNtNtB5_5bytes8complete11tag_no_caseReB1p_NtNtCs4qtBjdjJOwX_15rsonpath_syntax5error18InternalParseErrorE0IBx_INtNtB5_10combinator3OptINtNtB5_6branch6ChoiceTNCINvNtNtB5_9character8complete4charB1p_B1v_E0B3l_EEEINvB3q_6digit1B1p_B1v_EEEINtNtB5_8internal6ParserB1p_E7processINtB4E_7OutputMNtB4E_4EmitNtB4E_5CheckNtB4E_9StreamingEEB1z_:
   88|    916|  fn process<OM: OutputMode>(&mut self, i: I) -> PResult<OM, I, Self::Output, Self::Error> {
   89|    916|    let (i, _) = self
   90|    916|      .f
   91|    916|      .process::<OutputM<Check, OM::Error, OM::Incomplete>>(i)?;
   92|      0|    let (i, o2) = self.g.process::<OM>(i)?;
   93|       |
   94|      0|    Ok((i, o2))
   95|    916|  }
_RINvXNtCsaZdo92nHnrg_3nom8sequenceINtB3_8PrecededNCINvNtNtB5_9character8complete4charReNtNtCs4qtBjdjJOwX_15rsonpath_syntax5error18InternalParseErrorE0INvBQ_6digit1B1l_B1n_EEINtNtB5_8internal6ParserB1l_E7processINtB2O_7OutputMNtB2O_4EmitNtB2O_5CheckNtB2O_9StreamingEEB1r_:
   88|    916|  fn process<OM: OutputMode>(&mut self, i: I) -> PResult<OM, I, Self::Output, Self::Error> {
   89|    916|    let (i, _) = self
   90|    916|      .f
   91|    916|      .process::<OutputM<Check, OM::Error, OM::Incomplete>>(i)?;
   92|    146|    let (i, o2) = self.g.process::<OM>(i)?;
   93|       |
   94|    146|    Ok((i, o2))
   95|    916|  }
_RINvXNtCsaZdo92nHnrg_3nom8sequenceINtB3_8PrecededNCINvNtNtB5_9character8complete4charReNtNtCs4qtBjdjJOwX_15rsonpath_syntax5error18InternalParseErrorE0INvBQ_6digit1B1l_B1n_EEINtNtB5_8internal6ParserB1l_E7processINtB2O_7OutputMNtB2O_5CheckNtB2O_4EmitNtB2O_9StreamingEEB1r_:
   88|  29.7k|  fn process<OM: OutputMode>(&mut self, i: I) -> PResult<OM, I, Self::Output, Self::Error> {
   89|  29.7k|    let (i, _) = self
   90|  29.7k|      .f
   91|  29.7k|      .process::<OutputM<Check, OM::Error, OM::Incomplete>>(i)?;
   92|  10.2k|    let (i, o2) = self.g.process::<OM>(i)?;
   93|       |
   94|  10.2k|    Ok((i, o2))
   95|  29.7k|  }
_RINvXNtCsaZdo92nHnrg_3nom8sequenceINtB3_8PrecededNCINvNtNtB5_9character8complete4charReNtNtCs4qtBjdjJOwX_15rsonpath_syntax5error18InternalParseErrorE0NvNvNtB1r_6parser5float10base_floatEINtNtB5_8internal6ParserB1l_E7processINtB31_7OutputMNtB31_5CheckNtB31_4EmitNtB31_9StreamingEEB1r_:
   88|  12.2k|  fn process<OM: OutputMode>(&mut self, i: I) -> PResult<OM, I, Self::Output, Self::Error> {
   89|  12.2k|    let (i, _) = self
   90|  12.2k|      .f
   91|  12.2k|      .process::<OutputM<Check, OM::Error, OM::Incomplete>>(i)?;
   92|    117|    let (i, o2) = self.g.process::<OM>(i)?;
   93|       |
   94|    117|    Ok((i, o2))
   95|  12.2k|  }
_RINvNtCsaZdo92nHnrg_3nom8sequence10terminatedReINtNtCs6SNw0SRvItZ_4core6option6OptionBH_ENtNtCs4qtBjdjJOwX_15rsonpath_syntax5error18InternalParseErrorINtNtB4_10combinator3OptNvNtB1t_6parser3intENCINvB2O_17ignore_whitespacecNCINvNtNtB4_9character8complete4charBH_B1p_E0B1p_E0EB1t_:
  118|  14.5k|pub fn terminated<I, O, E: ParseError<I>, F, G>(
  119|  14.5k|  first: F,
  120|  14.5k|  second: G,
  121|  14.5k|) -> impl Parser<I, Output = O, Error = E>
  122|  14.5k|where
  123|  14.5k|  F: Parser<I, Output = O, Error = E>,
  124|  14.5k|  G: Parser<I, Error = E>,
  125|       |{
  126|  14.5k|  Terminated {
  127|  14.5k|    f: first,
  128|  14.5k|    g: second,
  129|  14.5k|  }
  130|  14.5k|}
_RINvNtCsaZdo92nHnrg_3nom8sequence8precededReBE_NtNtCs4qtBjdjJOwX_15rsonpath_syntax5error18InternalParseErrorINtNtB4_10combinator3OptINtNtB4_6branch6ChoiceTNCINvNtNtB4_9character8complete4charBE_BJ_E0B2t_EEEINvB2y_6digit1BE_BJ_EEBN_:
   61|  12.2k|pub fn preceded<I, O, E: ParseError<I>, F, G>(
   62|  12.2k|  first: F,
   63|  12.2k|  second: G,
   64|  12.2k|) -> impl Parser<I, Output = O, Error = E>
   65|  12.2k|where
   66|  12.2k|  F: Parser<I, Error = E>,
   67|  12.2k|  G: Parser<I, Output = O, Error = E>,
   68|       |{
   69|  12.2k|  Preceded {
   70|  12.2k|    f: first,
   71|  12.2k|    g: second,
   72|  12.2k|  }
   73|  12.2k|}
_RINvNtCsaZdo92nHnrg_3nom8sequence8precededReBE_NtNtCs4qtBjdjJOwX_15rsonpath_syntax5error18InternalParseErrorNCINvNtNtB4_5bytes8complete11tag_no_caseBE_BE_BJ_E0INtB2_8PrecededINtNtB4_10combinator3OptINtNtB4_6branch6ChoiceTNCINvNtNtB4_9character8complete4charBE_BJ_E0B3x_EEEINvB3C_6digit1BE_BJ_EEEBN_:
   61|  12.2k|pub fn preceded<I, O, E: ParseError<I>, F, G>(
   62|  12.2k|  first: F,
   63|  12.2k|  second: G,
   64|  12.2k|) -> impl Parser<I, Output = O, Error = E>
   65|  12.2k|where
   66|  12.2k|  F: Parser<I, Error = E>,
   67|  12.2k|  G: Parser<I, Output = O, Error = E>,
   68|       |{
   69|  12.2k|  Preceded {
   70|  12.2k|    f: first,
   71|  12.2k|    g: second,
   72|  12.2k|  }
   73|  12.2k|}
_RINvNtCsaZdo92nHnrg_3nom8sequence8precededReBE_NtNtCs4qtBjdjJOwX_15rsonpath_syntax5error18InternalParseErrorNCINvNtNtB4_9character8complete4charBE_BJ_E0INvB1N_6digit1BE_BJ_EEBN_:
   61|  41.9k|pub fn preceded<I, O, E: ParseError<I>, F, G>(
   62|  41.9k|  first: F,
   63|  41.9k|  second: G,
   64|  41.9k|) -> impl Parser<I, Output = O, Error = E>
   65|  41.9k|where
   66|  41.9k|  F: Parser<I, Error = E>,
   67|  41.9k|  G: Parser<I, Output = O, Error = E>,
   68|       |{
   69|  41.9k|  Preceded {
   70|  41.9k|    f: first,
   71|  41.9k|    g: second,
   72|  41.9k|  }
   73|  41.9k|}
_RINvNtCsaZdo92nHnrg_3nom8sequence8precededReBE_NtNtCs4qtBjdjJOwX_15rsonpath_syntax5error18InternalParseErrorNCINvNtNtB4_9character8complete4charBE_BJ_E0NvNvNtBN_6parser5float10base_floatEBN_:
   61|  12.2k|pub fn preceded<I, O, E: ParseError<I>, F, G>(
   62|  12.2k|  first: F,
   63|  12.2k|  second: G,
   64|  12.2k|) -> impl Parser<I, Output = O, Error = E>
   65|  12.2k|where
   66|  12.2k|  F: Parser<I, Error = E>,
   67|  12.2k|  G: Parser<I, Output = O, Error = E>,
   68|       |{
   69|  12.2k|  Preceded {
   70|  12.2k|    f: first,
   71|  12.2k|    g: second,
   72|  12.2k|  }
   73|  12.2k|}
_RINvNtCsaZdo92nHnrg_3nom8sequence8precededReINtNtCs6SNw0SRvItZ_4core6option6OptionBE_ENtNtCs4qtBjdjJOwX_15rsonpath_syntax5error18InternalParseErrorNCINvNtNtB4_9character8complete4charBE_B1m_E0INtNtB4_10combinator3OptNCINvNtB1q_6parser17ignore_whitespaceBE_NvB3x_3intB1m_E0EEB1q_:
   61|  1.85k|pub fn preceded<I, O, E: ParseError<I>, F, G>(
   62|  1.85k|  first: F,
   63|  1.85k|  second: G,
   64|  1.85k|) -> impl Parser<I, Output = O, Error = E>
   65|  1.85k|where
   66|  1.85k|  F: Parser<I, Error = E>,
   67|  1.85k|  G: Parser<I, Output = O, Error = E>,
   68|       |{
   69|  1.85k|  Preceded {
   70|  1.85k|    f: first,
   71|  1.85k|    g: second,
   72|  1.85k|  }
   73|  1.85k|}
_RINvNtCsaZdo92nHnrg_3nom8sequence8precededReNtCs4qtBjdjJOwX_15rsonpath_syntax11LogicalExprNtNtBI_5error18InternalParseErrorNCINvNtNtB4_9character8complete4charBE_B1q_E0NCINvNtBI_6parser17ignore_whitespaceBG_NCNvB2L_15filter_selector0B1q_E0EBI_:
   61|  4.21k|pub fn preceded<I, O, E: ParseError<I>, F, G>(
   62|  4.21k|  first: F,
   63|  4.21k|  second: G,
   64|  4.21k|) -> impl Parser<I, Output = O, Error = E>
   65|  4.21k|where
   66|  4.21k|  F: Parser<I, Error = E>,
   67|  4.21k|  G: Parser<I, Output = O, Error = E>,
   68|       |{
   69|  4.21k|  Preceded {
   70|  4.21k|    f: first,
   71|  4.21k|    g: second,
   72|  4.21k|  }
   73|  4.21k|}
_RINvNtCsaZdo92nHnrg_3nom8sequence8precededReNtCs4qtBjdjJOwX_15rsonpath_syntax9SelectorsNtNtBI_5error18InternalParseErrorNCINvNtNtB4_5bytes8complete3tagBE_BE_B1n_E0INtNtB4_10combinator3CutINtNtB4_6branch6ChoiceTNCNvNtBI_6parser18descendant_segment0INtNtB4_8internal3MapNvB3q_17wildcard_selectorNvMsq_BI_BG_3oneENvB3q_21member_name_shorthandNCINvB3q_14failed_segmentBG_E0EEEEBI_:
   61|  21.8k|pub fn preceded<I, O, E: ParseError<I>, F, G>(
   62|  21.8k|  first: F,
   63|  21.8k|  second: G,
   64|  21.8k|) -> impl Parser<I, Output = O, Error = E>
   65|  21.8k|where
   66|  21.8k|  F: Parser<I, Error = E>,
   67|  21.8k|  G: Parser<I, Output = O, Error = E>,
   68|       |{
   69|  21.8k|  Preceded {
   70|  21.8k|    f: first,
   71|  21.8k|    g: second,
   72|  21.8k|  }
   73|  21.8k|}
_RINvNtCsaZdo92nHnrg_3nom8sequence8precededReNtCs4qtBjdjJOwX_15rsonpath_syntax9SelectorsNtNtBI_5error18InternalParseErrorNCINvNtNtB4_9character8complete4charBE_B1n_E0INtNtB4_10combinator3CutINtNtB4_6branch6ChoiceTINtNtB4_8internal3MapNvNtBI_6parser17wildcard_selectorNvMsq_BI_BG_3oneENvB3L_21member_name_shorthandNCINvB3L_14failed_segmentBG_E0EEEEBI_:
   61|  18.2k|pub fn preceded<I, O, E: ParseError<I>, F, G>(
   62|  18.2k|  first: F,
   63|  18.2k|  second: G,
   64|  18.2k|) -> impl Parser<I, Output = O, Error = E>
   65|  18.2k|where
   66|  18.2k|  F: Parser<I, Error = E>,
   67|  18.2k|  G: Parser<I, Output = O, Error = E>,
   68|       |{
   69|  18.2k|  Preceded {
   70|  18.2k|    f: first,
   71|  18.2k|    g: second,
   72|  18.2k|  }
   73|  18.2k|}
_RINvNtCsaZdo92nHnrg_3nom8sequence8precededReNtNtCs4qtBjdjJOwX_15rsonpath_syntax3str10JsonStringNtNtBK_5error18InternalParseErrorNCINvNtNtB4_9character8complete4charBE_B1v_E0NCNvNtBK_6parser6string0EBK_:
   61|  82.1k|pub fn preceded<I, O, E: ParseError<I>, F, G>(
   62|  82.1k|  first: F,
   63|  82.1k|  second: G,
   64|  82.1k|) -> impl Parser<I, Output = O, Error = E>
   65|  82.1k|where
   66|  82.1k|  F: Parser<I, Error = E>,
   67|  82.1k|  G: Parser<I, Output = O, Error = E>,
   68|       |{
   69|  82.1k|  Preceded {
   70|  82.1k|    f: first,
   71|  82.1k|    g: second,
   72|  82.1k|  }
   73|  82.1k|}
_RINvXNtCsaZdo92nHnrg_3nom8sequenceINtB3_8PrecededNCINvNtNtB5_9character8complete4charReNtNtCs4qtBjdjJOwX_15rsonpath_syntax5error18InternalParseErrorE0INtNtB5_10combinator3OptNCINvNtB1r_6parser17ignore_whitespaceB1l_NvB2R_3intB1n_E0EEINtNtB5_8internal6ParserB1l_E7processINtB3M_7OutputMNtB3M_4EmitB4z_NtB3M_9StreamingEEB1r_:
   88|  1.85k|  fn process<OM: OutputMode>(&mut self, i: I) -> PResult<OM, I, Self::Output, Self::Error> {
   89|  1.85k|    let (i, _) = self
   90|  1.85k|      .f
   91|  1.85k|      .process::<OutputM<Check, OM::Error, OM::Incomplete>>(i)?;
   92|    610|    let (i, o2) = self.g.process::<OM>(i)?;
   93|       |
   94|    610|    Ok((i, o2))
   95|  1.85k|  }
_RINvXs_NtCsaZdo92nHnrg_3nom8sequenceINtB5_10TerminatedINtNtB7_10combinator3OptNvNtCs4qtBjdjJOwX_15rsonpath_syntax6parser3intENCINvB1g_17ignore_whitespacecNCINvNtNtB7_9character8complete4charReNtNtB1i_5error18InternalParseErrorE0B34_E0EINtNtB7_8internal6ParserB32_E7processINtB3O_7OutputMNtB3O_4EmitB4B_NtB3O_9StreamingEEB1i_:
  145|  14.5k|  fn process<OM: OutputMode>(&mut self, i: I) -> PResult<OM, I, Self::Output, Self::Error> {
  146|  14.5k|    let (i, o1) = self.f.process::<OM>(i)?;
  147|  14.5k|    let (i, _) = self
  148|  14.5k|      .g
  149|  14.5k|      .process::<OutputM<Check, OM::Error, OM::Incomplete>>(i)?;
  150|       |
  151|  1.85k|    Ok((i, o1))
  152|  14.5k|  }
_RINvXNtCsaZdo92nHnrg_3nom8sequenceINtB3_8PrecededNCINvNtNtB5_5bytes8complete3tagReB1g_NtNtCs4qtBjdjJOwX_15rsonpath_syntax5error18InternalParseErrorE0INtNtB5_10combinator3CutINtNtB5_6branch6ChoiceTNCNvNtB1q_6parser18descendant_segment0INtNtB5_8internal3MapNvB3c_17wildcard_selectorNvMsq_B1q_NtB1q_9Selectors3oneENvB3c_21member_name_shorthandNCINvB3c_14failed_segmentB4E_E0EEEEINtB3N_6ParserB1g_E7processINtB3N_7OutputMNtB3N_4EmitB6H_NtB3N_9StreamingEEB1q_:
   88|  21.8k|  fn process<OM: OutputMode>(&mut self, i: I) -> PResult<OM, I, Self::Output, Self::Error> {
   89|  21.8k|    let (i, _) = self
   90|  21.8k|      .f
   91|  21.8k|      .process::<OutputM<Check, OM::Error, OM::Incomplete>>(i)?;
   92|  3.59k|    let (i, o2) = self.g.process::<OM>(i)?;
   93|       |
   94|  3.59k|    Ok((i, o2))
   95|  21.8k|  }
_RINvXNtCsaZdo92nHnrg_3nom8sequenceINtB3_8PrecededNCINvNtNtB5_9character8complete4charReNtNtCs4qtBjdjJOwX_15rsonpath_syntax5error18InternalParseErrorE0NCINvNtB1r_6parser17ignore_whitespaceNtB1r_11LogicalExprNCNvB2t_15filter_selector0B1n_E0EINtNtB5_8internal6ParserB1l_E7processINtB3S_7OutputMNtB3S_4EmitB4F_NtB3S_9StreamingEEB1r_:
   88|  4.21k|  fn process<OM: OutputMode>(&mut self, i: I) -> PResult<OM, I, Self::Output, Self::Error> {
   89|  4.21k|    let (i, _) = self
   90|  4.21k|      .f
   91|  4.21k|      .process::<OutputM<Check, OM::Error, OM::Incomplete>>(i)?;
   92|  4.21k|    let (i, o2) = self.g.process::<OM>(i)?;
   93|       |
   94|  4.21k|    Ok((i, o2))
   95|  4.21k|  }

_RINvXs_NtCsaZdo92nHnrg_3nom6traitsReNtB5_5Input27split_at_position1_completeNCINvNtNtB7_9character8complete6digit1Bw_NtNtCs4qtBjdjJOwX_15rsonpath_syntax5error18InternalParseErrorE0B1R_EB1V_:
  470|  42.0k|  fn split_at_position1_complete<P, E: ParseError<Self>>(
  471|  42.0k|    &self,
  472|  42.0k|    predicate: P,
  473|  42.0k|    e: ErrorKind,
  474|  42.0k|  ) -> IResult<Self, Self, E>
  475|  42.0k|  where
  476|  42.0k|    P: Fn(Self::Item) -> bool,
  477|       |  {
  478|  42.0k|    match self.find(predicate) {
  479|  22.4k|      Some(0) => Err(Err::Error(E::from_error_kind(self, e))),
  480|       |      // The position i is returned from str::find() which means it is within the bounds of the string
  481|  19.6k|      Some(i) => {
  482|  19.6k|        let (str1, str2) = self.split_at(i);
  483|  19.6k|        Ok((str2, str1))
  484|       |      }
  485|       |      None => {
  486|      0|        if self.is_empty() {
  487|      0|          Err(Err::Error(E::from_error_kind(self, e)))
  488|       |        } else {
  489|       |          // the end of slice is a char boundary
  490|      0|          let (str1, str2) = self.split_at(self.len());
  491|      0|          Ok((str2, str1))
  492|       |        }
  493|       |      }
  494|       |    }
  495|  42.0k|  }
_RNCNvXse_NtCsaZdo92nHnrg_3nom6traitsRShINtB7_7CompareBy_E7compare0Cs4qtBjdjJOwX_15rsonpath_syntax:
  894|   138k|    let pos = self.iter().zip(t.iter()).position(|(a, b)| a != b);
_RNCNvXsg_NtCsaZdo92nHnrg_3nom6traitsReINtB7_7CompareBy_E15compare_no_case0Cs4qtBjdjJOwX_15rsonpath_syntax:
  947|    916|      .position(|(a, b)| a.to_lowercase().ne(b.to_lowercase()));
_RNvXs_NtCsaZdo92nHnrg_3nom6traitsReNtB4_5Input13iter_elementsCs4qtBjdjJOwX_15rsonpath_syntax:
  392|   277k|  fn iter_elements(&self) -> Self::Iter {
  393|   277k|    self.chars()
  394|   277k|  }
_RNvXs_NtCsaZdo92nHnrg_3nom6traitsReNtB4_5Input4takeCs4qtBjdjJOwX_15rsonpath_syntax:
  368|  38.4k|  fn take(&self, index: usize) -> Self {
  369|  38.4k|    &self[..index]
  370|  38.4k|  }
_RNvXs_NtCsaZdo92nHnrg_3nom6traitsReNtB4_5Input9take_fromCs4qtBjdjJOwX_15rsonpath_syntax:
  373|   136k|  fn take_from(&self, index: usize) -> Self {
  374|   136k|    &self[index..]
  375|   136k|  }
_RNvXsc_NtCsaZdo92nHnrg_3nom6traitscNtB5_6AsChar12is_dec_digitCs4qtBjdjJOwX_15rsonpath_syntax:
  788|   389k|  fn is_dec_digit(self) -> bool {
  789|   389k|    self.is_ascii_digit()
  790|   389k|  }
_RNvXsc_NtCsaZdo92nHnrg_3nom6traitscNtB5_6AsChar3lenCs4qtBjdjJOwX_15rsonpath_syntax:
  804|  18.9k|  fn len(self) -> usize {
  805|  18.9k|    self.len_utf8()
  806|  18.9k|  }
_RNvXsc_NtCsaZdo92nHnrg_3nom6traitscNtB5_6AsChar7as_charCs4qtBjdjJOwX_15rsonpath_syntax:
  776|   296k|  fn as_char(self) -> char {
  777|   296k|    self
  778|   296k|  }
_RNvXsd_NtCsaZdo92nHnrg_3nom6traitsRcNtB5_6AsChar3lenCs4qtBjdjJOwX_15rsonpath_syntax:
  846|  99.3k|  fn len(self) -> usize {
  847|  99.3k|    self.len_utf8()
  848|  99.3k|  }
_RNvXsd_NtCsaZdo92nHnrg_3nom6traitsRcNtB5_6AsChar7as_charCs4qtBjdjJOwX_15rsonpath_syntax:
  818|  99.3k|  fn as_char(self) -> char {
  819|  99.3k|    *self
  820|  99.3k|  }
_RNvXs4_NtCsaZdo92nHnrg_3nom6traitsReNtB5_7AsBytes8as_bytes:
  620|   115k|  fn as_bytes(&self) -> &[u8] {
  621|   115k|    (*self).as_bytes()
  622|   115k|  }
_RNvXse_NtCsaZdo92nHnrg_3nom6traitsRShINtB5_7CompareBw_E7compare:
  893|   115k|  fn compare(&self, t: &'b [u8]) -> CompareResult {
  894|   115k|    let pos = self.iter().zip(t.iter()).position(|(a, b)| a != b);
  895|       |
  896|   115k|    match pos {
  897|  97.7k|      Some(_) => CompareResult::Error,
  898|       |      None => {
  899|  18.1k|        if self.len() >= t.len() {
  900|  18.1k|          CompareResult::Ok
  901|       |        } else {
  902|      0|          CompareResult::Incomplete
  903|       |        }
  904|       |      }
  905|       |    }
  906|   115k|  }
_RNvXsg_NtCsaZdo92nHnrg_3nom6traitsReINtB5_7CompareBw_E15compare_no_case:
  943|    916|  fn compare_no_case(&self, t: &'b str) -> CompareResult {
  944|    916|    let pos = self
  945|    916|      .chars()
  946|    916|      .zip(t.chars())
  947|    916|      .position(|(a, b)| a.to_lowercase().ne(b.to_lowercase()));
  948|       |
  949|    916|    match pos {
  950|    916|      Some(_) => CompareResult::Error,
  951|       |      None => {
  952|      0|        if self.len() >= t.len() {
  953|      0|          CompareResult::Ok
  954|       |        } else {
  955|      0|          CompareResult::Incomplete
  956|       |        }
  957|       |      }
  958|       |    }
  959|    916|  }
_RNvXsg_NtCsaZdo92nHnrg_3nom6traitsReINtB5_7CompareBw_E7compare:
  937|   115k|  fn compare(&self, t: &'b str) -> CompareResult {
  938|   115k|    self.as_bytes().compare(t.as_bytes())
  939|   115k|  }
_RNCNvXsn_NtCsaZdo92nHnrg_3nom6traitsReINtB7_9FindTokencE10find_token0B9_:
 1011|  49.6k|    self.chars().any(|i| i == token)
_RNvXs3_NtCsaZdo92nHnrg_3nom6traitsReNtB5_6Offset6offset:
  604|  20.3k|  fn offset(&self, second: &Self) -> usize {
  605|  20.3k|    let fst = self.as_ptr();
  606|  20.3k|    let snd = second.as_ptr();
  607|       |
  608|  20.3k|    snd as usize - fst as usize
  609|  20.3k|  }
_RNvXs_NtCsaZdo92nHnrg_3nom6traitsReNtB4_5Input9input_len:
  363|   116k|  fn input_len(&self) -> usize {
  364|   116k|    self.len()
  365|   116k|  }
_RNvXsn_NtCsaZdo92nHnrg_3nom6traitsReINtB5_9FindTokencE10find_token:
 1010|  26.1k|  fn find_token(&self, token: char) -> bool {
 1011|  26.1k|    self.chars().any(|i| i == token)
 1012|  26.1k|  }

_RINvMs_NtCs4qtBjdjJOwX_15rsonpath_syntax7builderNtB5_24JsonPathSelectorsBuilder4nameNtNtB7_3str10JsonStringECscZPHoD06VRW_17rsonpath_lib_fuzz:
  258|  6.58k|    pub fn name<S: Into<JsonString>>(&mut self, name: S) -> &mut Self {
  259|  6.58k|        self.selectors.push(Selector::Name(name.into()));
  260|  6.58k|        self
  261|  6.58k|    }
_RINvMs_NtCs4qtBjdjJOwX_15rsonpath_syntax7builderNtB5_24JsonPathSelectorsBuilder5indexNtNtB7_3num7JsonIntECscZPHoD06VRW_17rsonpath_lib_fuzz:
  284|  1.76k|    pub fn index<N: Into<JsonInt>>(&mut self, idx: N) -> &mut Self {
  285|  1.76k|        let json_int: JsonInt = idx.into();
  286|  1.76k|        self.selectors.push(Selector::Index(Index::from(json_int)));
  287|  1.76k|        self
  288|  1.76k|    }
_RINvMs_NtCs4qtBjdjJOwX_15rsonpath_syntax7builderNtB5_24JsonPathSelectorsBuilder5sliceNtB7_5SliceECscZPHoD06VRW_17rsonpath_lib_fuzz:
  320|  1.85k|    pub fn slice(&mut self, slice: impl Into<Slice>) -> &mut Self {
  321|  1.85k|        self.selectors.push(Selector::Slice(slice.into()));
  322|  1.85k|        self
  323|  1.85k|    }
_RNvMNtCs4qtBjdjJOwX_15rsonpath_syntax7builderNtB2_20JsonPathQueryBuilder3new:
   54|  3.55k|    pub fn new() -> Self {
   55|  3.55k|        Self { segments: vec![] }
   56|  3.55k|    }
_RNvMs_NtCs4qtBjdjJOwX_15rsonpath_syntax7builderNtB4_24JsonPathSelectorsBuilder8wildcard:
  360|  4.14k|    pub fn wildcard(&mut self) -> &mut Self {
  361|  4.14k|        self.selectors.push(Selector::Wildcard);
  362|  4.14k|        self
  363|  4.14k|    }
_RINvMNtCs4qtBjdjJOwX_15rsonpath_syntax7builderNtB3_20JsonPathQueryBuilder10descendantNCNvMs4_NtCscZPHoD06VRW_17rsonpath_lib_fuzz5queryNtB1t_23ArbitraryQueryGenerator16generate_segments0_0EB1v_:
  110|  3.59k|    pub fn descendant<F>(&mut self, selectors_builder: F) -> &mut Self
  111|  3.59k|    where
  112|  3.59k|        F: FnOnce(&mut JsonPathSelectorsBuilder) -> &mut JsonPathSelectorsBuilder,
  113|       |    {
  114|  3.59k|        let mut builder = JsonPathSelectorsBuilder::new();
  115|  3.59k|        selectors_builder(&mut builder);
  116|  3.59k|        self.segments.push(Segment::Descendant(builder.build()));
  117|  3.59k|        self
  118|  3.59k|    }
_RINvMNtCs4qtBjdjJOwX_15rsonpath_syntax7builderNtB3_20JsonPathQueryBuilder5childNCNvMs4_NtCscZPHoD06VRW_17rsonpath_lib_fuzz5queryNtB1n_23ArbitraryQueryGenerator16generate_segments_0EB1p_:
   79|  7.08k|    pub fn child<F>(&mut self, selectors_builder: F) -> &mut Self
   80|  7.08k|    where
   81|  7.08k|        F: FnOnce(&mut JsonPathSelectorsBuilder) -> &mut JsonPathSelectorsBuilder,
   82|       |    {
   83|  7.08k|        let mut builder = JsonPathSelectorsBuilder::new();
   84|  7.08k|        selectors_builder(&mut builder);
   85|  7.08k|        self.segments.push(Segment::Child(builder.build()));
   86|  7.08k|        self
   87|  7.08k|    }
_RINvMs2_NtCs4qtBjdjJOwX_15rsonpath_syntax7builderNtB6_12SliceBuilder10with_startNtNtB8_3num7JsonIntECscZPHoD06VRW_17rsonpath_lib_fuzz:
  432|    443|    pub fn with_start<N: Into<JsonInt>>(&mut self, start: N) -> &mut Self {
  433|    443|        self.inner.start = start.into().into();
  434|    443|        self.start_was_explicitly_given = true;
  435|    443|        self
  436|    443|    }
_RINvMs2_NtCs4qtBjdjJOwX_15rsonpath_syntax7builderNtB6_12SliceBuilder8with_endNtNtB8_3num7JsonIntECscZPHoD06VRW_17rsonpath_lib_fuzz:
  440|    540|    pub fn with_end<N: Into<JsonInt>>(&mut self, end: N) -> &mut Self {
  441|    540|        self.inner.end = Some(end.into().into());
  442|    540|        self
  443|    540|    }
_RINvMs2_NtCs4qtBjdjJOwX_15rsonpath_syntax7builderNtB6_12SliceBuilder9with_stepNtNtB8_3num7JsonIntECscZPHoD06VRW_17rsonpath_lib_fuzz:
  447|    610|    pub fn with_step<N: Into<JsonInt>>(&mut self, step: N) -> &mut Self {
  448|    610|        self.inner.step = step.into().into();
  449|    610|        self
  450|    610|    }
_RINvMs6_NtCs4qtBjdjJOwX_15rsonpath_syntax7builderNtB6_28SingularJsonPathQueryBuilder4nameNtNtB8_3str10JsonStringECscZPHoD06VRW_17rsonpath_lib_fuzz:
  550|  4.47k|    pub fn name<S: Into<JsonString>>(&mut self, name: S) -> &mut Self {
  551|  4.47k|        self.segments.push(SingularSegment::Name(name.into()));
  552|  4.47k|        self
  553|  4.47k|    }
_RINvMs6_NtCs4qtBjdjJOwX_15rsonpath_syntax7builderNtB6_28SingularJsonPathQueryBuilder5indexNtNtB8_3num7JsonIntECscZPHoD06VRW_17rsonpath_lib_fuzz:
  557|  6.71k|    pub fn index<N: Into<Index>>(&mut self, n: N) -> &mut Self {
  558|  6.71k|        self.segments.push(SingularSegment::Index(n.into()));
  559|  6.71k|        self
  560|  6.71k|    }
_RINvMs9_NtCs4qtBjdjJOwX_15rsonpath_syntax7builderNtB6_23EmptyLogicalExprBuilder10comparisonNCNvNvMs4_NtCscZPHoD06VRW_17rsonpath_lib_fuzz5queryNtB1B_23ArbitraryQueryGenerator21generate_logical_expr19generate_with_depths_0EB1D_:
  583|  4.77k|    pub fn comparison<F>(self, cf: F) -> LogicalExprBuilder
  584|  4.77k|    where
  585|  4.77k|        F: FnOnce(EmptyComparisonExprBuilder) -> ComparisonExpr,
  586|       |    {
  587|  4.77k|        let comparison = cf(EmptyComparisonExprBuilder);
  588|  4.77k|        LogicalExprBuilder {
  589|  4.77k|            current: LogicalExpr::Comparison(comparison),
  590|  4.77k|        }
  591|  4.77k|    }
_RINvMs9_NtCs4qtBjdjJOwX_15rsonpath_syntax7builderNtB6_23EmptyLogicalExprBuilder13test_absoluteNCNvNvMs4_NtCscZPHoD06VRW_17rsonpath_lib_fuzz5queryNtB1E_23ArbitraryQueryGenerator21generate_logical_expr19generate_with_depths0_0EB1G_:
  595|  1.38k|    pub fn test_absolute<F>(self, tf: F) -> LogicalExprBuilder
  596|  1.38k|    where
  597|  1.38k|        F: FnOnce(&mut JsonPathQueryBuilder) -> &mut JsonPathQueryBuilder,
  598|       |    {
  599|  1.38k|        let mut query = JsonPathQueryBuilder::new();
  600|  1.38k|        tf(&mut query);
  601|  1.38k|        LogicalExprBuilder {
  602|  1.38k|            current: LogicalExpr::Test(TestExpr::Absolute(query.into_query())),
  603|  1.38k|        }
  604|  1.38k|    }
_RINvMs9_NtCs4qtBjdjJOwX_15rsonpath_syntax7builderNtB6_23EmptyLogicalExprBuilder13test_relativeNCNvNvMs4_NtCscZPHoD06VRW_17rsonpath_lib_fuzz5queryNtB1E_23ArbitraryQueryGenerator21generate_logical_expr19generate_with_depths1_0EB1G_:
  608|  1.29k|    pub fn test_relative<F>(self, tf: F) -> LogicalExprBuilder
  609|  1.29k|    where
  610|  1.29k|        F: FnOnce(&mut JsonPathQueryBuilder) -> &mut JsonPathQueryBuilder,
  611|       |    {
  612|  1.29k|        let mut query = JsonPathQueryBuilder::new();
  613|  1.29k|        tf(&mut query);
  614|  1.29k|        LogicalExprBuilder {
  615|  1.29k|            current: LogicalExpr::Test(TestExpr::Relative(query.into_query())),
  616|  1.29k|        }
  617|  1.29k|    }
_RINvMs9_NtCs4qtBjdjJOwX_15rsonpath_syntax7builderNtB6_23EmptyLogicalExprBuilder3notNCNvNvMs4_NtCscZPHoD06VRW_17rsonpath_lib_fuzz5queryNtB1t_23ArbitraryQueryGenerator21generate_logical_expr19generate_with_depths3_0EB1v_:
  621|  3.24k|    pub fn not<F>(self, tf: F) -> LogicalExprBuilder
  622|  3.24k|    where
  623|  3.24k|        F: FnOnce(Self) -> LogicalExprBuilder,
  624|       |    {
  625|  3.24k|        let inner = tf(Self).into();
  626|  3.24k|        LogicalExprBuilder {
  627|  3.24k|            current: LogicalExpr::Not(Box::new(inner)),
  628|  3.24k|        }
  629|  3.24k|    }
_RINvMs_NtCs4qtBjdjJOwX_15rsonpath_syntax7builderNtB5_24JsonPathSelectorsBuilder6filterNCNvMs4_NtCscZPHoD06VRW_17rsonpath_lib_fuzz5queryNtB1u_23ArbitraryQueryGenerator24generate_filter_selector0EB1w_:
  367|  4.21k|    pub fn filter<F>(&mut self, filter_builder: F) -> &mut Self
  368|  4.21k|    where
  369|  4.21k|        F: FnOnce(EmptyLogicalExprBuilder) -> LogicalExprBuilder,
  370|       |    {
  371|  4.21k|        let filter = filter_builder(EmptyLogicalExprBuilder);
  372|  4.21k|        let logical_expr = filter.into();
  373|  4.21k|        self.selectors.push(Selector::Filter(logical_expr));
  374|  4.21k|        self
  375|  4.21k|    }
_RINvMsa_NtCs4qtBjdjJOwX_15rsonpath_syntax7builderNtB6_26EmptyComparisonExprBuilder14query_absoluteNCNvMs4_NtCscZPHoD06VRW_17rsonpath_lib_fuzz5queryNtB1G_23ArbitraryQueryGenerator19generate_comparisons_0EB1I_:
  645|  1.35k|    pub fn query_absolute<F>(self, qf: F) -> ComparisonWithLhsBuilder
  646|  1.35k|    where
  647|  1.35k|        F: FnOnce(&mut SingularJsonPathQueryBuilder) -> &mut SingularJsonPathQueryBuilder,
  648|       |    {
  649|  1.35k|        let mut query = SingularJsonPathQueryBuilder::new();
  650|  1.35k|        qf(&mut query);
  651|  1.35k|        ComparisonWithLhsBuilder {
  652|  1.35k|            lhs: Comparable::AbsoluteSingularQuery(query.into()),
  653|  1.35k|        }
  654|  1.35k|    }
_RINvMsa_NtCs4qtBjdjJOwX_15rsonpath_syntax7builderNtB6_26EmptyComparisonExprBuilder14query_relativeNCNvMs4_NtCscZPHoD06VRW_17rsonpath_lib_fuzz5queryNtB1G_23ArbitraryQueryGenerator19generate_comparisons0_0EB1I_:
  659|  1.36k|    pub fn query_relative<F>(self, qf: F) -> ComparisonWithLhsBuilder
  660|  1.36k|    where
  661|  1.36k|        F: FnOnce(&mut SingularJsonPathQueryBuilder) -> &mut SingularJsonPathQueryBuilder,
  662|       |    {
  663|  1.36k|        let mut query = SingularJsonPathQueryBuilder::new();
  664|  1.36k|        qf(&mut query);
  665|  1.36k|        ComparisonWithLhsBuilder {
  666|  1.36k|            lhs: Comparable::RelativeSingularQuery(query.into()),
  667|  1.36k|        }
  668|  1.36k|    }
_RINvMsa_NtCs4qtBjdjJOwX_15rsonpath_syntax7builderNtB6_26EmptyComparisonExprBuilder7literalNtB8_7LiteralECscZPHoD06VRW_17rsonpath_lib_fuzz:
  636|  2.05k|    pub fn literal<L: Into<Literal>>(self, l: L) -> ComparisonWithLhsBuilder {
  637|  2.05k|        ComparisonWithLhsBuilder {
  638|  2.05k|            lhs: Comparable::Literal(l.into()),
  639|  2.05k|        }
  640|  2.05k|    }
_RINvMsc_NtCs4qtBjdjJOwX_15rsonpath_syntax7builderNtB6_29ComparisonWithLhsAndOpBuilder14query_absoluteNCNvMs4_NtCscZPHoD06VRW_17rsonpath_lib_fuzz5queryNtB1J_23ArbitraryQueryGenerator19generate_comparisons3_0EB1L_:
  747|    893|    pub fn query_absolute<F>(self, qf: F) -> ComparisonExpr
  748|    893|    where
  749|    893|        F: FnOnce(&mut SingularJsonPathQueryBuilder) -> &mut SingularJsonPathQueryBuilder,
  750|       |    {
  751|    893|        let mut query = SingularJsonPathQueryBuilder::new();
  752|    893|        qf(&mut query);
  753|    893|        ComparisonExpr {
  754|    893|            lhs: self.lhs,
  755|    893|            op: self.op,
  756|    893|            rhs: Comparable::AbsoluteSingularQuery(query.into()),
  757|    893|        }
  758|    893|    }
_RINvMsc_NtCs4qtBjdjJOwX_15rsonpath_syntax7builderNtB6_29ComparisonWithLhsAndOpBuilder14query_relativeNCNvMs4_NtCscZPHoD06VRW_17rsonpath_lib_fuzz5queryNtB1J_23ArbitraryQueryGenerator19generate_comparisons4_0EB1L_:
  763|    990|    pub fn query_relative<F>(self, qf: F) -> ComparisonExpr
  764|    990|    where
  765|    990|        F: FnOnce(&mut SingularJsonPathQueryBuilder) -> &mut SingularJsonPathQueryBuilder,
  766|       |    {
  767|    990|        let mut query = SingularJsonPathQueryBuilder::new();
  768|    990|        qf(&mut query);
  769|    990|        ComparisonExpr {
  770|    990|            lhs: self.lhs,
  771|    990|            op: self.op,
  772|    990|            rhs: Comparable::RelativeSingularQuery(query.into()),
  773|    990|        }
  774|    990|    }
_RINvMsc_NtCs4qtBjdjJOwX_15rsonpath_syntax7builderNtB6_29ComparisonWithLhsAndOpBuilder7literalNtB8_7LiteralECscZPHoD06VRW_17rsonpath_lib_fuzz:
  736|  2.89k|    pub fn literal<L: Into<Literal>>(self, l: L) -> ComparisonExpr {
  737|  2.89k|        ComparisonExpr {
  738|  2.89k|            lhs: self.lhs,
  739|  2.89k|            op: self.op,
  740|  2.89k|            rhs: Comparable::Literal(l.into()),
  741|  2.89k|        }
  742|  2.89k|    }
_RINvMsd_NtCs4qtBjdjJOwX_15rsonpath_syntax7builderNtB6_18LogicalExprBuilder2orNCNvNvMs4_NtCscZPHoD06VRW_17rsonpath_lib_fuzz5queryNtB1n_23ArbitraryQueryGenerator21generate_logical_expr19generate_with_depths5_0EB1p_:
  795|  1.53k|    pub fn or<F>(self, f: F) -> Self
  796|  1.53k|    where
  797|  1.53k|        F: FnOnce(EmptyLogicalExprBuilder) -> Self,
  798|       |    {
  799|  1.53k|        let lhs = Box::new(self.current);
  800|  1.53k|        let rhs = Box::new(f(EmptyLogicalExprBuilder).into());
  801|  1.53k|        Self {
  802|  1.53k|            current: LogicalExpr::Or(lhs, rhs),
  803|  1.53k|        }
  804|  1.53k|    }
_RINvMsd_NtCs4qtBjdjJOwX_15rsonpath_syntax7builderNtB6_18LogicalExprBuilder3andNCNvNvMs4_NtCscZPHoD06VRW_17rsonpath_lib_fuzz5queryNtB1o_23ArbitraryQueryGenerator21generate_logical_expr19generate_with_depths4_0EB1q_:
  781|  1.69k|    pub fn and<F>(self, f: F) -> Self
  782|  1.69k|    where
  783|  1.69k|        F: FnOnce(EmptyLogicalExprBuilder) -> Self,
  784|       |    {
  785|  1.69k|        let lhs = Box::new(self.current);
  786|  1.69k|        let rhs = Box::new(f(EmptyLogicalExprBuilder).into());
  787|  1.69k|        Self {
  788|  1.69k|            current: LogicalExpr::And(lhs, rhs),
  789|  1.69k|        }
  790|  1.69k|    }
_RNvXse_NtCs4qtBjdjJOwX_15rsonpath_syntax7builderNtB7_11LogicalExprINtNtCs6SNw0SRvItZ_4core7convert4FromNtB5_18LogicalExprBuilderE4from:
  809|  10.6k|    fn from(value: LogicalExprBuilder) -> Self {
  810|  10.6k|        value.current
  811|  10.6k|    }
_RNvMNtCs4qtBjdjJOwX_15rsonpath_syntax7builderNtB2_20JsonPathQueryBuilder10into_queryCscZPHoD06VRW_17rsonpath_lib_fuzz:
  224|  3.55k|    pub fn into_query(self) -> JsonPathQuery {
  225|  3.55k|        JsonPathQuery {
  226|  3.55k|            segments: self.segments,
  227|  3.55k|        }
  228|  3.55k|    }
_RNvMs2_NtCs4qtBjdjJOwX_15rsonpath_syntax7builderNtB5_12SliceBuilder3newCscZPHoD06VRW_17rsonpath_lib_fuzz:
  423|  1.85k|    pub fn new() -> Self {
  424|  1.85k|        Self {
  425|  1.85k|            inner: Slice::default(),
  426|  1.85k|            start_was_explicitly_given: false,
  427|  1.85k|        }
  428|  1.85k|    }
_RNvMs2_NtCs4qtBjdjJOwX_15rsonpath_syntax7builderNtB5_12SliceBuilder8to_sliceCscZPHoD06VRW_17rsonpath_lib_fuzz:
  457|  1.85k|    pub fn to_slice(&mut self) -> Slice {
  458|  1.85k|        if !self.start_was_explicitly_given {
  459|  1.41k|            if self.inner.step.is_forward() {
  460|  1.22k|                self.inner.start = Slice::DEFAULT_START_FORWARDS;
  461|  1.22k|            } else {
  462|    192|                self.inner.start = Slice::default_start_backwards();
  463|    192|            }
  464|    443|        }
  465|       |
  466|  1.85k|        self.inner.clone()
  467|  1.85k|    }
_RNvMs6_NtCs4qtBjdjJOwX_15rsonpath_syntax7builderNtB5_28SingularJsonPathQueryBuilder3newCscZPHoD06VRW_17rsonpath_lib_fuzz:
  544|  4.60k|    pub fn new() -> Self {
  545|  4.60k|        Self { segments: vec![] }
  546|  4.60k|    }
_RNvMsb_NtCs4qtBjdjJOwX_15rsonpath_syntax7builderNtB5_24ComparisonWithLhsBuilder12greater_thanCscZPHoD06VRW_17rsonpath_lib_fuzz:
  715|    640|    pub fn greater_than(self) -> ComparisonWithLhsAndOpBuilder {
  716|    640|        ComparisonWithLhsAndOpBuilder {
  717|    640|            lhs: self.lhs,
  718|    640|            op: ComparisonOp::GreaterThan,
  719|    640|        }
  720|    640|    }
_RNvMsb_NtCs4qtBjdjJOwX_15rsonpath_syntax7builderNtB5_24ComparisonWithLhsBuilder12not_equal_toCscZPHoD06VRW_17rsonpath_lib_fuzz:
  685|    370|    pub fn not_equal_to(self) -> ComparisonWithLhsAndOpBuilder {
  686|    370|        ComparisonWithLhsAndOpBuilder {
  687|    370|            lhs: self.lhs,
  688|    370|            op: ComparisonOp::NotEqualTo,
  689|    370|        }
  690|    370|    }
_RNvMsb_NtCs4qtBjdjJOwX_15rsonpath_syntax7builderNtB5_24ComparisonWithLhsBuilder18lesser_or_equal_toCscZPHoD06VRW_17rsonpath_lib_fuzz:
  705|    419|    pub fn lesser_or_equal_to(self) -> ComparisonWithLhsAndOpBuilder {
  706|    419|        ComparisonWithLhsAndOpBuilder {
  707|    419|            lhs: self.lhs,
  708|    419|            op: ComparisonOp::LesserOrEqualTo,
  709|    419|        }
  710|    419|    }
_RNvMsb_NtCs4qtBjdjJOwX_15rsonpath_syntax7builderNtB5_24ComparisonWithLhsBuilder19greater_or_equal_toCscZPHoD06VRW_17rsonpath_lib_fuzz:
  725|    424|    pub fn greater_or_equal_to(self) -> ComparisonWithLhsAndOpBuilder {
  726|    424|        ComparisonWithLhsAndOpBuilder {
  727|    424|            lhs: self.lhs,
  728|    424|            op: ComparisonOp::GreaterOrEqualTo,
  729|    424|        }
  730|    424|    }
_RNvMsb_NtCs4qtBjdjJOwX_15rsonpath_syntax7builderNtB5_24ComparisonWithLhsBuilder8equal_toCscZPHoD06VRW_17rsonpath_lib_fuzz:
  675|  2.42k|    pub fn equal_to(self) -> ComparisonWithLhsAndOpBuilder {
  676|  2.42k|        ComparisonWithLhsAndOpBuilder {
  677|  2.42k|            lhs: self.lhs,
  678|  2.42k|            op: ComparisonOp::EqualTo,
  679|  2.42k|        }
  680|  2.42k|    }
_RNvMsb_NtCs4qtBjdjJOwX_15rsonpath_syntax7builderNtB5_24ComparisonWithLhsBuilder9less_thanCscZPHoD06VRW_17rsonpath_lib_fuzz:
  695|    501|    pub fn less_than(self) -> ComparisonWithLhsAndOpBuilder {
  696|    501|        ComparisonWithLhsAndOpBuilder {
  697|    501|            lhs: self.lhs,
  698|    501|            op: ComparisonOp::LessThan,
  699|    501|        }
  700|    501|    }
_RNvXs3_NtCs4qtBjdjJOwX_15rsonpath_syntax7builderNtB7_5SliceINtNtCs6SNw0SRvItZ_4core7convert4FromNtB5_12SliceBuilderE4fromCscZPHoD06VRW_17rsonpath_lib_fuzz:
  472|  1.85k|    fn from(mut value: SliceBuilder) -> Self {
  473|  1.85k|        value.to_slice()
  474|  1.85k|    }
_RNvXs8_NtCs4qtBjdjJOwX_15rsonpath_syntax7builderNtB7_21SingularJsonPathQueryINtNtCs6SNw0SRvItZ_4core7convert4FromNtB5_28SingularJsonPathQueryBuilderE4fromCscZPHoD06VRW_17rsonpath_lib_fuzz:
  572|  4.60k|    fn from(value: SingularJsonPathQueryBuilder) -> Self {
  573|  4.60k|        Self {
  574|  4.60k|            segments: value.segments,
  575|  4.60k|        }
  576|  4.60k|    }
_RNvMs_NtCs4qtBjdjJOwX_15rsonpath_syntax7builderNtB4_24JsonPathSelectorsBuilder3new:
  232|  10.6k|    fn new() -> Self {
  233|  10.6k|        Self { selectors: vec![] }
  234|  10.6k|    }
_RNvMs_NtCs4qtBjdjJOwX_15rsonpath_syntax7builderNtB4_24JsonPathSelectorsBuilder5build:
  236|  10.6k|    fn build(self) -> Selectors {
  237|  10.6k|        assert!(!self.selectors.is_empty(), "there must be at least one selector");
  238|  10.6k|        Selectors::many(self.selectors)
  239|  10.6k|    }

_RNvMs0_NtCs4qtBjdjJOwX_15rsonpath_syntax5errorNtB5_17ParseErrorBuilder3new:
   57|    883|    pub(crate) fn new() -> Self {
   58|    883|        Self { syntax_errors: vec![] }
   59|    883|    }
_RNvMs0_NtCs4qtBjdjJOwX_15rsonpath_syntax5errorNtB5_17ParseErrorBuilder8is_empty:
   69|    883|    pub(crate) fn is_empty(&self) -> bool {
   70|    883|        self.syntax_errors.is_empty()
   71|    883|    }
_RNvMs1_NtCs4qtBjdjJOwX_15rsonpath_syntax5errorNtB5_11SyntaxError3new:
  141|  9.23k|    pub(crate) fn new(kind: SyntaxErrorKind, rev_idx: usize, len: usize) -> Self {
  142|  9.23k|        Self { kind, rev_idx, len }
  143|  9.23k|    }
_RNvXs2_NtCs4qtBjdjJOwX_15rsonpath_syntax5errorNtB5_18InternalParseErrorINtNtCsaZdo92nHnrg_3nom5error10ParseErrorReE15from_error_kind:
  155|   243k|    fn from_error_kind(input: &'a str, kind: nom::error::ErrorKind) -> Self {
  156|   243k|        Self::NomError(nom::error::Error::from_error_kind(input, kind))
  157|   243k|    }
_RNvXs2_NtCs4qtBjdjJOwX_15rsonpath_syntax5errorNtB5_18InternalParseErrorINtNtCsaZdo92nHnrg_3nom5error10ParseErrorReE6append:
  159|  70.8k|    fn append(input: &'a str, kind: nom::error::ErrorKind, other: Self) -> Self {
  160|  70.8k|        match other {
  161|  70.8k|            Self::NomError(e) => Self::NomError(nom::error::Error::append(input, kind, e)),
  162|      0|            _ => other,
  163|       |        }
  164|  70.8k|    }

_RNvCs4qtBjdjJOwX_15rsonpath_syntax5parseCs3eoZzJAlGP8_21query_fuzz_round_trip:
  296|    883|pub fn parse(str: &str) -> Result<JsonPathQuery> {
  297|    883|    Parser::default().parse(str)
  298|    883|}
_RNvMs2_Cs4qtBjdjJOwX_15rsonpath_syntaxNtB5_6Parser5parseCs3eoZzJAlGP8_21query_fuzz_round_trip:
  320|    883|    pub fn parse(&self, str: &str) -> Result<JsonPathQuery> {
  321|    883|        crate::parser::parse_with_options(str, &self.options)
  322|    883|    }
_RNvMs9_Cs4qtBjdjJOwX_15rsonpath_syntaxNtB5_5Slice23default_start_backwards:
  476|    690|    pub(crate) fn default_start_backwards() -> Index {
  477|    690|        Index::FromEnd(1.try_into().expect("const 1 is nonzero"))
  478|    690|    }
_RNvMsj_Cs4qtBjdjJOwX_15rsonpath_syntaxNtB5_21SingularJsonPathQuery8segmentsCs3eoZzJAlGP8_21query_fuzz_round_trip:
  757|  4.60k|    pub fn segments(&self) -> impl Iterator<Item = &'_ SingularSegment> {
  758|  4.60k|        self.segments.iter()
  759|  4.60k|    }
_RNvMso_Cs4qtBjdjJOwX_15rsonpath_syntaxNtB5_13JsonPathQuery8segments:
  834|  2.67k|    pub fn segments(&self) -> &[Segment] {
  835|  2.67k|        &self.segments
  836|  2.67k|    }
_RNvMsq_Cs4qtBjdjJOwX_15rsonpath_syntaxNtB5_9Selectors5firstCs3eoZzJAlGP8_21query_fuzz_round_trip:
  924|  10.6k|    pub fn first(&self) -> &Selector {
  925|  10.6k|        &self.inner[0]
  926|  10.6k|    }
_RNvMst_Cs4qtBjdjJOwX_15rsonpath_syntaxNtB5_4Step10is_forward:
 1054|  3.27k|    pub const fn is_forward(&self) -> bool {
 1055|  3.27k|        matches!(self, Self::Forward(_))
 1056|  3.27k|    }
_RNvMst_Cs4qtBjdjJOwX_15rsonpath_syntaxNtB5_4Step11is_backward:
 1068|  3.38k|    pub const fn is_backward(&self) -> bool {
 1069|  3.38k|        matches!(self, Self::Backward(_))
 1070|  3.38k|    }
_RNvXs0_Cs4qtBjdjJOwX_15rsonpath_syntaxNtB5_13ParserOptionsNtNtCs6SNw0SRvItZ_4core7default7Default7default:
  245|    883|    fn default() -> Self {
  246|    883|        Self {
  247|    883|            recursion_limit: Some(Parser::RECURSION_LIMIT_DEFAULT),
  248|    883|            relaxed_whitespace: false,
  249|    883|        }
  250|    883|    }
_RNvXsA_Cs4qtBjdjJOwX_15rsonpath_syntaxNtB5_4StepNtNtCs6SNw0SRvItZ_4core3fmt7Display3fmtCs3eoZzJAlGP8_21query_fuzz_round_trip:
 1140|    610|    fn fmt(&self, f: &mut fmt::Formatter<'_>) -> fmt::Result {
 1141|    610|        match self {
 1142|    304|            Self::Forward(idx) => write!(f, "{idx}"),
 1143|    306|            Self::Backward(idx) => write!(f, "-{idx}"),
 1144|       |        }
 1145|    610|    }
_RNvXsB_Cs4qtBjdjJOwX_15rsonpath_syntaxNtB5_5SliceNtNtCs6SNw0SRvItZ_4core3fmt7Display3fmtCs3eoZzJAlGP8_21query_fuzz_round_trip:
 1150|  1.85k|    fn fmt(&self, f: &mut fmt::Formatter<'_>) -> fmt::Result {
 1151|  1.85k|        if (self.step.is_forward() && self.start != Self::DEFAULT_START_FORWARDS)
 1152|  1.52k|            || (self.step.is_backward() && self.start != Self::default_start_backwards())
 1153|       |        {
 1154|    443|            write!(f, "{}", self.start)?;
 1155|  1.41k|        }
 1156|  1.85k|        write!(f, ":")?;
 1157|  1.85k|        if let Some(end) = self.end {
 1158|    540|            write!(f, "{end}")?;
 1159|  1.31k|        }
 1160|  1.85k|        if self.step != Self::DEFAULT_STEP {
 1161|    610|            write!(f, ":{}", self.step)?;
 1162|  1.24k|        }
 1163|  1.85k|        Ok(())
 1164|  1.85k|    }
_RNvXsC_Cs4qtBjdjJOwX_15rsonpath_syntaxNtB5_11LogicalExprNtNtCs6SNw0SRvItZ_4core3fmt7Display3fmtCs3eoZzJAlGP8_21query_fuzz_round_trip:
 1169|  13.9k|    fn fmt(&self, f: &mut fmt::Formatter<'_>) -> fmt::Result {
 1170|  13.9k|        match self {
 1171|  1.53k|            Self::Or(lhs, rhs) => {
 1172|  1.53k|                if lhs.precedence() <= self.precedence() {
 1173|      0|                    write!(f, "({lhs})")?;
 1174|       |                } else {
 1175|  1.53k|                    write!(f, "{lhs}")?;
 1176|       |                }
 1177|  1.53k|                write!(f, " || ")?;
 1178|  1.53k|                if rhs.precedence() < self.precedence() {
 1179|      0|                    write!(f, "({rhs})")?;
 1180|       |                } else {
 1181|  1.53k|                    write!(f, "{rhs}")?;
 1182|       |                }
 1183|  1.53k|                Ok(())
 1184|       |            }
 1185|  1.69k|            Self::And(lhs, rhs) => {
 1186|  1.69k|                if lhs.precedence() < self.precedence() {
 1187|      0|                    write!(f, "({lhs})")?;
 1188|       |                } else {
 1189|  1.69k|                    write!(f, "{lhs}")?;
 1190|       |                }
 1191|  1.69k|                write!(f, " && ")?;
 1192|  1.69k|                if rhs.precedence() <= self.precedence() {
 1193|    906|                    write!(f, "({rhs})")?;
 1194|       |                } else {
 1195|    793|                    write!(f, "{rhs}")?;
 1196|       |                }
 1197|  1.69k|                Ok(())
 1198|       |            }
 1199|  3.24k|            Self::Not(expr) => {
 1200|  3.24k|                if expr.precedence() <= self.precedence() {
 1201|  2.28k|                    write!(f, "!({expr})")
 1202|       |                } else {
 1203|    951|                    write!(f, "!{expr}")
 1204|       |                }
 1205|       |            }
 1206|  4.77k|            Self::Comparison(expr) => write!(f, "{expr}"),
 1207|  2.67k|            Self::Test(test) => write!(f, "{test}"),
 1208|       |        }
 1209|  13.9k|    }
_RNvXsD_Cs4qtBjdjJOwX_15rsonpath_syntaxNtB5_14ComparisonExprNtNtCs6SNw0SRvItZ_4core3fmt7Display3fmtCs3eoZzJAlGP8_21query_fuzz_round_trip:
 1214|  4.77k|    fn fmt(&self, f: &mut fmt::Formatter<'_>) -> fmt::Result {
 1215|  4.77k|        write!(f, "{} {} {}", self.lhs, self.op, self.rhs)
 1216|  4.77k|    }
_RNvXsE_Cs4qtBjdjJOwX_15rsonpath_syntaxNtB5_8TestExprNtNtCs6SNw0SRvItZ_4core3fmt7Display3fmtCs3eoZzJAlGP8_21query_fuzz_round_trip:
 1221|  2.67k|    fn fmt(&self, f: &mut fmt::Formatter<'_>) -> fmt::Result {
 1222|  2.67k|        match self {
 1223|  1.29k|            Self::Relative(q) => {
 1224|  1.29k|                write!(f, "@")?;
 1225|  3.95k|                for s in q.segments() {
 1226|  3.95k|                    write!(f, "{s}")?;
 1227|       |                }
 1228|       |            }
 1229|  1.38k|            Self::Absolute(q) => {
 1230|  1.38k|                write!(f, "$")?;
 1231|  3.75k|                for s in q.segments() {
 1232|  3.75k|                    write!(f, "{s}")?;
 1233|       |                }
 1234|       |            }
 1235|       |        }
 1236|  2.67k|        Ok(())
 1237|  2.67k|    }
_RNvXsF_Cs4qtBjdjJOwX_15rsonpath_syntaxNtB5_10ComparableNtNtCs6SNw0SRvItZ_4core3fmt7Display3fmtCs3eoZzJAlGP8_21query_fuzz_round_trip:
 1242|  9.55k|    fn fmt(&self, f: &mut fmt::Formatter<'_>) -> fmt::Result {
 1243|  9.55k|        match self {
 1244|  4.95k|            Self::Literal(lit) => write!(f, "{lit}"),
 1245|  2.35k|            Self::RelativeSingularQuery(q) => {
 1246|  2.35k|                write!(f, "@")?;
 1247|  5.98k|                for s in q.segments() {
 1248|  5.98k|                    write!(f, "{s}")?;
 1249|       |                }
 1250|  2.35k|                Ok(())
 1251|       |            }
 1252|  2.24k|            Self::AbsoluteSingularQuery(q) => {
 1253|  2.24k|                write!(f, "$")?;
 1254|  5.20k|                for s in q.segments() {
 1255|  5.20k|                    write!(f, "{s}")?;
 1256|       |                }
 1257|  2.24k|                Ok(())
 1258|       |            }
 1259|       |        }
 1260|  9.55k|    }
_RNvXsG_Cs4qtBjdjJOwX_15rsonpath_syntaxNtB5_7LiteralNtNtCs6SNw0SRvItZ_4core3fmt7Display3fmtCs3eoZzJAlGP8_21query_fuzz_round_trip:
 1265|  4.95k|    fn fmt(&self, f: &mut fmt::Formatter<'_>) -> fmt::Result {
 1266|  4.95k|        match self {
 1267|    528|            Self::String(s) => write!(f, "\"{}\"", str::escape(s.unquoted(), str::EscapeMode::DoubleQuoted)),
 1268|    916|            Self::Number(n) => write!(f, "{n}"),
 1269|    451|            Self::Bool(true) => write!(f, "true"),
 1270|    133|            Self::Bool(false) => write!(f, "false"),
 1271|  2.92k|            Self::Null => write!(f, "null"),
 1272|       |        }
 1273|  4.95k|    }
_RNvXsH_Cs4qtBjdjJOwX_15rsonpath_syntaxNtB5_12ComparisonOpNtNtCs6SNw0SRvItZ_4core3fmt7Display3fmtCs3eoZzJAlGP8_21query_fuzz_round_trip:
 1278|  4.77k|    fn fmt(&self, f: &mut fmt::Formatter<'_>) -> fmt::Result {
 1279|  4.77k|        match self {
 1280|  2.42k|            Self::EqualTo => write!(f, "=="),
 1281|    370|            Self::NotEqualTo => write!(f, "!="),
 1282|    419|            Self::LesserOrEqualTo => write!(f, "<="),
 1283|    424|            Self::GreaterOrEqualTo => write!(f, ">="),
 1284|    501|            Self::LessThan => write!(f, "<"),
 1285|    640|            Self::GreaterThan => write!(f, ">"),
 1286|       |        }
 1287|  4.77k|    }
_RNvXsJ_Cs4qtBjdjJOwX_15rsonpath_syntaxNtB5_15SingularSegmentNtNtCs6SNw0SRvItZ_4core3fmt7Display3fmtCs3eoZzJAlGP8_21query_fuzz_round_trip:
 1302|  11.1k|    fn fmt(&self, f: &mut fmt::Formatter<'_>) -> fmt::Result {
 1303|  11.1k|        match self {
 1304|  4.47k|            Self::Name(n) => write!(f, "['{}']", str::escape(n.unquoted(), str::EscapeMode::SingleQuoted)),
 1305|  6.71k|            Self::Index(i) => write!(f, "[{i}]"),
 1306|       |        }
 1307|  11.1k|    }
_RNvXsv_Cs4qtBjdjJOwX_15rsonpath_syntaxNtB5_13JsonPathQueryNtNtCs6SNw0SRvItZ_4core3fmt7Display3fmtCs3eoZzJAlGP8_21query_fuzz_round_trip:
 1084|    883|    fn fmt(&self, f: &mut fmt::Formatter<'_>) -> fmt::Result {
 1085|    883|        write!(f, "$")?;
 1086|  3.84k|        for s in &self.segments {
 1087|  2.96k|            write!(f, "{s}")?;
 1088|       |        }
 1089|    883|        Ok(())
 1090|    883|    }
_RNvXsw_Cs4qtBjdjJOwX_15rsonpath_syntaxNtB5_7SegmentNtNtCs6SNw0SRvItZ_4core3fmt7Display3fmtCs3eoZzJAlGP8_21query_fuzz_round_trip:
 1095|  10.6k|    fn fmt(&self, f: &mut fmt::Formatter<'_>) -> fmt::Result {
 1096|  10.6k|        match self {
 1097|  7.08k|            Self::Child(s) => write!(f, "{s}"),
 1098|  3.59k|            Self::Descendant(s) => write!(f, "..{s}"),
 1099|       |        }
 1100|  10.6k|    }
_RNvXsx_Cs4qtBjdjJOwX_15rsonpath_syntaxNtB5_9SelectorsNtNtCs6SNw0SRvItZ_4core3fmt7Display3fmtCs3eoZzJAlGP8_21query_fuzz_round_trip:
 1105|  10.6k|    fn fmt(&self, f: &mut fmt::Formatter<'_>) -> fmt::Result {
 1106|  10.6k|        write!(f, "[{}", self.first())?;
 1107|  10.6k|        for s in self.inner.iter().skip(1) {
 1108|  7.88k|            write!(f, ", {s}")?;
 1109|       |        }
 1110|  10.6k|        write!(f, "]")?;
 1111|  10.6k|        Ok(())
 1112|  10.6k|    }
_RNvXsy_Cs4qtBjdjJOwX_15rsonpath_syntaxNtB5_8SelectorNtNtCs6SNw0SRvItZ_4core3fmt7Display3fmtCs3eoZzJAlGP8_21query_fuzz_round_trip:
 1117|  18.5k|    fn fmt(&self, f: &mut fmt::Formatter<'_>) -> fmt::Result {
 1118|  18.5k|        match self {
 1119|  6.58k|            Self::Name(n) => write!(f, "'{}'", str::escape(n.unquoted(), str::EscapeMode::SingleQuoted)),
 1120|  4.14k|            Self::Wildcard => write!(f, "*"),
 1121|  1.76k|            Self::Index(idx) => write!(f, "{idx}"),
 1122|  1.85k|            Self::Slice(slice) => write!(f, "{slice}"),
 1123|  4.21k|            Self::Filter(filter) => write!(f, "?{filter}"),
 1124|       |        }
 1125|  18.5k|    }
_RNvXsz_Cs4qtBjdjJOwX_15rsonpath_syntaxNtB5_5IndexNtNtCs6SNw0SRvItZ_4core3fmt7Display3fmtCs3eoZzJAlGP8_21query_fuzz_round_trip:
 1130|  9.45k|    fn fmt(&self, f: &mut fmt::Formatter<'_>) -> fmt::Result {
 1131|  9.45k|        match self {
 1132|  4.26k|            Self::FromStart(idx) => write!(f, "{idx}"),
 1133|  5.19k|            Self::FromEnd(idx) => write!(f, "-{idx}"),
 1134|       |        }
 1135|  9.45k|    }
_RNvMs9_Cs4qtBjdjJOwX_15rsonpath_syntaxNtB5_5Slice5build:
  484|  1.85k|    pub fn build() -> SliceBuilder {
  485|  1.85k|        SliceBuilder::new()
  486|  1.85k|    }
_RNvXs8_Cs4qtBjdjJOwX_15rsonpath_syntaxNtB5_4StepINtNtCs6SNw0SRvItZ_4core7convert4FromNtNtB5_3num7JsonIntE4fromCscZPHoD06VRW_17rsonpath_lib_fuzz:
  435|    610|    fn from(value: num::JsonInt) -> Self {
  436|    610|        if value.as_i64() >= 0 {
  437|    304|            Self::Forward(value.abs())
  438|       |        } else {
  439|    306|            Self::Backward(value.abs().try_into().expect("checked for zero already"))
  440|       |        }
  441|    610|    }
_RNvXsa_Cs4qtBjdjJOwX_15rsonpath_syntaxNtB5_5SliceNtNtCs6SNw0SRvItZ_4core7default7Default7defaultCscZPHoD06VRW_17rsonpath_lib_fuzz:
  519|  1.85k|    fn default() -> Self {
  520|  1.85k|        Self {
  521|  1.85k|            start: Index::FromStart(0.into()),
  522|  1.85k|            end: None,
  523|  1.85k|            step: Step::Forward(1.into()),
  524|  1.85k|        }
  525|  1.85k|    }
_RNvXs7_Cs4qtBjdjJOwX_15rsonpath_syntaxNtB5_5IndexINtNtCs6SNw0SRvItZ_4core7convert4FromNtNtB5_3num7JsonIntE4fromCscZPHoD06VRW_17rsonpath_lib_fuzz:
  413|  9.45k|    fn from(value: N) -> Self {
  414|  9.45k|        let value = value.into();
  415|  9.45k|        if value.as_i64() >= 0 {
  416|  4.26k|            Self::FromStart(value.abs())
  417|       |        } else {
  418|  5.19k|            Self::FromEnd(value.abs().try_into().expect("checked for zero already"))
  419|       |        }
  420|  9.45k|    }
_RNvXsb_Cs4qtBjdjJOwX_15rsonpath_syntaxNtB5_7LiteralINtNtCs6SNw0SRvItZ_4core7convert4FromNtNtB5_3str10JsonStringE4fromB5_:
  548|    528|    fn from(value: S) -> Self {
  549|    528|        Self::String(value.into())
  550|    528|    }
_RNvMs_Cs4qtBjdjJOwX_15rsonpath_syntaxNtB4_13ParserOptions30is_trailing_whitespace_allowed:
  238|    883|    fn is_trailing_whitespace_allowed(&self) -> bool {
  239|    883|        self.relaxed_whitespace
  240|    883|    }
_RNvMsg_Cs4qtBjdjJOwX_15rsonpath_syntaxNtB5_11LogicalExpr10precedence:
  610|  19.4k|    fn precedence(&self) -> usize {
  611|  19.4k|        match self {
  612|  3.92k|            Self::Or(_, _) => 2,
  613|  4.26k|            Self::And(_, _) => 3,
  614|  4.40k|            Self::Comparison(_) => 4,
  615|  4.26k|            Self::Not(_) => 5,
  616|  2.55k|            Self::Test(_) => 10,
  617|       |        }
  618|  19.4k|    }
_RNvMsn_Cs4qtBjdjJOwX_15rsonpath_syntaxNtB5_13JsonPathQuery15try_to_singular:
  815|  4.60k|    fn try_to_singular(self) -> std::result::Result<SingularJsonPathQuery, Self> {
  816|  4.60k|        if self.segments.iter().all(Segment::is_singular) {
  817|  4.60k|            let mut singular_segments = Vec::with_capacity(self.segments.len());
  818|  15.7k|            for segment in self.segments {
  819|  11.1k|                singular_segments.push(segment.into_singular());
  820|  11.1k|            }
  821|  4.60k|            Ok(SingularJsonPathQuery {
  822|  4.60k|                segments: singular_segments,
  823|  4.60k|            })
  824|       |        } else {
  825|      0|            Err(self)
  826|       |        }
  827|  4.60k|    }
_RNvMsp_Cs4qtBjdjJOwX_15rsonpath_syntaxNtB5_7Segment11is_singular:
  877|  22.3k|    fn is_singular(&self) -> bool {
  878|  22.3k|        match self {
  879|  22.3k|            Self::Child(s) => s.len() == 1 && s.first().is_singular(),
  880|      0|            Self::Descendant(_) => false,
  881|       |        }
  882|  22.3k|    }
_RNvMsp_Cs4qtBjdjJOwX_15rsonpath_syntaxNtB5_7Segment13into_singular:
  884|  11.1k|    fn into_singular(self) -> SingularSegment {
  885|  11.1k|        assert!(self.is_singular(), "forcing a non-singular segment, this is a bug");
  886|  11.1k|        match self {
  887|  11.1k|            Self::Child(mut s) => match s.inner.drain(..).next().expect("is_singular") {
  888|  4.47k|                Selector::Name(n) => SingularSegment::Name(n),
  889|  6.71k|                Selector::Index(i) => SingularSegment::Index(i),
  890|      0|                _ => unreachable!(),
  891|       |            },
  892|      0|            Self::Descendant(_) => unreachable!(),
  893|       |        }
  894|  11.1k|    }
_RNvMsq_Cs4qtBjdjJOwX_15rsonpath_syntaxNtB5_9Selectors4manyB5_:
  916|  32.5k|    pub fn many(vec: Vec<Selector>) -> Self {
  917|  32.5k|        assert!(!vec.is_empty(), "cannot create an empty Selectors collection");
  918|  32.5k|        Self { inner: vec }
  919|  32.5k|    }
_RNvMsq_Cs4qtBjdjJOwX_15rsonpath_syntaxNtB5_9Selectors5firstB5_:
  924|  22.3k|    pub fn first(&self) -> &Selector {
  925|  22.3k|        &self.inner[0]
  926|  22.3k|    }
_RNvMsr_Cs4qtBjdjJOwX_15rsonpath_syntaxNtB5_8Selector11is_singular:
 1008|  22.3k|    fn is_singular(&self) -> bool {
 1009|  22.3k|        matches!(self, Self::Name(_) | Self::Index(_))
 1010|  22.3k|    }
_RNvXs6_Cs4qtBjdjJOwX_15rsonpath_syntaxNtB5_8SelectorINtNtCs6SNw0SRvItZ_4core7convert4FromNtB5_11LogicalExprE4fromB5_:
  394|  4.21k|    fn from(value: LogicalExpr) -> Self {
  395|  4.21k|        Self::Filter(value)
  396|  4.21k|    }
_RNvXsa_Cs4qtBjdjJOwX_15rsonpath_syntaxNtB5_5SliceNtNtCs6SNw0SRvItZ_4core7default7Default7defaultB5_:
  519|  1.85k|    fn default() -> Self {
  520|  1.85k|        Self {
  521|  1.85k|            start: Index::FromStart(0.into()),
  522|  1.85k|            end: None,
  523|  1.85k|            step: Step::Forward(1.into()),
  524|  1.85k|        }
  525|  1.85k|    }
_RNvXsu_Cs4qtBjdjJOwX_15rsonpath_syntaxNtB5_9SelectorsNtNtNtCs6SNw0SRvItZ_4core3ops5deref5Deref5deref:
 1077|  22.3k|    fn deref(&self) -> &Self::Target {
 1078|  22.3k|        &self.inner
 1079|  22.3k|    }
_RNvXse_Cs4qtBjdjJOwX_15rsonpath_syntaxNtB5_7LiteralINtNtCs6SNw0SRvItZ_4core7convert4FromNtNtB5_3num10JsonNumberE4from:
  569|    916|    fn from(value: num::JsonNumber) -> Self {
  570|    916|        Self::Number(value)
  571|    916|    }
_RNvXsi_Cs4qtBjdjJOwX_15rsonpath_syntaxNtB5_10ComparableINtNtCs6SNw0SRvItZ_4core7convert4FromNtB5_7LiteralE4from:
  728|  2.89k|    fn from(value: Literal) -> Self {
  729|  2.89k|        Self::Literal(value)
  730|  2.89k|    }

_RNvMsb_NtCs4qtBjdjJOwX_15rsonpath_syntax3numNtB5_10JsonNumber9normalizeCs3eoZzJAlGP8_21query_fuzz_round_trip:
  612|  1.83k|    pub fn normalize(&self) -> Self {
  613|  1.83k|        match *self {
  614|  1.19k|            Self::Int(x) => Self::Int(x),
  615|    640|            Self::Float(x) => match JsonInt::try_from(x) {
  616|     30|                Ok(int) => Self::Int(int),
  617|    610|                Err(_) => Self::Float(x),
  618|       |            },
  619|       |        }
  620|  1.83k|    }
_RNvXs2_NtCs4qtBjdjJOwX_15rsonpath_syntax3numNtB5_10JsonNumberNtNtCs6SNw0SRvItZ_4core3cmp9PartialEq2eqCs3eoZzJAlGP8_21query_fuzz_round_trip:
  198|    916|    fn eq(&self, other: &Self) -> bool {
  199|    916|        match (self.normalize(), other.normalize()) {
  200|    611|            (Self::Int(l0), Self::Int(r0)) => l0 == r0,
  201|    305|            (Self::Float(l0), Self::Float(r0)) => l0 == r0,
  202|      0|            _ => false,
  203|       |        }
  204|    916|    }
_RNvXsA_NtCs4qtBjdjJOwX_15rsonpath_syntax3numNtB5_7JsonIntINtNtCs6SNw0SRvItZ_4core7convert7TryFromNtB5_9JsonFloatE8try_fromCs3eoZzJAlGP8_21query_fuzz_round_trip:
  877|    640|    fn try_from(value: JsonFloat) -> Result<Self, Self::Error> {
  878|    640|        if value.0.fract() != 0.0 {
  879|    292|            return Err(JsonIntOverflowError::fractional(value.0));
  880|    348|        }
  881|       |        // At this point the fractional part must be 0.0, so the value is *an* integer.
  882|       |        // We need to check that it is within bounds of JsonInt. This is correct
  883|       |        // only because JsonInt bounds are guaranteed to be interoperable with f64,
  884|       |        // so every value within is exactly representable as a f64.
  885|    348|        let int_value = value.0.trunc();
  886|    348|        if int_value < JSON_INT_LOWER_LIMIT as f64 {
  887|     86|            return Err(JsonIntOverflowError::int_float_neg_overflow(value.0));
  888|    262|        }
  889|    262|        if int_value > JSON_INT_UPPER_LIMIT as f64 {
  890|    232|            return Err(JsonIntOverflowError::int_float_pos_overflow(value.0));
  891|     30|        }
  892|       |
  893|       |        // This conversion is now guaranteed to be lossless.
  894|     30|        Ok(Self(int_value as i64))
  895|    640|    }
_RNvXsI_NtCs4qtBjdjJOwX_15rsonpath_syntax3numNtB5_7JsonIntNtNtCs6SNw0SRvItZ_4core3fmt7Display3fmtCs3eoZzJAlGP8_21query_fuzz_round_trip:
 1061|    581|    fn fmt(&self, f: &mut Formatter<'_>) -> fmt::Result {
 1062|    581|        write!(f, "{}", self.0)
 1063|    581|    }
_RNvXsJ_NtCs4qtBjdjJOwX_15rsonpath_syntax3numNtB5_8JsonUIntNtNtCs6SNw0SRvItZ_4core3fmt7Display3fmtCs3eoZzJAlGP8_21query_fuzz_round_trip:
 1068|  4.56k|    fn fmt(&self, f: &mut Formatter<'_>) -> fmt::Result {
 1069|  4.56k|        write!(f, "{}", self.0)
 1070|  4.56k|    }
_RNvXsK_NtCs4qtBjdjJOwX_15rsonpath_syntax3numNtB5_15JsonNonZeroUIntNtNtCs6SNw0SRvItZ_4core3fmt7Display3fmtCs3eoZzJAlGP8_21query_fuzz_round_trip:
 1075|  5.50k|    fn fmt(&self, f: &mut Formatter<'_>) -> fmt::Result {
 1076|  5.50k|        write!(f, "{}", self.0)
 1077|  5.50k|    }
_RNvXsL_NtCs4qtBjdjJOwX_15rsonpath_syntax3numNtB5_9JsonFloatNtNtCs6SNw0SRvItZ_4core3fmt7Display3fmtCs3eoZzJAlGP8_21query_fuzz_round_trip:
 1082|    335|    fn fmt(&self, f: &mut Formatter<'_>) -> fmt::Result {
 1083|    335|        write!(f, "{}", self.0)
 1084|    335|    }
_RNvXsM_NtCs4qtBjdjJOwX_15rsonpath_syntax3numNtB5_10JsonNumberNtNtCs6SNw0SRvItZ_4core3fmt7Display3fmtCs3eoZzJAlGP8_21query_fuzz_round_trip:
 1089|    916|    fn fmt(&self, f: &mut Formatter<'_>) -> fmt::Result {
 1090|    916|        match self {
 1091|    581|            Self::Int(int) => int.fmt(f),
 1092|    335|            Self::Float(flt) => flt.fmt(f),
 1093|       |        }
 1094|    916|    }
_RNvMs7_NtCs4qtBjdjJOwX_15rsonpath_syntax3numNtB5_7JsonInt6as_i64:
  334|  31.3k|    pub const fn as_i64(&self) -> i64 {
  335|  31.3k|        self.0
  336|  31.3k|    }
_RNvMs7_NtCs4qtBjdjJOwX_15rsonpath_syntax3numNtB5_7JsonInt3abs:
  366|  15.5k|    pub const fn abs(&self) -> JsonUInt {
  367|  15.5k|        JsonUInt(self.0.unsigned_abs())
  368|  15.5k|    }
_RNvXsD_NtCs4qtBjdjJOwX_15rsonpath_syntax3numNtB5_9JsonFloatINtNtCs6SNw0SRvItZ_4core7convert7TryFromdE8try_fromCscZPHoD06VRW_17rsonpath_lib_fuzz:
  922|    335|    fn try_from(value: f64) -> Result<Self, Self::Error> {
  923|    335|        if value.is_finite() {
  924|    335|            Ok(Self::new(value))
  925|       |        } else {
  926|      0|            Err(JsonFloatConvertError::infinite_or_nan(value))
  927|       |        }
  928|    335|    }
_RNvXsF_NtCs4qtBjdjJOwX_15rsonpath_syntax3numNtB5_10JsonNumberINtNtCs6SNw0SRvItZ_4core7convert4FromNtB5_7JsonIntE4fromCscZPHoD06VRW_17rsonpath_lib_fuzz:
 1035|    581|    fn from(value: JsonInt) -> Self {
 1036|    581|        Self::Int(value)
 1037|    581|    }
_RNvXsG_NtCs4qtBjdjJOwX_15rsonpath_syntax3numNtB5_10JsonNumberINtNtCs6SNw0SRvItZ_4core7convert4FromNtB5_9JsonFloatE4fromCscZPHoD06VRW_17rsonpath_lib_fuzz:
 1042|    335|    fn from(value: JsonFloat) -> Self {
 1043|    335|        Self::Float(value)
 1044|    335|    }
_RNvXsc_NtCs4qtBjdjJOwX_15rsonpath_syntax3numNtB5_7JsonIntINtNtCs6SNw0SRvItZ_4core7convert7TryFromxE8try_fromCscZPHoD06VRW_17rsonpath_lib_fuzz:
  627|  10.6k|    fn try_from(value: i64) -> Result<Self, Self::Error> {
  628|  10.6k|        if value > JSON_INT_UPPER_LIMIT {
  629|      0|            Err(JsonIntOverflowError::int_pos_overflow(value))
  630|  10.6k|        } else if value < JSON_INT_LOWER_LIMIT {
  631|      0|            Err(JsonIntOverflowError::int_neg_overflow(value))
  632|       |        } else {
  633|  10.6k|            Ok(Self::new(value))
  634|       |        }
  635|  10.6k|    }
_RNvMs7_NtCs4qtBjdjJOwX_15rsonpath_syntax3numNtB5_7JsonInt3new:
  290|  20.7k|    const fn new(index: i64) -> Self {
  291|  20.7k|        Self(index)
  292|  20.7k|    }
_RNvMs8_NtCs4qtBjdjJOwX_15rsonpath_syntax3numNtB5_8JsonUInt3new:
  404|  11.9k|    const fn new(index: u64) -> Self {
  405|  11.9k|        Self(index)
  406|  11.9k|    }
_RNvMsa_NtCs4qtBjdjJOwX_15rsonpath_syntax3numNtB5_9JsonFloat3new:
  510|    335|    fn new(x: f64) -> Self {
  511|    335|        debug_assert!(x.is_finite(), "attempt to create a JsonFloat from inf/-inf or NaN");
  512|    335|        Self(x)
  513|    335|    }
_RNvMsb_NtCs4qtBjdjJOwX_15rsonpath_syntax3numNtB5_10JsonNumber9normalizeB7_:
  612|    916|    pub fn normalize(&self) -> Self {
  613|    916|        match *self {
  614|      0|            Self::Int(x) => Self::Int(x),
  615|    916|            Self::Float(x) => match JsonInt::try_from(x) {
  616|    611|                Ok(int) => Self::Int(int),
  617|    305|                Err(_) => Self::Float(x),
  618|       |            },
  619|       |        }
  620|    916|    }
_RNvXsA_NtCs4qtBjdjJOwX_15rsonpath_syntax3numNtB5_7JsonIntINtNtCs6SNw0SRvItZ_4core7convert7TryFromNtB5_9JsonFloatE8try_fromB7_:
  877|    916|    fn try_from(value: JsonFloat) -> Result<Self, Self::Error> {
  878|    916|        if value.0.fract() != 0.0 {
  879|    146|            return Err(JsonIntOverflowError::fractional(value.0));
  880|    770|        }
  881|       |        // At this point the fractional part must be 0.0, so the value is *an* integer.
  882|       |        // We need to check that it is within bounds of JsonInt. This is correct
  883|       |        // only because JsonInt bounds are guaranteed to be interoperable with f64,
  884|       |        // so every value within is exactly representable as a f64.
  885|    770|        let int_value = value.0.trunc();
  886|    770|        if int_value < JSON_INT_LOWER_LIMIT as f64 {
  887|     43|            return Err(JsonIntOverflowError::int_float_neg_overflow(value.0));
  888|    727|        }
  889|    727|        if int_value > JSON_INT_UPPER_LIMIT as f64 {
  890|    116|            return Err(JsonIntOverflowError::int_float_pos_overflow(value.0));
  891|    611|        }
  892|       |
  893|       |        // This conversion is now guaranteed to be lossless.
  894|    611|        Ok(Self(int_value as i64))
  895|    916|    }
_RNvXsE_NtCs4qtBjdjJOwX_15rsonpath_syntax3numNtB5_9JsonFloatNtNtNtCs6SNw0SRvItZ_4core3str6traits7FromStr8from_strB7_:
  987|    916|    fn from_str(s: &str) -> Result<Self, Self::Err> {
  988|    916|        match f64::from_str(s) {
  989|    916|            Ok(x) => {
  990|    916|                assert!(
  991|    916|                    !s.is_empty(),
  992|      0|                    "empty strings are not accepted by f64::from_str, this is impossible"
  993|       |                );
  994|       |                // Rule 1.
  995|    916|                if x.is_nan() || x.is_infinite() {
  996|      0|                    return Err(Self::Err::infinite_or_nan(s));
  997|    916|                }
  998|    916|                if let Some((before, after)) = s.split_once('.') {
  999|       |                    // Rule 3. The case `before == "+"` is checked later.
 1000|    146|                    if before.is_empty() || before == "-" {
 1001|      0|                        return Err(Self::Err::nothing_before_decimal_point(s));
 1002|    146|                    }
 1003|       |                    // Rule 4.
 1004|    146|                    if after.is_empty() || after.starts_with(['e', 'E']) {
 1005|      0|                        return Err(Self::Err::nothing_after_decimal_point(s));
 1006|    146|                    }
 1007|    770|                }
 1008|    916|                let mut chars = s.chars();
 1009|    916|                let first_c = chars.next().expect("s is non-empty");
 1010|       |                // Rule 2.
 1011|    916|                if first_c == '+' {
 1012|      0|                    return Err(Self::Err::leading_plus_sign(s));
 1013|    916|                }
 1014|       |                // Skip the leading minus if it exists.
 1015|    916|                let s_no_sign = if first_c == '-' { chars.as_str() } else { s };
 1016|       |                // Rule 5.
 1017|       |                // Check for leading zeroes. We strip the first zero from the front and check what's left.
 1018|       |                // The only acceptable case is that the next character is not a digit.
 1019|    916|                if let Some(rest) = s_no_sign.strip_prefix('0') {
 1020|    156|                    if matches!(rest.chars().next(), Some('0'..='9')) {
 1021|      0|                        return Err(Self::Err::leading_zeros(s));
 1022|    156|                    }
 1023|    760|                }
 1024|    916|                Ok(Self(x))
 1025|       |            }
 1026|       |            // Remember that all floats valid in JSON are also accepted by Rust,
 1027|       |            // so this is *definitely* not a valid JSON float.
 1028|      0|            Err(_) => Err(Self::Err::f64_parse_error(s)),
 1029|       |        }
 1030|    916|    }
_RNvXsG_NtCs4qtBjdjJOwX_15rsonpath_syntax3numNtB5_10JsonNumberINtNtCs6SNw0SRvItZ_4core7convert4FromNtB5_9JsonFloatE4fromB7_:
 1042|    916|    fn from(value: JsonFloat) -> Self {
 1043|    916|        Self::Float(value)
 1044|    916|    }
_RNvXsc_NtCs4qtBjdjJOwX_15rsonpath_syntax3numNtB5_7JsonIntINtNtCs6SNw0SRvItZ_4core7convert7TryFromxE8try_fromB7_:
  627|  10.0k|    fn try_from(value: i64) -> Result<Self, Self::Error> {
  628|  10.0k|        if value > JSON_INT_UPPER_LIMIT {
  629|      0|            Err(JsonIntOverflowError::int_pos_overflow(value))
  630|  10.0k|        } else if value < JSON_INT_LOWER_LIMIT {
  631|      0|            Err(JsonIntOverflowError::int_neg_overflow(value))
  632|       |        } else {
  633|  10.0k|            Ok(Self::new(value))
  634|       |        }
  635|  10.0k|    }
_RNvXsi_NtCs4qtBjdjJOwX_15rsonpath_syntax3numNtB5_7JsonIntNtNtNtCs6SNw0SRvItZ_4core3str6traits7FromStr8from_strB7_:
  686|  10.0k|    fn from_str(s: &str) -> Result<Self, Self::Err> {
  687|  10.0k|        match i64::from_str(s) {
  688|  10.0k|            Ok(x) => x.try_into().map_err(|e| Self::Err::parse_conversion_err(s, &e)),
  689|      0|            Err(err) => Err(Self::Err::int_parse_error(s, err.kind())),
  690|       |        }
  691|  10.0k|    }
_RNvXsl_NtCs4qtBjdjJOwX_15rsonpath_syntax3numNtB5_8JsonUIntINtNtCs6SNw0SRvItZ_4core7convert4FrommE4fromB7_:
  723|  7.42k|    fn from(value: u32) -> Self {
  724|  7.42k|        Self::new(u64::from(value))
  725|  7.42k|    }
_RNvXsp_NtCs4qtBjdjJOwX_15rsonpath_syntax3numNtB5_8JsonUIntINtNtCs6SNw0SRvItZ_4core7convert7TryFromNtB5_7JsonIntE8try_fromB7_:
  760|  10.0k|    fn try_from(value: JsonInt) -> Result<Self, Self::Error> {
  761|  10.0k|        if value.0 < 0 {
  762|  5.50k|            Err(JsonIntOverflowError::negative_uint(value.0))
  763|       |        } else {
  764|  4.56k|            Ok(Self::new(value.0 as u64))
  765|       |        }
  766|  10.0k|    }
_RNvXsu_NtCs4qtBjdjJOwX_15rsonpath_syntax3numNtB5_15JsonNonZeroUIntINtNtCs6SNw0SRvItZ_4core7convert7TryFromlE8try_fromB7_:
  811|    690|    fn try_from(value: i32) -> Result<Self, Self::Error> {
  812|    690|        Self::try_from(i64::from(value))
  813|    690|    }
_RNvXsv_NtCs4qtBjdjJOwX_15rsonpath_syntax3numNtB5_15JsonNonZeroUIntINtNtCs6SNw0SRvItZ_4core7convert7TryFromyE8try_fromB7_:
  820|  11.6k|    fn try_from(value: u64) -> Result<Self, Self::Error> {
  821|  11.6k|        if value > JSON_UINT_UPPER_LIMIT {
  822|      0|            Err(JsonIntOverflowError::uint_pos_overflow(value))
  823|  11.6k|        } else if let Some(x) = NonZeroU64::new(value) {
  824|  11.6k|            Ok(Self(x))
  825|       |        } else {
  826|      0|            Err(JsonIntOverflowError::zero_non_zero_uint())
  827|       |        }
  828|  11.6k|    }
_RNvXsw_NtCs4qtBjdjJOwX_15rsonpath_syntax3numNtB5_15JsonNonZeroUIntINtNtCs6SNw0SRvItZ_4core7convert7TryFromxE8try_fromB7_:
  835|    690|    fn try_from(value: i64) -> Result<Self, Self::Error> {
  836|    690|        if value < 0 {
  837|      0|            Err(JsonIntOverflowError::negative_uint(value))
  838|       |        } else {
  839|    690|            Self::try_from(value as u64)
  840|       |        }
  841|    690|    }
_RNvXsx_NtCs4qtBjdjJOwX_15rsonpath_syntax3numNtB5_15JsonNonZeroUIntINtNtCs6SNw0SRvItZ_4core7convert7TryFromNtB5_8JsonUIntE8try_fromB7_:
  848|  11.0k|    fn try_from(value: JsonUInt) -> Result<Self, Self::Error> {
  849|  11.0k|        Self::try_from(value.0)
  850|  11.0k|    }

_RNvMNtNtCs4qtBjdjJOwX_15rsonpath_syntax3num5errorNtB2_20JsonIntOverflowError10fractional:
   75|    438|    pub(crate) fn fractional(src: f64) -> Self {
   76|    438|        Self {
   77|    438|            kind: JsonIntOverflowKind::Fractional(src),
   78|    438|        }
   79|    438|    }
_RNvMNtNtCs4qtBjdjJOwX_15rsonpath_syntax3num5errorNtB2_20JsonIntOverflowError13negative_uint:
   63|  5.50k|    pub(crate) fn negative_uint(src: i64) -> Self {
   64|  5.50k|        Self {
   65|  5.50k|            kind: JsonIntOverflowKind::UIntNeg(src),
   66|  5.50k|        }
   67|  5.50k|    }
_RNvMNtNtCs4qtBjdjJOwX_15rsonpath_syntax3num5errorNtB2_20JsonIntOverflowError22int_float_neg_overflow:
   87|    129|    pub(crate) fn int_float_neg_overflow(src: f64) -> Self {
   88|    129|        Self {
   89|    129|            kind: JsonIntOverflowKind::FloatNeg(src),
   90|    129|        }
   91|    129|    }
_RNvMNtNtCs4qtBjdjJOwX_15rsonpath_syntax3num5errorNtB2_20JsonIntOverflowError22int_float_pos_overflow:
   81|    348|    pub(crate) fn int_float_pos_overflow(src: f64) -> Self {
   82|    348|        Self {
   83|    348|            kind: JsonIntOverflowKind::FloatPos(src),
   84|    348|        }
   85|    348|    }

_RINvNCNvNtCs4qtBjdjJOwX_15rsonpath_syntax6parser6string020read_escape_sequenceNtNtNtCs6SNw0SRvItZ_4core3str4iter11CharIndicesEB8_:
  818|  4.00k|        fn read_escape_sequence<I>(
  819|  4.00k|            q_len: usize,
  820|  4.00k|            c_idx: usize,
  821|  4.00k|            chars: &mut Peekable<I>,
  822|  4.00k|            mode: StringParseMode,
  823|  4.00k|        ) -> std::result::Result<char, SyntaxError>
  824|  4.00k|        where
  825|  4.00k|            I: Iterator<Item = (usize, char)>,
  826|       |        {
  827|  4.00k|            let (i, ctrl) = chars.next().ok_or(SyntaxError::new(
  828|  4.00k|                SyntaxErrorKind::InvalidUnescapedCharacter,
  829|  4.00k|                q_len - c_idx,
  830|       |                1,
  831|      0|            ))?;
  832|    310|            match ctrl {
  833|       |                'u' => {
  834|  1.30k|                    let raw_c = read_hexadecimal_escape(q_len, i, chars)?;
  835|  1.30k|                    match raw_c {
  836|       |                        // High surrogate, start of a UTF-16 pair.
  837|      0|                        0xD800..=0xDBFF => {
  838|      0|                            let &(_, next) = chars.peek().ok_or(SyntaxError::new(
  839|      0|                                SyntaxErrorKind::UnpairedHighSurrogate,
  840|      0|                                q_len - c_idx,
  841|       |                                6,
  842|      0|                            ))?;
  843|      0|                            if next != '\\' {
  844|      0|                                return Err(SyntaxError::new(
  845|      0|                                    SyntaxErrorKind::UnpairedHighSurrogate,
  846|      0|                                    q_len - c_idx,
  847|      0|                                    6,
  848|      0|                                ));
  849|      0|                            }
  850|      0|                            chars.next();
  851|      0|                            let (i, next) = chars.next().ok_or(SyntaxError::new(
  852|      0|                                SyntaxErrorKind::UnpairedHighSurrogate,
  853|      0|                                q_len - c_idx,
  854|       |                                6,
  855|      0|                            ))?;
  856|      0|                            if next != 'u' {
  857|      0|                                return Err(SyntaxError::new(
  858|      0|                                    SyntaxErrorKind::UnpairedHighSurrogate,
  859|      0|                                    q_len - c_idx,
  860|      0|                                    6,
  861|      0|                                ));
  862|      0|                            }
  863|      0|                            let low = read_hexadecimal_escape(q_len, i, chars)?;
  864|      0|                            match low {
  865|      0|                                0xDC00..=0xDFFF => {
  866|      0|                                    let n = (((raw_c - 0xD800) << 10) | (low - 0xDC00)) + 0x10000;
  867|      0|                                    Ok(char::from_u32(n).expect("high and low surrogate pair is always a valid char"))
  868|       |                                }
  869|      0|                                _ => Err(SyntaxError::new(
  870|      0|                                    SyntaxErrorKind::UnpairedHighSurrogate,
  871|      0|                                    q_len - c_idx,
  872|      0|                                    6,
  873|      0|                                )),
  874|       |                            }
  875|       |                        }
  876|       |                        // Low surrogate, invalid escape sequence.
  877|      0|                        0xDC00..=0xDFFF => Err(SyntaxError::new(
  878|      0|                            SyntaxErrorKind::UnpairedLowSurrogate,
  879|      0|                            q_len - c_idx,
  880|      0|                            6,
  881|      0|                        )),
  882|  1.30k|                        _ => Ok(char::from_u32(raw_c).expect("invalid values are handled above")),
  883|       |                    }
  884|       |                }
  885|    205|                'b' => Ok('\u{0008}'), // U+0008 BS backspace
  886|    179|                't' => Ok('\t'),       // U+0009 HT horizontal tab
  887|    342|                'n' => Ok('\n'),       // U+000A LF line feed
  888|    397|                'f' => Ok('\u{000C}'), // U+000C FF form feed
  889|    526|                'r' => Ok('\r'),       // U+000D CR carriage return
  890|    310|                '"' if mode == StringParseMode::DoubleQuoted => Ok(ctrl),
  891|    315|                '\'' if mode == StringParseMode::SingleQuoted => Ok(ctrl),
  892|    417|                '/' | '\\' => Ok(ctrl), // " ' / \ are passed as is
  893|      0|                _ => Err(SyntaxError::new(
  894|      0|                    SyntaxErrorKind::InvalidEscapeSequence,
  895|      0|                    q_len - c_idx,
  896|      0|                    2,
  897|      0|                )), // no other escape sequences are allowed
  898|       |            }
  899|  4.00k|        }
_RINvNCNvNtCs4qtBjdjJOwX_15rsonpath_syntax6parser6string023read_hexadecimal_escapeNtNtNtCs6SNw0SRvItZ_4core3str4iter11CharIndicesEB8_:
  901|  1.30k|        fn read_hexadecimal_escape<I>(
  902|  1.30k|            q_len: usize,
  903|  1.30k|            c_idx: usize,
  904|  1.30k|            chars: &mut Peekable<I>,
  905|  1.30k|        ) -> std::result::Result<u32, SyntaxError>
  906|  1.30k|        where
  907|  1.30k|            I: Iterator<Item = (usize, char)>,
  908|       |        {
  909|  1.30k|            let mut x = 0;
  910|  6.54k|            for i in 0..4 {
  911|  5.23k|                let &(_, c) = chars.peek().ok_or(SyntaxError::new(
  912|  5.23k|                    SyntaxErrorKind::InvalidEscapeSequence,
  913|  5.23k|                    q_len - c_idx + 1,
  914|  5.23k|                    2 + i,
  915|      0|                ))?;
  916|  5.23k|                let v = match c {
  917|  5.23k|                    '0'..='9' => c as u32 - '0' as u32,
  918|       |                    // RFC8259.7-2 The hexadecimal letters A through F can be uppercase or lowercase.
  919|    213|                    'a'..='f' => c as u32 - 'a' as u32 + 10,
  920|      0|                    'A'..='F' => c as u32 - 'A' as u32 + 10,
  921|       |                    _ => {
  922|      0|                        return Err(SyntaxError::new(
  923|      0|                            SyntaxErrorKind::InvalidHexDigitInUnicodeEscape,
  924|      0|                            q_len - c_idx - i - 1,
  925|      0|                            1,
  926|      0|                        ))
  927|       |                    }
  928|       |                };
  929|  5.23k|                x <<= 4;
  930|  5.23k|                x += v;
  931|  5.23k|                chars.next();
  932|       |            }
  933|  1.30k|            Ok(x)
  934|  1.30k|        }
_RINvNtCs4qtBjdjJOwX_15rsonpath_syntax6parser14failed_segmentNtB4_7SegmentEB4_:
  185|  2.96k|fn failed_segment<T>(kind: SyntaxErrorKind) -> impl FnMut(&str) -> IResult<&str, T, InternalParseError<'_>> {
  186|       |    move |q: &str| {
  187|       |        // Special case when the error span starts with a bunch of periods.
  188|       |        // The best error message to display is to skip all those periods and try to recover after.
  189|       |        // This handles cases like e.g. `$....a`, where we will highlight `..a` as the error and
  190|       |        // try to continue from there. We also handle this as a separate suggestion to remove extraneous periods.
  191|       |        let rest = if q.starts_with('.') {
  192|       |            q.trim_start_matches('.')
  193|       |        } else {
  194|       |            skip_one(q)
  195|       |        }
  196|       |        .trim_start_matches(|x| x != '.' && x != '[');
  197|       |        // Don't highlight leading whitespace in an error.
  198|       |        // This logic is duplicated with failed_selector, but I didn't find a way to extract this logic that wouldn't
  199|       |        // make it actually *harder* to follow wtf is happening in the code, so...
  200|       |        let error_len = q.len() - rest.len();
  201|       |        let error_span = &q[..error_len];
  202|       |        if error_span.chars().all(|x| [' ', '\n', '\r', '\t'].contains(&x)) {
  203|       |            // Special case for a completely empty selector where we don't want to ignore whitespace.
  204|       |            fail(SyntaxErrorKind::EmptySelector, q.len() + 1, error_len + 2, rest)
  205|       |        } else {
  206|       |            // Don't highlight leading whitespace in an error.
  207|       |            let meaningful_span = skip_whitespace(error_span);
  208|       |            let skipped_whitespace_len = error_span.len() - meaningful_span.len();
  209|       |            let trimmed_span = meaningful_span.trim_end_matches(JSONPATH_WHITESPACE);
  210|       |            fail(kind.clone(), q.len() - skipped_whitespace_len, trimmed_span.len(), rest)
  211|       |        }
  212|       |    }
  213|  2.96k|}
_RINvNtCs4qtBjdjJOwX_15rsonpath_syntax6parser14failed_segmentNtB4_9SelectorsEB4_:
  185|  40.1k|fn failed_segment<T>(kind: SyntaxErrorKind) -> impl FnMut(&str) -> IResult<&str, T, InternalParseError<'_>> {
  186|       |    move |q: &str| {
  187|       |        // Special case when the error span starts with a bunch of periods.
  188|       |        // The best error message to display is to skip all those periods and try to recover after.
  189|       |        // This handles cases like e.g. `$....a`, where we will highlight `..a` as the error and
  190|       |        // try to continue from there. We also handle this as a separate suggestion to remove extraneous periods.
  191|       |        let rest = if q.starts_with('.') {
  192|       |            q.trim_start_matches('.')
  193|       |        } else {
  194|       |            skip_one(q)
  195|       |        }
  196|       |        .trim_start_matches(|x| x != '.' && x != '[');
  197|       |        // Don't highlight leading whitespace in an error.
  198|       |        // This logic is duplicated with failed_selector, but I didn't find a way to extract this logic that wouldn't
  199|       |        // make it actually *harder* to follow wtf is happening in the code, so...
  200|       |        let error_len = q.len() - rest.len();
  201|       |        let error_span = &q[..error_len];
  202|       |        if error_span.chars().all(|x| [' ', '\n', '\r', '\t'].contains(&x)) {
  203|       |            // Special case for a completely empty selector where we don't want to ignore whitespace.
  204|       |            fail(SyntaxErrorKind::EmptySelector, q.len() + 1, error_len + 2, rest)
  205|       |        } else {
  206|       |            // Don't highlight leading whitespace in an error.
  207|       |            let meaningful_span = skip_whitespace(error_span);
  208|       |            let skipped_whitespace_len = error_span.len() - meaningful_span.len();
  209|       |            let trimmed_span = meaningful_span.trim_end_matches(JSONPATH_WHITESPACE);
  210|       |            fail(kind.clone(), q.len() - skipped_whitespace_len, trimmed_span.len(), rest)
  211|       |        }
  212|       |    }
  213|  40.1k|}
_RINvNtCs4qtBjdjJOwX_15rsonpath_syntax6parser17ignore_whitespaceINtNtCs6SNw0SRvItZ_4core6option6OptionReEINtNtCsaZdo92nHnrg_3nom8sequence8PrecededNCINvNtNtB1J_9character8complete4charB1B_NtNtB4_5error18InternalParseErrorE0INtNtB1J_10combinator3OptNCIB0_B1B_NvB2_3intB2Y_E0EEB2Y_EB4_:
   21|  1.85k|fn ignore_whitespace<'a, T, F, E>(mut inner: F) -> impl FnMut(&'a str) -> IResult<&'a str, T, E>
   22|  1.85k|where
   23|  1.85k|    F: nom::Parser<&'a str, Output = T, Error = E>,
   24|       |{
   25|       |    move |q: &'a str| {
   26|       |        inner
   27|       |            .parse(skip_whitespace(q))
   28|       |            .map(|(rest, res)| (skip_whitespace(rest), res))
   29|       |    }
   30|  1.85k|}
_RINvNtCs4qtBjdjJOwX_15rsonpath_syntax6parser17ignore_whitespaceINtNtCs6SNw0SRvItZ_4core6option6OptioncEINtNtCsaZdo92nHnrg_3nom10combinator3OptNCINvNtNtB1I_9character8complete4charReNtNtB4_5error18InternalParseErrorE0EB2T_EB4_:
   21|  10.6k|fn ignore_whitespace<'a, T, F, E>(mut inner: F) -> impl FnMut(&'a str) -> IResult<&'a str, T, E>
   22|  10.6k|where
   23|  10.6k|    F: nom::Parser<&'a str, Output = T, Error = E>,
   24|       |{
   25|       |    move |q: &'a str| {
   26|       |        inner
   27|       |            .parse(skip_whitespace(q))
   28|       |            .map(|(rest, res)| (skip_whitespace(rest), res))
   29|       |    }
   30|  10.6k|}
_RINvNtCs4qtBjdjJOwX_15rsonpath_syntax6parser17ignore_whitespaceNtB4_11LogicalExprNCNvB2_12logical_expr0NtNtB4_5error18InternalParseErrorEB4_:
   21|  8.94k|fn ignore_whitespace<'a, T, F, E>(mut inner: F) -> impl FnMut(&'a str) -> IResult<&'a str, T, E>
   22|  8.94k|where
   23|  8.94k|    F: nom::Parser<&'a str, Output = T, Error = E>,
   24|       |{
   25|       |    move |q: &'a str| {
   26|       |        inner
   27|       |            .parse(skip_whitespace(q))
   28|       |            .map(|(rest, res)| (skip_whitespace(rest), res))
   29|       |    }
   30|  8.94k|}
_RINvNtCs4qtBjdjJOwX_15rsonpath_syntax6parser17ignore_whitespaceNtB4_11LogicalExprNCNvB2_12logical_exprs0_0NtNtB4_5error18InternalParseErrorEB4_:
   21|  1.53k|fn ignore_whitespace<'a, T, F, E>(mut inner: F) -> impl FnMut(&'a str) -> IResult<&'a str, T, E>
   22|  1.53k|where
   23|  1.53k|    F: nom::Parser<&'a str, Output = T, Error = E>,
   24|       |{
   25|       |    move |q: &'a str| {
   26|       |        inner
   27|       |            .parse(skip_whitespace(q))
   28|       |            .map(|(rest, res)| (skip_whitespace(rest), res))
   29|       |    }
   30|  1.53k|}
_RINvNtCs4qtBjdjJOwX_15rsonpath_syntax6parser17ignore_whitespaceNtB4_11LogicalExprNCNvB2_12logical_exprs_0NtNtB4_5error18InternalParseErrorEB4_:
   21|  1.69k|fn ignore_whitespace<'a, T, F, E>(mut inner: F) -> impl FnMut(&'a str) -> IResult<&'a str, T, E>
   22|  1.69k|where
   23|  1.69k|    F: nom::Parser<&'a str, Output = T, Error = E>,
   24|       |{
   25|       |    move |q: &'a str| {
   26|       |        inner
   27|       |            .parse(skip_whitespace(q))
   28|       |            .map(|(rest, res)| (skip_whitespace(rest), res))
   29|       |    }
   30|  1.69k|}
_RINvNtCs4qtBjdjJOwX_15rsonpath_syntax6parser17ignore_whitespaceNtB4_11LogicalExprNCNvB2_15filter_selector0NtNtB4_5error18InternalParseErrorEB4_:
   21|  4.21k|fn ignore_whitespace<'a, T, F, E>(mut inner: F) -> impl FnMut(&'a str) -> IResult<&'a str, T, E>
   22|  4.21k|where
   23|  4.21k|    F: nom::Parser<&'a str, Output = T, Error = E>,
   24|       |{
   25|       |    move |q: &'a str| {
   26|       |        inner
   27|       |            .parse(skip_whitespace(q))
   28|       |            .map(|(rest, res)| (skip_whitespace(rest), res))
   29|       |    }
   30|  4.21k|}
_RINvNtCs4qtBjdjJOwX_15rsonpath_syntax6parser17ignore_whitespaceNtB4_8SelectorNCNvB2_8selector0NtNtB4_5error18InternalParseErrorEB4_:
   21|  29.7k|fn ignore_whitespace<'a, T, F, E>(mut inner: F) -> impl FnMut(&'a str) -> IResult<&'a str, T, E>
   22|  29.7k|where
   23|  29.7k|    F: nom::Parser<&'a str, Output = T, Error = E>,
   24|       |{
   25|       |    move |q: &'a str| {
   26|       |        inner
   27|       |            .parse(skip_whitespace(q))
   28|       |            .map(|(rest, res)| (skip_whitespace(rest), res))
   29|       |    }
   30|  29.7k|}
_RINvNtCs4qtBjdjJOwX_15rsonpath_syntax6parser17ignore_whitespaceNtB4_8SelectorNvB2_13name_selectorNtNtB4_5error18InternalParseErrorEB4_:
   21|  29.7k|fn ignore_whitespace<'a, T, F, E>(mut inner: F) -> impl FnMut(&'a str) -> IResult<&'a str, T, E>
   22|  29.7k|where
   23|  29.7k|    F: nom::Parser<&'a str, Output = T, Error = E>,
   24|       |{
   25|       |    move |q: &'a str| {
   26|       |        inner
   27|       |            .parse(skip_whitespace(q))
   28|       |            .map(|(rest, res)| (skip_whitespace(rest), res))
   29|       |    }
   30|  29.7k|}
_RINvNtCs4qtBjdjJOwX_15rsonpath_syntax6parser17ignore_whitespaceNtB4_8SelectorNvB2_14index_selectorNtNtB4_5error18InternalParseErrorEB4_:
   21|  29.7k|fn ignore_whitespace<'a, T, F, E>(mut inner: F) -> impl FnMut(&'a str) -> IResult<&'a str, T, E>
   22|  29.7k|where
   23|  29.7k|    F: nom::Parser<&'a str, Output = T, Error = E>,
   24|       |{
   25|       |    move |q: &'a str| {
   26|       |        inner
   27|       |            .parse(skip_whitespace(q))
   28|       |            .map(|(rest, res)| (skip_whitespace(rest), res))
   29|       |    }
   30|  29.7k|}
_RINvNtCs4qtBjdjJOwX_15rsonpath_syntax6parser17ignore_whitespaceNtB4_8SelectorNvB2_14slice_selectorNtNtB4_5error18InternalParseErrorEB4_:
   21|  29.7k|fn ignore_whitespace<'a, T, F, E>(mut inner: F) -> impl FnMut(&'a str) -> IResult<&'a str, T, E>
   22|  29.7k|where
   23|  29.7k|    F: nom::Parser<&'a str, Output = T, Error = E>,
   24|       |{
   25|       |    move |q: &'a str| {
   26|       |        inner
   27|       |            .parse(skip_whitespace(q))
   28|       |            .map(|(rest, res)| (skip_whitespace(rest), res))
   29|       |    }
   30|  29.7k|}
_RINvNtCs4qtBjdjJOwX_15rsonpath_syntax6parser17ignore_whitespaceNtB4_8SelectorNvB2_17wildcard_selectorNtNtB4_5error18InternalParseErrorEB4_:
   21|  29.7k|fn ignore_whitespace<'a, T, F, E>(mut inner: F) -> impl FnMut(&'a str) -> IResult<&'a str, T, E>
   22|  29.7k|where
   23|  29.7k|    F: nom::Parser<&'a str, Output = T, Error = E>,
   24|       |{
   25|       |    move |q: &'a str| {
   26|       |        inner
   27|       |            .parse(skip_whitespace(q))
   28|       |            .map(|(rest, res)| (skip_whitespace(rest), res))
   29|       |    }
   30|  29.7k|}
_RINvNtCs4qtBjdjJOwX_15rsonpath_syntax6parser17ignore_whitespaceNtNvB2_12logical_expr9BooleanOpINtNtCsaZdo92nHnrg_3nom6branch6ChoiceTINtNtB1z_8internal3MapNCINvNtNtB1z_5bytes8complete3tagReB2Y_NtNtB4_5error18InternalParseErrorE0NCINvNtB1z_10combinator5valueB2Y_BZ_B34_B2s_E0EB26_EEB34_EB4_:
   21|  12.1k|fn ignore_whitespace<'a, T, F, E>(mut inner: F) -> impl FnMut(&'a str) -> IResult<&'a str, T, E>
   22|  12.1k|where
   23|  12.1k|    F: nom::Parser<&'a str, Output = T, Error = E>,
   24|       |{
   25|       |    move |q: &'a str| {
   26|       |        inner
   27|       |            .parse(skip_whitespace(q))
   28|       |            .map(|(rest, res)| (skip_whitespace(rest), res))
   29|       |    }
   30|  12.1k|}
_RINvNtCs4qtBjdjJOwX_15rsonpath_syntax6parser17ignore_whitespaceReNvB2_3intNtNtB4_5error18InternalParseErrorEB4_:
   21|  3.71k|fn ignore_whitespace<'a, T, F, E>(mut inner: F) -> impl FnMut(&'a str) -> IResult<&'a str, T, E>
   22|  3.71k|where
   23|  3.71k|    F: nom::Parser<&'a str, Output = T, Error = E>,
   24|       |{
   25|       |    move |q: &'a str| {
   26|       |        inner
   27|       |            .parse(skip_whitespace(q))
   28|       |            .map(|(rest, res)| (skip_whitespace(rest), res))
   29|       |    }
   30|  3.71k|}
_RINvNtCs4qtBjdjJOwX_15rsonpath_syntax6parser17ignore_whitespacecNCINvNtNtCsaZdo92nHnrg_3nom9character8complete4charReNtNtB4_5error18InternalParseErrorE0B1R_EB4_:
   21|  14.5k|fn ignore_whitespace<'a, T, F, E>(mut inner: F) -> impl FnMut(&'a str) -> IResult<&'a str, T, E>
   22|  14.5k|where
   23|  14.5k|    F: nom::Parser<&'a str, Output = T, Error = E>,
   24|       |{
   25|       |    move |q: &'a str| {
   26|       |        inner
   27|       |            .parse(skip_whitespace(q))
   28|       |            .map(|(rest, res)| (skip_whitespace(rest), res))
   29|       |    }
   30|  14.5k|}
_RINvNtCs4qtBjdjJOwX_15rsonpath_syntax6parser24failed_filter_expressionNtB4_10ComparableEB4_:
  660|  4.77k|fn failed_filter_expression<T>(kind: SyntaxErrorKind) -> impl FnMut(&str) -> IResult<&str, T, InternalParseError<'_>> {
  661|       |    move |q: &str| {
  662|       |        // We want to close the filter, so just try to find the next ']' or ','
  663|       |        let rest = skip_one(q).trim_start_matches(|x| x != ',' && x != ']');
  664|       |        fail(kind.clone(), q.len(), q.len() - rest.len(), rest)
  665|       |    }
  666|  4.77k|}
_RINvNtCs4qtBjdjJOwX_15rsonpath_syntax6parser28failed_segment_within_filterNtB4_7SegmentEB4_:
  648|  18.9k|fn failed_segment_within_filter<T>(
  649|  18.9k|    kind: SyntaxErrorKind,
  650|  18.9k|) -> impl FnMut(&str) -> IResult<&str, T, InternalParseError<'_>> {
  651|       |    move |q: &str| {
  652|       |        // We want to find the next segment or close the filter.
  653|       |        let rest = skip_one(q)
  654|       |            .trim_start_matches('.')
  655|       |            .trim_start_matches(|x| x != ',' && x != ']' && x != '.' && x != '[');
  656|       |        fail(kind.clone(), q.len(), q.len() - rest.len(), rest)
  657|       |    }
  658|  18.9k|}
_RNCINvNtCs4qtBjdjJOwX_15rsonpath_syntax6parser17ignore_whitespaceINtNtCs6SNw0SRvItZ_4core6option6OptionReEINtNtCsaZdo92nHnrg_3nom8sequence8PrecededNCINvNtNtB1L_9character8complete4charB1D_NtNtB6_5error18InternalParseErrorE0INtNtB1L_10combinator3OptNCIB2_B1D_NvB4_3intB30_E0EEB30_E0B6_:
   25|  1.85k|    move |q: &'a str| {
   26|  1.85k|        inner
   27|  1.85k|            .parse(skip_whitespace(q))
   28|  1.85k|            .map(|(rest, res)| (skip_whitespace(rest), res))
   29|  1.85k|    }
_RNCINvNtCs4qtBjdjJOwX_15rsonpath_syntax6parser17ignore_whitespaceINtNtCs6SNw0SRvItZ_4core6option6OptioncEINtNtCsaZdo92nHnrg_3nom10combinator3OptNCINvNtNtB1K_9character8complete4charReNtNtB6_5error18InternalParseErrorE0EB2V_E0B6_:
   25|  10.6k|    move |q: &'a str| {
   26|  10.6k|        inner
   27|  10.6k|            .parse(skip_whitespace(q))
   28|  10.6k|            .map(|(rest, res)| (skip_whitespace(rest), res))
   29|  10.6k|    }
_RNCINvNtCs4qtBjdjJOwX_15rsonpath_syntax6parser17ignore_whitespaceNtB6_11LogicalExprNCNvB4_12logical_expr0NtNtB6_5error18InternalParseErrorE0B6_:
   25|  8.94k|    move |q: &'a str| {
   26|  8.94k|        inner
   27|  8.94k|            .parse(skip_whitespace(q))
   28|  8.94k|            .map(|(rest, res)| (skip_whitespace(rest), res))
   29|  8.94k|    }
_RNCINvNtCs4qtBjdjJOwX_15rsonpath_syntax6parser17ignore_whitespaceNtB6_11LogicalExprNCNvB4_12logical_exprs0_0NtNtB6_5error18InternalParseErrorE0B6_:
   25|  1.53k|    move |q: &'a str| {
   26|  1.53k|        inner
   27|  1.53k|            .parse(skip_whitespace(q))
   28|  1.53k|            .map(|(rest, res)| (skip_whitespace(rest), res))
   29|  1.53k|    }
_RNCINvNtCs4qtBjdjJOwX_15rsonpath_syntax6parser17ignore_whitespaceNtB6_11LogicalExprNCNvB4_12logical_exprs_0NtNtB6_5error18InternalParseErrorE0B6_:
   25|  1.69k|    move |q: &'a str| {
   26|  1.69k|        inner
   27|  1.69k|            .parse(skip_whitespace(q))
   28|  1.69k|            .map(|(rest, res)| (skip_whitespace(rest), res))
   29|  1.69k|    }
_RNCINvNtCs4qtBjdjJOwX_15rsonpath_syntax6parser17ignore_whitespaceNtB6_11LogicalExprNCNvB4_15filter_selector0NtNtB6_5error18InternalParseErrorE0B6_:
   25|  4.21k|    move |q: &'a str| {
   26|  4.21k|        inner
   27|  4.21k|            .parse(skip_whitespace(q))
   28|  4.21k|            .map(|(rest, res)| (skip_whitespace(rest), res))
   29|  4.21k|    }
_RNCINvNtCs4qtBjdjJOwX_15rsonpath_syntax6parser17ignore_whitespaceNtB6_8SelectorNCNvB4_8selector0NtNtB6_5error18InternalParseErrorE0B6_:
   25|  4.21k|    move |q: &'a str| {
   26|  4.21k|        inner
   27|  4.21k|            .parse(skip_whitespace(q))
   28|  4.21k|            .map(|(rest, res)| (skip_whitespace(rest), res))
   29|  4.21k|    }
_RNCINvNtCs4qtBjdjJOwX_15rsonpath_syntax6parser17ignore_whitespaceNtB6_8SelectorNvB4_13name_selectorNtNtB6_5error18InternalParseErrorE0B6_:
   25|  29.7k|    move |q: &'a str| {
   26|  29.7k|        inner
   27|  29.7k|            .parse(skip_whitespace(q))
   28|  29.7k|            .map(|(rest, res)| (skip_whitespace(rest), res))
   29|  29.7k|    }
_RNCINvNtCs4qtBjdjJOwX_15rsonpath_syntax6parser17ignore_whitespaceNtB6_8SelectorNvB4_14index_selectorNtNtB6_5error18InternalParseErrorE0B6_:
   25|  12.6k|    move |q: &'a str| {
   26|  12.6k|        inner
   27|  12.6k|            .parse(skip_whitespace(q))
   28|  12.6k|            .map(|(rest, res)| (skip_whitespace(rest), res))
   29|  12.6k|    }
_RNCINvNtCs4qtBjdjJOwX_15rsonpath_syntax6parser17ignore_whitespaceNtB6_8SelectorNvB4_14slice_selectorNtNtB6_5error18InternalParseErrorE0B6_:
   25|  14.5k|    move |q: &'a str| {
   26|  14.5k|        inner
   27|  14.5k|            .parse(skip_whitespace(q))
   28|  14.5k|            .map(|(rest, res)| (skip_whitespace(rest), res))
   29|  14.5k|    }
_RNCINvNtCs4qtBjdjJOwX_15rsonpath_syntax6parser17ignore_whitespaceNtB6_8SelectorNvB4_17wildcard_selectorNtNtB6_5error18InternalParseErrorE0B6_:
   25|  18.6k|    move |q: &'a str| {
   26|  18.6k|        inner
   27|  18.6k|            .parse(skip_whitespace(q))
   28|  18.6k|            .map(|(rest, res)| (skip_whitespace(rest), res))
   29|  18.6k|    }
_RNCINvNtCs4qtBjdjJOwX_15rsonpath_syntax6parser17ignore_whitespaceNtNvB4_12logical_expr9BooleanOpINtNtCsaZdo92nHnrg_3nom6branch6ChoiceTINtNtB1B_8internal3MapNCINvNtNtB1B_5bytes8complete3tagReB30_NtNtB6_5error18InternalParseErrorE0NCINvNtB1B_10combinator5valueB30_B11_B36_B2u_E0EB28_EEB36_E0B6_:
   25|  12.1k|    move |q: &'a str| {
   26|  12.1k|        inner
   27|  12.1k|            .parse(skip_whitespace(q))
   28|  12.1k|            .map(|(rest, res)| (skip_whitespace(rest), res))
   29|  12.1k|    }
_RNCINvNtCs4qtBjdjJOwX_15rsonpath_syntax6parser17ignore_whitespaceReNvB4_3intNtNtB6_5error18InternalParseErrorE0B6_:
   25|  2.46k|    move |q: &'a str| {
   26|  2.46k|        inner
   27|  2.46k|            .parse(skip_whitespace(q))
   28|  2.46k|            .map(|(rest, res)| (skip_whitespace(rest), res))
   29|  2.46k|    }
_RNCINvNtCs4qtBjdjJOwX_15rsonpath_syntax6parser17ignore_whitespacecNCINvNtNtCsaZdo92nHnrg_3nom9character8complete4charReNtNtB6_5error18InternalParseErrorE0B1T_E0B6_:
   25|  14.5k|    move |q: &'a str| {
   26|  14.5k|        inner
   27|  14.5k|            .parse(skip_whitespace(q))
   28|  14.5k|            .map(|(rest, res)| (skip_whitespace(rest), res))
   29|  14.5k|    }
_RNCNCINvNtCs4qtBjdjJOwX_15rsonpath_syntax6parser17ignore_whitespaceINtNtCs6SNw0SRvItZ_4core6option6OptionReEINtNtCsaZdo92nHnrg_3nom8sequence8PrecededNCINvNtNtB1N_9character8complete4charB1F_NtNtB8_5error18InternalParseErrorE0INtNtB1N_10combinator3OptNCIB4_B1F_NvB6_3intB32_E0EEB32_E00B8_:
   28|    610|            .map(|(rest, res)| (skip_whitespace(rest), res))
_RNCNCINvNtCs4qtBjdjJOwX_15rsonpath_syntax6parser17ignore_whitespaceINtNtCs6SNw0SRvItZ_4core6option6OptioncEINtNtCsaZdo92nHnrg_3nom10combinator3OptNCINvNtNtB1M_9character8complete4charReNtNtB8_5error18InternalParseErrorE0EB2X_E00B8_:
   28|  10.6k|            .map(|(rest, res)| (skip_whitespace(rest), res))
_RNCNCINvNtCs4qtBjdjJOwX_15rsonpath_syntax6parser17ignore_whitespaceNtB8_11LogicalExprNCNvB6_12logical_expr0NtNtB8_5error18InternalParseErrorE00B8_:
   28|  8.94k|            .map(|(rest, res)| (skip_whitespace(rest), res))
_RNCNCINvNtCs4qtBjdjJOwX_15rsonpath_syntax6parser17ignore_whitespaceNtB8_11LogicalExprNCNvB6_12logical_exprs0_0NtNtB8_5error18InternalParseErrorE00B8_:
   28|  1.53k|            .map(|(rest, res)| (skip_whitespace(rest), res))
_RNCNCINvNtCs4qtBjdjJOwX_15rsonpath_syntax6parser17ignore_whitespaceNtB8_11LogicalExprNCNvB6_12logical_exprs_0NtNtB8_5error18InternalParseErrorE00B8_:
   28|  1.69k|            .map(|(rest, res)| (skip_whitespace(rest), res))
_RNCNCINvNtCs4qtBjdjJOwX_15rsonpath_syntax6parser17ignore_whitespaceNtB8_11LogicalExprNCNvB6_15filter_selector0NtNtB8_5error18InternalParseErrorE00B8_:
   28|  4.21k|            .map(|(rest, res)| (skip_whitespace(rest), res))
_RNCNCINvNtCs4qtBjdjJOwX_15rsonpath_syntax6parser17ignore_whitespaceNtB8_8SelectorNCNvB6_8selector0NtNtB8_5error18InternalParseErrorE00B8_:
   28|  4.21k|            .map(|(rest, res)| (skip_whitespace(rest), res))
_RNCNCINvNtCs4qtBjdjJOwX_15rsonpath_syntax6parser17ignore_whitespaceNtB8_8SelectorNvB6_13name_selectorNtNtB8_5error18InternalParseErrorE00B8_:
   28|  11.0k|            .map(|(rest, res)| (skip_whitespace(rest), res))
_RNCNCINvNtCs4qtBjdjJOwX_15rsonpath_syntax6parser17ignore_whitespaceNtB8_8SelectorNvB6_14index_selectorNtNtB8_5error18InternalParseErrorE00B8_:
   28|  8.47k|            .map(|(rest, res)| (skip_whitespace(rest), res))
_RNCNCINvNtCs4qtBjdjJOwX_15rsonpath_syntax6parser17ignore_whitespaceNtB8_8SelectorNvB6_14slice_selectorNtNtB8_5error18InternalParseErrorE00B8_:
   28|  1.85k|            .map(|(rest, res)| (skip_whitespace(rest), res))
_RNCNCINvNtCs4qtBjdjJOwX_15rsonpath_syntax6parser17ignore_whitespaceNtB8_8SelectorNvB6_17wildcard_selectorNtNtB8_5error18InternalParseErrorE00B8_:
   28|  4.14k|            .map(|(rest, res)| (skip_whitespace(rest), res))
_RNCNCINvNtCs4qtBjdjJOwX_15rsonpath_syntax6parser17ignore_whitespaceNtNvB6_12logical_expr9BooleanOpINtNtCsaZdo92nHnrg_3nom6branch6ChoiceTINtNtB1D_8internal3MapNCINvNtNtB1D_5bytes8complete3tagReB32_NtNtB8_5error18InternalParseErrorE0NCINvNtB1D_10combinator5valueB32_B13_B38_B2w_E0EB2a_EEB38_E00B8_:
   28|  3.23k|            .map(|(rest, res)| (skip_whitespace(rest), res))
_RNCNCINvNtCs4qtBjdjJOwX_15rsonpath_syntax6parser17ignore_whitespaceReNvB6_3intNtNtB8_5error18InternalParseErrorE00B8_:
   28|  1.15k|            .map(|(rest, res)| (skip_whitespace(rest), res))
_RNCNCINvNtCs4qtBjdjJOwX_15rsonpath_syntax6parser17ignore_whitespacecNCINvNtNtCsaZdo92nHnrg_3nom9character8complete4charReNtNtB8_5error18InternalParseErrorE0B1V_E00B8_:
   28|  1.85k|            .map(|(rest, res)| (skip_whitespace(rest), res))
_RNCNCNvNtCs4qtBjdjJOwX_15rsonpath_syntax6parser6string00B7_:
  789|  11.5k|                    let rest = stream.next().map_or("", |(i, _)| &q[i..]);
_RNCNvNtCs4qtBjdjJOwX_15rsonpath_syntax6parser10comparable0B5_:
  683|  1.88k|        |q| singular_query(q, ctx),
_RNCNvNtCs4qtBjdjJOwX_15rsonpath_syntax6parser12filter_query0B5_:
  607|  18.9k|            |q| descendant_segment(q, ctx),
_RNCNvNtCs4qtBjdjJOwX_15rsonpath_syntax6parser12filter_querys_0B5_:
  608|  16.1k|            |q| child_segment(q, ctx),
_RNCNvNtCs4qtBjdjJOwX_15rsonpath_syntax6parser12logical_expr0B5_:
  445|  8.94k|    let (rest, this_expr) = ignore_whitespace(|q| parse_single(q, ctx))(q)?;
_RNCNvNtCs4qtBjdjJOwX_15rsonpath_syntax6parser12logical_exprs0_0B5_:
  464|  1.53k|                let (rest, rhs_expr) = ignore_whitespace(|q| logical_expr(q, ctx))(loop_rest)?;
_RNCNvNtCs4qtBjdjJOwX_15rsonpath_syntax6parser12logical_exprs_0B5_:
  459|  1.69k|                let (rest, rhs_expr) = ignore_whitespace(|q| parse_single(q, ctx))(loop_rest)?;
_RNCNvNtCs4qtBjdjJOwX_15rsonpath_syntax6parser13child_segment0B5_:
  169|  18.2k|            |q| bracketed_selection(q, ctx),
_RNCNvNtCs4qtBjdjJOwX_15rsonpath_syntax6parser15filter_selector0B5_:
  409|  4.21k|    into(preceded(char('?'), ignore_whitespace(|q| logical_expr(q, ctx)))).parse(q)
_RNCNvNtCs4qtBjdjJOwX_15rsonpath_syntax6parser18descendant_segment0B5_:
  155|  3.59k|                |q| bracketed_selection(q, ctx),
_RNCNvNtCs4qtBjdjJOwX_15rsonpath_syntax6parser6number0B5_:
  710|    916|    map(float, |f| JsonNumber::from(f).normalize()).parse(q)
_RNCNvNtCs4qtBjdjJOwX_15rsonpath_syntax6parser6string0B5_:
  773|  11.5k|    move |q: &str| {
  774|  11.5k|        let mut builder = JsonStringBuilder::new();
  775|  11.5k|        let mut syntax_errors = vec![];
  776|  11.5k|        let mut stream = q.char_indices().peekable();
  777|       |
  778|  24.4k|        while let Some((c_idx, c)) = stream.next() {
  779|  24.4k|            match (c, mode) {
  780|  4.00k|                ('\\', _) => match read_escape_sequence(q.len(), c_idx, &mut stream, mode) {
  781|  4.00k|                    Ok(r) => {
  782|  4.00k|                        builder.push(r);
  783|  4.00k|                    }
  784|      0|                    Err(err) => {
  785|      0|                        syntax_errors.push(err);
  786|      0|                    }
  787|       |                },
  788|       |                ('"', StringParseMode::DoubleQuoted) | ('\'', StringParseMode::SingleQuoted) => {
  789|  11.5k|                    let rest = stream.next().map_or("", |(i, _)| &q[i..]);
  790|  11.5k|                    return if syntax_errors.is_empty() {
  791|  11.5k|                        Ok((rest, builder.finish()))
  792|       |                    } else {
  793|      0|                        Err(nom::Err::Failure(InternalParseError::SyntaxErrors(syntax_errors, rest)))
  794|       |                    };
  795|       |                }
  796|  8.22k|                (..='\u{001F}', _) => {
  797|      0|                    let rest = stream.peek().map_or("", |(i, _)| &q[*i..]);
  798|      0|                    syntax_errors.push(SyntaxError::new(
  799|      0|                        SyntaxErrorKind::InvalidUnescapedCharacter,
  800|      0|                        rest.len() + 1,
  801|       |                        1,
  802|       |                    ))
  803|       |                }
  804|  8.83k|                _ => {
  805|  8.83k|                    builder.push(c);
  806|  8.83k|                }
  807|       |            }
  808|       |        }
  809|       |
  810|      0|        let err_kind = if mode == StringParseMode::SingleQuoted {
  811|      0|            SyntaxErrorKind::MissingClosingSingleQuote
  812|       |        } else {
  813|      0|            SyntaxErrorKind::MissingClosingDoubleQuote
  814|       |        };
  815|      0|        syntax_errors.push(SyntaxError::new(err_kind, 0, 1));
  816|      0|        return Err(nom::Err::Failure(InternalParseError::SyntaxErrors(syntax_errors, "")));
  817|       |
  818|       |        fn read_escape_sequence<I>(
  819|       |            q_len: usize,
  820|       |            c_idx: usize,
  821|       |            chars: &mut Peekable<I>,
  822|       |            mode: StringParseMode,
  823|       |        ) -> std::result::Result<char, SyntaxError>
  824|       |        where
  825|       |            I: Iterator<Item = (usize, char)>,
  826|       |        {
  827|       |            let (i, ctrl) = chars.next().ok_or(SyntaxError::new(
  828|       |                SyntaxErrorKind::InvalidUnescapedCharacter,
  829|       |                q_len - c_idx,
  830|       |                1,
  831|       |            ))?;
  832|       |            match ctrl {
  833|       |                'u' => {
  834|       |                    let raw_c = read_hexadecimal_escape(q_len, i, chars)?;
  835|       |                    match raw_c {
  836|       |                        // High surrogate, start of a UTF-16 pair.
  837|       |                        0xD800..=0xDBFF => {
  838|       |                            let &(_, next) = chars.peek().ok_or(SyntaxError::new(
  839|       |                                SyntaxErrorKind::UnpairedHighSurrogate,
  840|       |                                q_len - c_idx,
  841|       |                                6,
  842|       |                            ))?;
  843|       |                            if next != '\\' {
  844|       |                                return Err(SyntaxError::new(
  845|       |                                    SyntaxErrorKind::UnpairedHighSurrogate,
  846|       |                                    q_len - c_idx,
  847|       |                                    6,
  848|       |                                ));
  849|       |                            }
  850|       |                            chars.next();
  851|       |                            let (i, next) = chars.next().ok_or(SyntaxError::new(
  852|       |                                SyntaxErrorKind::UnpairedHighSurrogate,
  853|       |                                q_len - c_idx,
  854|       |                                6,
  855|       |                            ))?;
  856|       |                            if next != 'u' {
  857|       |                                return Err(SyntaxError::new(
  858|       |                                    SyntaxErrorKind::UnpairedHighSurrogate,
  859|       |                                    q_len - c_idx,
  860|       |                                    6,
  861|       |                                ));
  862|       |                            }
  863|       |                            let low = read_hexadecimal_escape(q_len, i, chars)?;
  864|       |                            match low {
  865|       |                                0xDC00..=0xDFFF => {
  866|       |                                    let n = (((raw_c - 0xD800) << 10) | (low - 0xDC00)) + 0x10000;
  867|       |                                    Ok(char::from_u32(n).expect("high and low surrogate pair is always a valid char"))
  868|       |                                }
  869|       |                                _ => Err(SyntaxError::new(
  870|       |                                    SyntaxErrorKind::UnpairedHighSurrogate,
  871|       |                                    q_len - c_idx,
  872|       |                                    6,
  873|       |                                )),
  874|       |                            }
  875|       |                        }
  876|       |                        // Low surrogate, invalid escape sequence.
  877|       |                        0xDC00..=0xDFFF => Err(SyntaxError::new(
  878|       |                            SyntaxErrorKind::UnpairedLowSurrogate,
  879|       |                            q_len - c_idx,
  880|       |                            6,
  881|       |                        )),
  882|       |                        _ => Ok(char::from_u32(raw_c).expect("invalid values are handled above")),
  883|       |                    }
  884|       |                }
  885|       |                'b' => Ok('\u{0008}'), // U+0008 BS backspace
  886|       |                't' => Ok('\t'),       // U+0009 HT horizontal tab
  887|       |                'n' => Ok('\n'),       // U+000A LF line feed
  888|       |                'f' => Ok('\u{000C}'), // U+000C FF form feed
  889|       |                'r' => Ok('\r'),       // U+000D CR carriage return
  890|       |                '"' if mode == StringParseMode::DoubleQuoted => Ok(ctrl),
  891|       |                '\'' if mode == StringParseMode::SingleQuoted => Ok(ctrl),
  892|       |                '/' | '\\' => Ok(ctrl), // " ' / \ are passed as is
  893|       |                _ => Err(SyntaxError::new(
  894|       |                    SyntaxErrorKind::InvalidEscapeSequence,
  895|       |                    q_len - c_idx,
  896|       |                    2,
  897|       |                )), // no other escape sequences are allowed
  898|       |            }
  899|       |        }
  900|       |
  901|       |        fn read_hexadecimal_escape<I>(
  902|       |            q_len: usize,
  903|       |            c_idx: usize,
  904|       |            chars: &mut Peekable<I>,
  905|       |        ) -> std::result::Result<u32, SyntaxError>
  906|       |        where
  907|       |            I: Iterator<Item = (usize, char)>,
  908|       |        {
  909|       |            let mut x = 0;
  910|       |            for i in 0..4 {
  911|       |                let &(_, c) = chars.peek().ok_or(SyntaxError::new(
  912|       |                    SyntaxErrorKind::InvalidEscapeSequence,
  913|       |                    q_len - c_idx + 1,
  914|       |                    2 + i,
  915|       |                ))?;
  916|       |                let v = match c {
  917|       |                    '0'..='9' => c as u32 - '0' as u32,
  918|       |                    // RFC8259.7-2 The hexadecimal letters A through F can be uppercase or lowercase.
  919|       |                    'a'..='f' => c as u32 - 'a' as u32 + 10,
  920|       |                    'A'..='F' => c as u32 - 'A' as u32 + 10,
  921|       |                    _ => {
  922|       |                        return Err(SyntaxError::new(
  923|       |                            SyntaxErrorKind::InvalidHexDigitInUnicodeEscape,
  924|       |                            q_len - c_idx - i - 1,
  925|       |                            1,
  926|       |                        ))
  927|       |                    }
  928|       |                };
  929|       |                x <<= 4;
  930|       |                x += v;
  931|       |                chars.next();
  932|       |            }
  933|       |            Ok(x)
  934|       |        }
  935|  11.5k|    }
_RNCNvNtCs4qtBjdjJOwX_15rsonpath_syntax6parser7segment0B5_:
  143|  2.96k|        |q| descendant_segment(q, ctx),
_RNCNvNtCs4qtBjdjJOwX_15rsonpath_syntax6parser7segments_0B5_:
  144|  2.10k|        |q| child_segment(q, ctx),
_RNCNvNtCs4qtBjdjJOwX_15rsonpath_syntax6parser8selector0B5_:
  291|  4.21k|        ignore_whitespace(|q| filter_selector(q, ctx)),
_RNCNvNvNtCs4qtBjdjJOwX_15rsonpath_syntax6parser12logical_expr12parse_single0B7_:
  478|  3.19k|            let (rest, nested_filter) = cut(|q| logical_expr(q, ctx)).parse(skip_whitespace(rest))?;
_RNvMNtCs4qtBjdjJOwX_15rsonpath_syntax6parserNtB2_8ParseCtx16increase_nesting:
   49|  8.94k|    fn increase_nesting(&self) -> Option<Self> {
   50|  8.94k|        match self.options.recursion_limit {
   51|  8.94k|            Some(limit) if limit <= self.current_nesting => None,
   52|  8.94k|            _ => Some(Self {
   53|  8.94k|                options: self.options,
   54|  8.94k|                current_nesting: self.current_nesting + 1,
   55|  8.94k|            }),
   56|       |        }
   57|  8.94k|    }
_RNvMNtCs4qtBjdjJOwX_15rsonpath_syntax6parserNtB2_8ParseCtx3new:
   42|    883|    fn new(options: &'a ParserOptions) -> Self {
   43|    883|        Self {
   44|    883|            options,
   45|    883|            current_nesting: 0,
   46|    883|        }
   47|    883|    }
_RNvMs_NtCs4qtBjdjJOwX_15rsonpath_syntax6parserNtB4_11FilterQuery15into_test_query:
  574|  2.67k|    fn into_test_query(self) -> TestExpr {
  575|  2.67k|        match self {
  576|  1.29k|            Self::Relative(q) => TestExpr::Relative(q),
  577|  1.38k|            Self::Absolute(q) => TestExpr::Absolute(q),
  578|       |        }
  579|  2.67k|    }
_RNvMs_NtCs4qtBjdjJOwX_15rsonpath_syntax6parserNtB4_11FilterQuery17try_to_comparable:
  581|  4.60k|    fn try_to_comparable(self) -> Option<Comparable> {
  582|  4.60k|        match self {
  583|  2.35k|            Self::Relative(q) => q.try_to_singular().ok().map(Comparable::RelativeSingularQuery),
  584|  2.24k|            Self::Absolute(q) => q.try_to_singular().ok().map(Comparable::AbsoluteSingularQuery),
  585|       |        }
  586|  4.60k|    }
_RNvNtCs4qtBjdjJOwX_15rsonpath_syntax6parser10comparable:
  680|  4.77k|fn comparable<'q>(q: &'q str, ctx: ParseCtx) -> IResult<&'q str, Comparable, InternalParseError<'q>> {
  681|  4.77k|    return alt((
  682|  4.77k|        into(literal),
  683|       |        |q| singular_query(q, ctx),
  684|  4.77k|        failed_filter_expression(SyntaxErrorKind::InvalidComparable),
  685|       |    ))
  686|  4.77k|    .parse(q);
  687|       |
  688|       |    fn singular_query<'q>(q: &'q str, ctx: ParseCtx) -> IResult<&'q str, Comparable, InternalParseError<'q>> {
  689|       |        let (rest, query) = filter_query(q, ctx)?;
  690|       |        let Some(cmp) = query.try_to_comparable() else {
  691|       |            let query_len = q.len() - rest.len();
  692|       |            return fail(SyntaxErrorKind::NonSingularQueryInComparison, q.len(), query_len, rest);
  693|       |        };
  694|       |        Ok((rest, cmp))
  695|       |    }
  696|  4.77k|}
_RNvNtCs4qtBjdjJOwX_15rsonpath_syntax6parser12filter_query:
  589|  7.27k|fn filter_query<'q>(q: &'q str, ctx: ParseCtx) -> IResult<&'q str, FilterQuery, InternalParseError<'q>> {
  590|  7.27k|    let (rest, root_type) = alt((
  591|  7.27k|        value(RootSelectorType::Absolute, char('$')),
  592|  7.27k|        value(RootSelectorType::Relative, char('@')),
  593|  7.27k|    ))
  594|  7.27k|    .parse(q)?;
  595|  7.27k|    let rest = skip_whitespace(rest);
  596|  7.27k|    let mut segments = vec![];
  597|  7.27k|    let mut syntax_errors = vec![];
  598|       |
  599|  7.27k|    let mut q = rest;
  600|       |
  601|       |    loop {
  602|  26.1k|        if peek(one_of::<_, _, ()>(".[")).parse(q).is_err() {
  603|  7.27k|            break;
  604|  18.9k|        }
  605|       |
  606|  18.9k|        q = match alt((
  607|       |            |q| descendant_segment(q, ctx),
  608|       |            |q| child_segment(q, ctx),
  609|  18.9k|            failed_segment_within_filter(SyntaxErrorKind::InvalidSegmentStart),
  610|       |        ))
  611|  18.9k|        .parse(q)
  612|  18.9k|        .finish()
  613|       |        {
  614|  18.9k|            Ok((rest, segment)) => {
  615|  18.9k|                segments.push(segment);
  616|  18.9k|                rest
  617|       |            }
  618|      0|            Err(InternalParseError::SyntaxError(err, rest)) => {
  619|      0|                syntax_errors.push(err);
  620|      0|                rest
  621|       |            }
  622|      0|            Err(InternalParseError::SyntaxErrors(mut errs, rest)) => {
  623|      0|                syntax_errors.append(&mut errs);
  624|      0|                rest
  625|       |            }
  626|       |            Err(InternalParseError::RecursionLimitExceeded) => {
  627|      0|                return Err(Err::Failure(InternalParseError::RecursionLimitExceeded));
  628|       |            }
  629|      0|            Err(InternalParseError::NomError(err)) => panic!(
  630|      0|                "unexpected parser error; raw nom errors should never be produced; this is a bug\ncontext:\n{err}"
  631|       |            ),
  632|       |        };
  633|  18.9k|        q = skip_whitespace(q);
  634|       |    }
  635|       |
  636|  7.27k|    if !syntax_errors.is_empty() {
  637|      0|        Err(Err::Failure(InternalParseError::SyntaxErrors(syntax_errors, q)))
  638|       |    } else {
  639|  7.27k|        let query = JsonPathQuery { segments };
  640|  7.27k|        let query = match root_type {
  641|  3.64k|            RootSelectorType::Relative => FilterQuery::Relative(query),
  642|  3.62k|            RootSelectorType::Absolute => FilterQuery::Absolute(query),
  643|       |        };
  644|  7.27k|        Ok((q, query))
  645|       |    }
  646|  7.27k|}
_RNvNtCs4qtBjdjJOwX_15rsonpath_syntax6parser12logical_expr:
  412|  8.94k|fn logical_expr<'q>(q: &'q str, ctx: ParseCtx) -> IResult<&'q str, LogicalExpr, InternalParseError<'q>> {
  413|       |    // This is the most involved part of the parser, as it is inherently recursive.
  414|       |    //
  415|       |    // There are two sources of recursion here: parentheses introduce recursion,
  416|       |    // since the rule is simply '(' filter_expression ')'; and the boolean combinations
  417|       |    // require checking for an operator, and if any is present recursively parsing
  418|       |    // another filter and wrapping the result in an appropriate node type.
  419|       |    //
  420|       |    // In total, we handle the negation operator at the start and then apply the rules:
  421|       |    // - '(' |=> filter_expression, ')'
  422|       |    // - literal |=> comp_op, comparable
  423|       |    // - query, comp_op |=> comparable
  424|       |    // - query
  425|       |    // where |=> means a cut. We separately apply two additional restrictions:
  426|       |    // - negation cannot immediately precede a comparison,
  427|       |    // - query in a comparison must be singular.
  428|       |    // It would be possible to directly disallow them by the rules, but if the parser understands
  429|       |    // these two special cases it can give much clearer error messages about them.
  430|       |    //
  431|       |    // At the end, we check for `&&` and `||``, recurse and wrap if needed; if not, we end parsing
  432|       |    // and leave the rest to the parsers higher up the stack. They might accept the next
  433|       |    // character (e.g. it's `)` called from a recursive filter call, `,` chaining selectors,
  434|       |    // `]` ending a segment...) and are responsible for error handling otherwise.
  435|       |    #[derive(Debug, Clone, Copy)]
  436|       |    enum BooleanOp {
  437|       |        And,
  438|       |        Or,
  439|       |    }
  440|       |
  441|  8.94k|    let Some(ctx) = ctx.increase_nesting() else {
  442|      0|        return Err(Err::Failure(InternalParseError::RecursionLimitExceeded));
  443|       |    };
  444|       |
  445|  8.94k|    let (rest, this_expr) = ignore_whitespace(|q| parse_single(q, ctx))(q)?;
  446|  8.94k|    let mut loop_rest = skip_whitespace(rest);
  447|  8.94k|    let mut final_expr = this_expr;
  448|       |
  449|       |    loop {
  450|  12.1k|        let (rest, mb_boolean_op) = opt(ignore_whitespace(alt((
  451|  12.1k|            value(BooleanOp::And, tag("&&")),
  452|  12.1k|            value(BooleanOp::Or, tag("||")),
  453|  12.1k|        ))))
  454|  12.1k|        .parse(loop_rest)?;
  455|  12.1k|        loop_rest = rest;
  456|       |
  457|  3.23k|        match mb_boolean_op {
  458|       |            Some(BooleanOp::And) => {
  459|  1.69k|                let (rest, rhs_expr) = ignore_whitespace(|q| parse_single(q, ctx))(loop_rest)?;
  460|  1.69k|                loop_rest = rest;
  461|  1.69k|                final_expr = LogicalExpr::And(Box::new(final_expr), Box::new(rhs_expr));
  462|       |            }
  463|       |            Some(BooleanOp::Or) => {
  464|  1.53k|                let (rest, rhs_expr) = ignore_whitespace(|q| logical_expr(q, ctx))(loop_rest)?;
  465|  1.53k|                loop_rest = rest;
  466|  1.53k|                final_expr = LogicalExpr::Or(Box::new(final_expr), Box::new(rhs_expr));
  467|       |            }
  468|  8.94k|            None => break,
  469|       |        }
  470|       |    }
  471|       |
  472|  8.94k|    return Ok((loop_rest, final_expr));
  473|       |
  474|       |    fn parse_single<'q>(q: &'q str, ctx: ParseCtx) -> IResult<&'q str, LogicalExpr, InternalParseError<'q>> {
  475|       |        let (rest, opt_neg) = ignore_whitespace(opt(char('!')))(q)?;
  476|       |        let negated = opt_neg.is_some();
  477|       |        if let Ok((rest, _)) = char::<_, ()>('(')(rest) {
  478|       |            let (rest, nested_filter) = cut(|q| logical_expr(q, ctx)).parse(skip_whitespace(rest))?;
  479|       |            let rest = skip_whitespace(rest);
  480|       |            let Ok((rest, _)) = char::<_, ()>(')')(rest) else {
  481|       |                return failed_filter_expression(SyntaxErrorKind::MissingClosingParenthesis)(rest);
  482|       |            };
  483|       |            let selector = if negated {
  484|       |                LogicalExpr::Not(Box::new(nested_filter))
  485|       |            } else {
  486|       |                nested_filter
  487|       |            };
  488|       |            return Ok((rest, selector));
  489|       |        }
  490|       |
  491|       |        match literal(rest) {
  492|       |            Ok((rest, lhs)) => {
  493|       |                let rest = skip_whitespace(rest);
  494|       |                let (rest, comp_op) = match comparison_operator(rest) {
  495|       |                    Ok((rest, comp_op)) => (rest, comp_op),
  496|       |                    Err(Err::Failure(err)) => return Err(Err::Failure(err)),
  497|       |                    _ => {
  498|       |                        if peek(char::<_, ()>(']')).parse(rest).is_ok() {
  499|       |                            return fail(SyntaxErrorKind::MissingComparisonOperator, rest.len(), 1, rest);
  500|       |                        } else {
  501|       |                            return failed_filter_expression(SyntaxErrorKind::InvalidComparisonOperator)(rest);
  502|       |                        };
  503|       |                    }
  504|       |                };
  505|       |                let rest = skip_whitespace(rest);
  506|       |                let (rest, rhs) = comparable(rest, ctx)?;
  507|       |                if negated {
  508|       |                    return fail(SyntaxErrorKind::InvalidNegation, q.len(), 1, rest);
  509|       |                } else {
  510|       |                    return Ok((
  511|       |                        rest,
  512|       |                        LogicalExpr::Comparison(ComparisonExpr {
  513|       |                            lhs: Comparable::Literal(lhs),
  514|       |                            op: comp_op,
  515|       |                            rhs,
  516|       |                        }),
  517|       |                    ));
  518|       |                }
  519|       |            }
  520|       |            Err(Err::Failure(err)) => return Err(Err::Failure(err)),
  521|       |            _ => (),
  522|       |        }
  523|       |
  524|       |        match filter_query(rest, ctx) {
  525|       |            Ok((rest, query)) => {
  526|       |                let query_len = q.len() - rest.len();
  527|       |                let rest = skip_whitespace(rest);
  528|       |                if let Ok((rest, comp_op)) = comparison_operator(rest) {
  529|       |                    let rest = skip_whitespace(rest);
  530|       |                    let (rest, rhs) = comparable(rest, ctx)?;
  531|       |                    let Some(singular_query) = query.try_to_comparable() else {
  532|       |                        return fail(SyntaxErrorKind::NonSingularQueryInComparison, q.len(), query_len, rest);
  533|       |                    };
  534|       |                    if negated {
  535|       |                        fail(SyntaxErrorKind::InvalidNegation, q.len(), 1, rest)
  536|       |                    } else {
  537|       |                        Ok((
  538|       |                            rest,
  539|       |                            LogicalExpr::Comparison(ComparisonExpr {
  540|       |                                lhs: singular_query,
  541|       |                                rhs,
  542|       |                                op: comp_op,
  543|       |                            }),
  544|       |                        ))
  545|       |                    }
  546|       |                } else {
  547|       |                    let test_expr = LogicalExpr::Test(query.into_test_query());
  548|       |                    let expr = if negated {
  549|       |                        LogicalExpr::Not(Box::new(test_expr))
  550|       |                    } else {
  551|       |                        test_expr
  552|       |                    };
  553|       |                    Ok((rest, expr))
  554|       |                }
  555|       |            }
  556|       |            Err(Err::Failure(err)) => Err(Err::Failure(err)),
  557|       |            _ => failed_filter_expression(SyntaxErrorKind::InvalidFilter)(rest),
  558|       |        }
  559|       |    }
  560|  8.94k|}
_RNvNtCs4qtBjdjJOwX_15rsonpath_syntax6parser13child_segment:
  166|  18.2k|fn child_segment<'q>(q: &'q str, ctx: ParseCtx) -> IResult<&'q str, Segment, InternalParseError<'q>> {
  167|  18.2k|    map(
  168|  18.2k|        alt((
  169|       |            |q| bracketed_selection(q, ctx),
  170|       |            // This cut is only correct because we try parsing descendant_segment first.
  171|  18.2k|            preceded(
  172|  18.2k|                char('.'),
  173|  18.2k|                cut(alt((
  174|  18.2k|                    map(wildcard_selector, Selectors::one),
  175|  18.2k|                    member_name_shorthand,
  176|  18.2k|                    failed_segment(SyntaxErrorKind::InvalidNameShorthandAfterOnePeriod),
  177|  18.2k|                ))),
  178|       |            ),
  179|       |        )),
  180|       |        Segment::Child,
  181|       |    )
  182|  18.2k|    .parse(q)
  183|  18.2k|}
_RNvNtCs4qtBjdjJOwX_15rsonpath_syntax6parser13name_selector:
  303|  29.7k|fn name_selector(q: &str) -> IResult<&str, Selector, InternalParseError<'_>> {
  304|  29.7k|    map(string_literal, Selector::Name).parse(q)
  305|  29.7k|}
_RNvNtCs4qtBjdjJOwX_15rsonpath_syntax6parser14index_selector:
  372|  12.6k|fn index_selector(q: &str) -> IResult<&str, Selector, InternalParseError<'_>> {
  373|       |    // This has to be called after the slice selector.
  374|       |    // Thanks to that we can make a hard cut if we parsed an integer but it doesn't work as an index.
  375|  12.6k|    let (rest, int) = int(q)?;
  376|  8.47k|    match parse_directional_int(int) {
  377|  3.69k|        DirectionalInt::Plus(int) => Ok((rest, Selector::Index(Index::FromStart(int)))),
  378|  4.78k|        DirectionalInt::Minus(int) => Ok((rest, Selector::Index(Index::FromEnd(int)))),
  379|      0|        DirectionalInt::Error(err) => Err(Err::Failure(InternalParseError::SyntaxError(
  380|      0|            SyntaxError::new(SyntaxErrorKind::IndexParseError(err), q.len(), int.len()),
  381|      0|            rest,
  382|      0|        ))),
  383|       |    }
  384|  12.6k|}
_RNvNtCs4qtBjdjJOwX_15rsonpath_syntax6parser14slice_selector:
  319|  14.5k|fn slice_selector(q: &str) -> IResult<&str, Selector, InternalParseError<'_>> {
  320|  14.5k|    let (rest, opt_start) = terminated(opt(int), ignore_whitespace(char(':'))).parse(q)?;
  321|       |    // We have parsed a ':', so this *must* be a slice selector. Any errors after here are fatal.
  322|  1.85k|    let mut slice = crate::Slice::default();
  323|       |
  324|  1.85k|    if let Some(start_str) = opt_start {
  325|    443|        match parse_directional_int(start_str) {
  326|    269|            DirectionalInt::Plus(int) => slice.start = Index::FromStart(int),
  327|    174|            DirectionalInt::Minus(int) => slice.start = Index::FromEnd(int),
  328|      0|            DirectionalInt::Error(err) => {
  329|      0|                return fail(
  330|      0|                    SyntaxErrorKind::SliceStartParseError(err),
  331|      0|                    q.len(),
  332|      0|                    start_str.len(),
  333|      0|                    rest,
  334|       |                );
  335|       |            }
  336|       |        }
  337|  1.41k|    }
  338|  1.85k|    let q = rest;
  339|  1.85k|    let (rest, opt_end) = opt(ignore_whitespace(int)).parse(q)?;
  340|       |
  341|  1.85k|    if let Some(end_str) = opt_end {
  342|    540|        match parse_directional_int(end_str) {
  343|    303|            DirectionalInt::Plus(int) => slice.end = Some(Index::FromStart(int)),
  344|    237|            DirectionalInt::Minus(int) => slice.end = Some(Index::FromEnd(int)),
  345|      0|            DirectionalInt::Error(err) => {
  346|      0|                return fail(SyntaxErrorKind::SliceEndParseError(err), q.len(), end_str.len(), rest);
  347|       |            }
  348|       |        }
  349|  1.31k|    }
  350|       |
  351|  1.85k|    let q = rest;
  352|  1.85k|    let (rest, opt_step) = opt(ignore_whitespace(preceded(char(':'), opt(ignore_whitespace(int))))).parse(q)?;
  353|       |
  354|    610|    if let Some(Some(step_str)) = opt_step {
  355|    610|        match parse_directional_int(step_str) {
  356|    304|            DirectionalInt::Plus(int) => slice.step = Step::Forward(int),
  357|    306|            DirectionalInt::Minus(int) => slice.step = Step::Backward(int),
  358|      0|            DirectionalInt::Error(err) => {
  359|      0|                return fail(SyntaxErrorKind::SliceStepParseError(err), q.len(), step_str.len(), rest);
  360|       |            }
  361|       |        }
  362|  1.24k|    }
  363|       |
  364|       |    // Fixup the bounds - if start was not given and step is negative, the default must be reversed.
  365|  1.85k|    if slice.step.is_backward() && opt_start.is_none() {
  366|    192|        slice.start = crate::Slice::default_start_backwards();
  367|  1.66k|    }
  368|       |
  369|  1.85k|    Ok((rest, Selector::Slice(slice)))
  370|  14.5k|}
_RNvNtCs4qtBjdjJOwX_15rsonpath_syntax6parser14string_literal:
  307|  41.0k|fn string_literal(q: &str) -> IResult<&str, JsonString, InternalParseError<'_>> {
  308|  41.0k|    alt((
  309|  41.0k|        preceded(char('\''), string(StringParseMode::SingleQuoted)),
  310|  41.0k|        preceded(char('"'), string(StringParseMode::DoubleQuoted)),
  311|  41.0k|    ))
  312|  41.0k|    .parse(q)
  313|  41.0k|}
_RNvNtCs4qtBjdjJOwX_15rsonpath_syntax6parser15filter_selector:
  408|  4.21k|fn filter_selector<'q>(q: &'q str, ctx: ParseCtx) -> IResult<&'q str, Selector, InternalParseError<'q>> {
  409|  4.21k|    into(preceded(char('?'), ignore_whitespace(|q| logical_expr(q, ctx)))).parse(q)
  410|  4.21k|}
_RNvNtCs4qtBjdjJOwX_15rsonpath_syntax6parser15skip_whitespace:
   11|   289k|fn skip_whitespace(q: &str) -> &str {
   12|   289k|    q.trim_start_matches(JSONPATH_WHITESPACE)
   13|   289k|}
_RNvNtCs4qtBjdjJOwX_15rsonpath_syntax6parser17wildcard_selector:
  315|  18.6k|fn wildcard_selector(q: &str) -> IResult<&str, Selector, InternalParseError<'_>> {
  316|  18.6k|    map(tag("*"), |_| Selector::Wildcard).parse(q)
  317|  18.6k|}
_RNvNtCs4qtBjdjJOwX_15rsonpath_syntax6parser18descendant_segment:
  150|  21.8k|fn descendant_segment<'q>(q: &'q str, ctx: ParseCtx) -> IResult<&'q str, Segment, InternalParseError<'q>> {
  151|  21.8k|    map(
  152|  21.8k|        preceded(
  153|  21.8k|            tag(".."),
  154|  21.8k|            cut(alt((
  155|       |                |q| bracketed_selection(q, ctx),
  156|  21.8k|                map(wildcard_selector, Selectors::one),
  157|       |                member_name_shorthand,
  158|  21.8k|                failed_segment(SyntaxErrorKind::InvalidSegmentAfterTwoPeriods),
  159|       |            ))),
  160|       |        ),
  161|       |        Segment::Descendant,
  162|       |    )
  163|  21.8k|    .parse(q)
  164|  21.8k|}
_RNvNtCs4qtBjdjJOwX_15rsonpath_syntax6parser18parse_with_options:
   60|    883|pub(crate) fn parse_with_options(q: &str, options: &ParserOptions) -> Result<JsonPathQuery> {
   61|    883|    parse_json_path_query(q, ParseCtx::new(options))
   62|    883|}
_RNvNtCs4qtBjdjJOwX_15rsonpath_syntax6parser19bracketed_selection:
  215|  21.8k|fn bracketed_selection<'q>(q: &'q str, ctx: ParseCtx) -> IResult<&'q str, Selectors, InternalParseError<'q>> {
  216|  21.8k|    let (mut q, _) = char('[')(q)?;
  217|  21.8k|    let mut selectors = vec![];
  218|  21.8k|    let mut syntax_errors = vec![];
  219|       |
  220|       |    loop {
  221|  29.7k|        match selector(q, ctx).finish() {
  222|  29.7k|            Ok((rest, selector)) => {
  223|  29.7k|                selectors.push(selector);
  224|  29.7k|                q = rest;
  225|  29.7k|            }
  226|      0|            Err(InternalParseError::SyntaxError(err, rest)) => {
  227|      0|                syntax_errors.push(err);
  228|      0|                q = rest;
  229|      0|            }
  230|      0|            Err(InternalParseError::SyntaxErrors(mut errs, rest)) => {
  231|      0|                syntax_errors.append(&mut errs);
  232|      0|                q = rest;
  233|      0|            }
  234|      0|            Err(err) => return Err(Err::Failure(err)),
  235|       |        }
  236|  29.7k|        q = skip_whitespace(q);
  237|       |
  238|  29.7k|        match char::<_, nom::error::Error<_>>(',')(q) {
  239|  7.88k|            Ok((rest, _)) => q = rest,
  240|       |            Err(_) => {
  241|  21.8k|                if let Ok((rest, _)) = char::<_, nom::error::Error<_>>(']')(q) {
  242|  21.8k|                    q = rest;
  243|  21.8k|                    break;
  244|      0|                } else if q.is_empty() {
  245|      0|                    syntax_errors.push(SyntaxError::new(SyntaxErrorKind::MissingClosingBracket, 0, 1));
  246|      0|                    break;
  247|       |                } else {
  248|      0|                    syntax_errors.push(SyntaxError::new(SyntaxErrorKind::MissingSelectorSeparator, q.len(), 1))
  249|       |                }
  250|       |            }
  251|       |        }
  252|       |    }
  253|       |
  254|  21.8k|    if syntax_errors.is_empty() {
  255|  21.8k|        Ok((q, Selectors::many(selectors)))
  256|       |    } else {
  257|      0|        Err(Err::Failure(InternalParseError::SyntaxErrors(syntax_errors, q)))
  258|       |    }
  259|  21.8k|}
_RNvNtCs4qtBjdjJOwX_15rsonpath_syntax6parser19comparison_operator:
  668|  7.44k|fn comparison_operator(q: &str) -> IResult<&str, ComparisonOp, InternalParseError<'_>> {
  669|  7.44k|    alt((
  670|  7.44k|        value(ComparisonOp::EqualTo, tag("==")),
  671|  7.44k|        value(ComparisonOp::NotEqualTo, tag("!=")),
  672|  7.44k|        value(ComparisonOp::LesserOrEqualTo, tag("<=")),
  673|  7.44k|        value(ComparisonOp::GreaterOrEqualTo, tag(">=")),
  674|  7.44k|        value(ComparisonOp::LessThan, char('<')),
  675|  7.44k|        value(ComparisonOp::GreaterThan, char('>')),
  676|  7.44k|    ))
  677|  7.44k|    .parse(q)
  678|  7.44k|}
_RNvNtCs4qtBjdjJOwX_15rsonpath_syntax6parser21parse_directional_int:
  743|  10.0k|fn parse_directional_int(int_str: &str) -> DirectionalInt {
  744|  10.0k|    match JsonInt::from_str(int_str) {
  745|  10.0k|        Ok(int) => {
  746|  10.0k|            if let Ok(uint) = JsonUInt::try_from(int) {
  747|  4.56k|                DirectionalInt::Plus(uint)
  748|       |            } else {
  749|  5.50k|                DirectionalInt::Minus(int.abs().try_into().expect("zero would convert to JsonUInt above"))
  750|       |            }
  751|       |        }
  752|      0|        Err(err) => DirectionalInt::Error(err),
  753|       |    }
  754|  10.0k|}
_RNvNtCs4qtBjdjJOwX_15rsonpath_syntax6parser21parse_json_path_query:
   64|    883|fn parse_json_path_query(q: &str, ctx: ParseCtx) -> Result<JsonPathQuery> {
   65|    883|    let original_input = q;
   66|    883|    let mut parse_error = ParseErrorBuilder::new();
   67|    883|    let mut segments = vec![];
   68|    883|    let q = skip_whitespace(q);
   69|    883|    let leading_whitespace_len = original_input.len() - q.len();
   70|    883|    if leading_whitespace_len > 0 && !ctx.options.is_leading_whitespace_allowed() {
   71|      0|        parse_error.add(SyntaxError::new(
   72|      0|            SyntaxErrorKind::DisallowedLeadingWhitespace,
   73|      0|            original_input.len(),
   74|      0|            leading_whitespace_len,
   75|      0|        ));
   76|    883|    }
   77|    883|    let q = match char::<_, nom::error::Error<_>>('$')(q).finish() {
   78|    883|        Ok((q, _)) => skip_whitespace(q),
   79|      0|        Err(e) => {
   80|      0|            parse_error.add(SyntaxError::new(
   81|      0|                SyntaxErrorKind::MissingRootIdentifier,
   82|      0|                e.input.len(),
   83|      0|                q.chars().next().map_or(1, char::len_utf8),
   84|       |            ));
   85|      0|            e.input
   86|       |        }
   87|       |    };
   88|       |
   89|    883|    let mut q = q;
   90|  3.84k|    while !q.is_empty() {
   91|  2.96k|        q = match segment(q, ctx).finish() {
   92|  2.96k|            Ok((rest, segment)) => {
   93|  2.96k|                segments.push(segment);
   94|  2.96k|                rest
   95|       |            }
   96|      0|            Err(InternalParseError::SyntaxError(err, rest)) => {
   97|      0|                parse_error.add(err);
   98|      0|                rest
   99|       |            }
  100|      0|            Err(InternalParseError::SyntaxErrors(errs, rest)) => {
  101|      0|                parse_error.add_many(errs);
  102|      0|                rest
  103|       |            }
  104|       |            Err(InternalParseError::RecursionLimitExceeded) => {
  105|      0|                return Err(ParseErrorBuilder::recursion_limit_exceeded(
  106|      0|                    original_input.to_owned(),
  107|      0|                    ctx.options
  108|      0|                        .recursion_limit
  109|      0|                        .expect("recursion limit should exists when exceeded"),
  110|      0|                ));
  111|       |            }
  112|      0|            Err(InternalParseError::NomError(err)) => panic!(
  113|      0|                "unexpected parser error; raw nom errors should never be produced; this is a bug\ncontext:\n{err}"
  114|       |            ),
  115|       |        };
  116|  2.96k|        q = skip_whitespace(q);
  117|       |    }
  118|       |
  119|       |    // For strict RFC compliance trailing whitespace has to be disallowed.
  120|       |    // This is hard to organically obtain from the parsing above, so we insert this awkward direct check if needed.
  121|    883|    if !ctx.options.is_trailing_whitespace_allowed() {
  122|    883|        let trimmed = original_input.trim_end_matches(JSONPATH_WHITESPACE);
  123|    883|        let trailing_whitespace_len = original_input.len() - trimmed.len();
  124|    883|        if trailing_whitespace_len > 0 {
  125|      0|            parse_error.add(SyntaxError::new(
  126|      0|                SyntaxErrorKind::DisallowedTrailingWhitespace,
  127|      0|                trailing_whitespace_len,
  128|      0|                trailing_whitespace_len,
  129|      0|            ));
  130|    883|        }
  131|      0|    }
  132|       |
  133|    883|    if parse_error.is_empty() {
  134|    883|        Ok(JsonPathQuery { segments })
  135|       |    } else {
  136|      0|        Err(parse_error.build(original_input.to_owned()))
  137|       |    }
  138|    883|}
_RNvNtCs4qtBjdjJOwX_15rsonpath_syntax6parser3int:
  756|  29.7k|fn int(q: &str) -> IResult<&str, &str, InternalParseError<'_>> {
  757|  29.7k|    let (rest, int) = recognize(alt((preceded(char('-'), digit1), digit1))).parse(q)?;
  758|       |
  759|  18.5k|    if int != "0" {
  760|  18.5k|        if int == "-0" {
  761|      0|            return fail(SyntaxErrorKind::NegativeZeroInteger, q.len(), int.len(), rest);
  762|  18.5k|        }
  763|  18.5k|        let without_minus = int.strip_prefix('-').unwrap_or(int);
  764|  18.5k|        if without_minus.strip_prefix(['0']).is_some() {
  765|      0|            return fail(SyntaxErrorKind::LeadingZeros, q.len(), int.len(), rest);
  766|  18.5k|        }
  767|     41|    }
  768|       |
  769|  18.5k|    Ok((rest, int))
  770|  29.7k|}
_RNvNtCs4qtBjdjJOwX_15rsonpath_syntax6parser5float:
  714|  12.2k|fn float(q: &str) -> IResult<&str, JsonFloat, InternalParseError<'_>> {
  715|       |    // Look ahead to verify that this has a chance to be a number.
  716|  12.2k|    let (rest, valid_str) = recognize(alt((preceded(char('-'), base_float), base_float))).parse(q)?;
  717|       |
  718|       |    // It is a number, so after here we can hard cut.
  719|    916|    return match JsonFloat::from_str(valid_str) {
  720|    916|        Ok(n) => Ok((rest, n)),
  721|      0|        Err(e) => fail(SyntaxErrorKind::NumberParseError(e), rest.len(), valid_str.len(), q),
  722|       |    };
  723|       |
  724|       |    fn base_float(q: &str) -> IResult<&str, &str, InternalParseError<'_>> {
  725|       |        recognize((
  726|       |            digit1,
  727|       |            opt(preceded(char('.'), digit1)),
  728|       |            opt(preceded(
  729|       |                tag_no_case("e"),
  730|       |                preceded(opt(alt((char('+'), char('-')))), digit1),
  731|       |            )),
  732|       |        ))
  733|       |        .parse(q)
  734|       |    }
  735|  12.2k|}
_RNvNtCs4qtBjdjJOwX_15rsonpath_syntax6parser6number:
  709|  12.2k|fn number(q: &str) -> IResult<&str, JsonNumber, InternalParseError<'_>> {
  710|  12.2k|    map(float, |f| JsonNumber::from(f).normalize()).parse(q)
  711|  12.2k|}
_RNvNtCs4qtBjdjJOwX_15rsonpath_syntax6parser6string:
  772|  82.1k|fn string(mode: StringParseMode) -> impl FnMut(&str) -> IResult<&str, JsonString, InternalParseError<'_>> {
  773|       |    move |q: &str| {
  774|       |        let mut builder = JsonStringBuilder::new();
  775|       |        let mut syntax_errors = vec![];
  776|       |        let mut stream = q.char_indices().peekable();
  777|       |
  778|       |        while let Some((c_idx, c)) = stream.next() {
  779|       |            match (c, mode) {
  780|       |                ('\\', _) => match read_escape_sequence(q.len(), c_idx, &mut stream, mode) {
  781|       |                    Ok(r) => {
  782|       |                        builder.push(r);
  783|       |                    }
  784|       |                    Err(err) => {
  785|       |                        syntax_errors.push(err);
  786|       |                    }
  787|       |                },
  788|       |                ('"', StringParseMode::DoubleQuoted) | ('\'', StringParseMode::SingleQuoted) => {
  789|       |                    let rest = stream.next().map_or("", |(i, _)| &q[i..]);
  790|       |                    return if syntax_errors.is_empty() {
  791|       |                        Ok((rest, builder.finish()))
  792|       |                    } else {
  793|       |                        Err(nom::Err::Failure(InternalParseError::SyntaxErrors(syntax_errors, rest)))
  794|       |                    };
  795|       |                }
  796|       |                (..='\u{001F}', _) => {
  797|       |                    let rest = stream.peek().map_or("", |(i, _)| &q[*i..]);
  798|       |                    syntax_errors.push(SyntaxError::new(
  799|       |                        SyntaxErrorKind::InvalidUnescapedCharacter,
  800|       |                        rest.len() + 1,
  801|       |                        1,
  802|       |                    ))
  803|       |                }
  804|       |                _ => {
  805|       |                    builder.push(c);
  806|       |                }
  807|       |            }
  808|       |        }
  809|       |
  810|       |        let err_kind = if mode == StringParseMode::SingleQuoted {
  811|       |            SyntaxErrorKind::MissingClosingSingleQuote
  812|       |        } else {
  813|       |            SyntaxErrorKind::MissingClosingDoubleQuote
  814|       |        };
  815|       |        syntax_errors.push(SyntaxError::new(err_kind, 0, 1));
  816|       |        return Err(nom::Err::Failure(InternalParseError::SyntaxErrors(syntax_errors, "")));
  817|       |
  818|       |        fn read_escape_sequence<I>(
  819|       |            q_len: usize,
  820|       |            c_idx: usize,
  821|       |            chars: &mut Peekable<I>,
  822|       |            mode: StringParseMode,
  823|       |        ) -> std::result::Result<char, SyntaxError>
  824|       |        where
  825|       |            I: Iterator<Item = (usize, char)>,
  826|       |        {
  827|       |            let (i, ctrl) = chars.next().ok_or(SyntaxError::new(
  828|       |                SyntaxErrorKind::InvalidUnescapedCharacter,
  829|       |                q_len - c_idx,
  830|       |                1,
  831|       |            ))?;
  832|       |            match ctrl {
  833|       |                'u' => {
  834|       |                    let raw_c = read_hexadecimal_escape(q_len, i, chars)?;
  835|       |                    match raw_c {
  836|       |                        // High surrogate, start of a UTF-16 pair.
  837|       |                        0xD800..=0xDBFF => {
  838|       |                            let &(_, next) = chars.peek().ok_or(SyntaxError::new(
  839|       |                                SyntaxErrorKind::UnpairedHighSurrogate,
  840|       |                                q_len - c_idx,
  841|       |                                6,
  842|       |                            ))?;
  843|       |                            if next != '\\' {
  844|       |                                return Err(SyntaxError::new(
  845|       |                                    SyntaxErrorKind::UnpairedHighSurrogate,
  846|       |                                    q_len - c_idx,
  847|       |                                    6,
  848|       |                                ));
  849|       |                            }
  850|       |                            chars.next();
  851|       |                            let (i, next) = chars.next().ok_or(SyntaxError::new(
  852|       |                                SyntaxErrorKind::UnpairedHighSurrogate,
  853|       |                                q_len - c_idx,
  854|       |                                6,
  855|       |                            ))?;
  856|       |                            if next != 'u' {
  857|       |                                return Err(SyntaxError::new(
  858|       |                                    SyntaxErrorKind::UnpairedHighSurrogate,
  859|       |                                    q_len - c_idx,
  860|       |                                    6,
  861|       |                                ));
  862|       |                            }
  863|       |                            let low = read_hexadecimal_escape(q_len, i, chars)?;
  864|       |                            match low {
  865|       |                                0xDC00..=0xDFFF => {
  866|       |                                    let n = (((raw_c - 0xD800) << 10) | (low - 0xDC00)) + 0x10000;
  867|       |                                    Ok(char::from_u32(n).expect("high and low surrogate pair is always a valid char"))
  868|       |                                }
  869|       |                                _ => Err(SyntaxError::new(
  870|       |                                    SyntaxErrorKind::UnpairedHighSurrogate,
  871|       |                                    q_len - c_idx,
  872|       |                                    6,
  873|       |                                )),
  874|       |                            }
  875|       |                        }
  876|       |                        // Low surrogate, invalid escape sequence.
  877|       |                        0xDC00..=0xDFFF => Err(SyntaxError::new(
  878|       |                            SyntaxErrorKind::UnpairedLowSurrogate,
  879|       |                            q_len - c_idx,
  880|       |                            6,
  881|       |                        )),
  882|       |                        _ => Ok(char::from_u32(raw_c).expect("invalid values are handled above")),
  883|       |                    }
  884|       |                }
  885|       |                'b' => Ok('\u{0008}'), // U+0008 BS backspace
  886|       |                't' => Ok('\t'),       // U+0009 HT horizontal tab
  887|       |                'n' => Ok('\n'),       // U+000A LF line feed
  888|       |                'f' => Ok('\u{000C}'), // U+000C FF form feed
  889|       |                'r' => Ok('\r'),       // U+000D CR carriage return
  890|       |                '"' if mode == StringParseMode::DoubleQuoted => Ok(ctrl),
  891|       |                '\'' if mode == StringParseMode::SingleQuoted => Ok(ctrl),
  892|       |                '/' | '\\' => Ok(ctrl), // " ' / \ are passed as is
  893|       |                _ => Err(SyntaxError::new(
  894|       |                    SyntaxErrorKind::InvalidEscapeSequence,
  895|       |                    q_len - c_idx,
  896|       |                    2,
  897|       |                )), // no other escape sequences are allowed
  898|       |            }
  899|       |        }
  900|       |
  901|       |        fn read_hexadecimal_escape<I>(
  902|       |            q_len: usize,
  903|       |            c_idx: usize,
  904|       |            chars: &mut Peekable<I>,
  905|       |        ) -> std::result::Result<u32, SyntaxError>
  906|       |        where
  907|       |            I: Iterator<Item = (usize, char)>,
  908|       |        {
  909|       |            let mut x = 0;
  910|       |            for i in 0..4 {
  911|       |                let &(_, c) = chars.peek().ok_or(SyntaxError::new(
  912|       |                    SyntaxErrorKind::InvalidEscapeSequence,
  913|       |                    q_len - c_idx + 1,
  914|       |                    2 + i,
  915|       |                ))?;
  916|       |                let v = match c {
  917|       |                    '0'..='9' => c as u32 - '0' as u32,
  918|       |                    // RFC8259.7-2 The hexadecimal letters A through F can be uppercase or lowercase.
  919|       |                    'a'..='f' => c as u32 - 'a' as u32 + 10,
  920|       |                    'A'..='F' => c as u32 - 'A' as u32 + 10,
  921|       |                    _ => {
  922|       |                        return Err(SyntaxError::new(
  923|       |                            SyntaxErrorKind::InvalidHexDigitInUnicodeEscape,
  924|       |                            q_len - c_idx - i - 1,
  925|       |                            1,
  926|       |                        ))
  927|       |                    }
  928|       |                };
  929|       |                x <<= 4;
  930|       |                x += v;
  931|       |                chars.next();
  932|       |            }
  933|       |            Ok(x)
  934|       |        }
  935|       |    }
  936|  82.1k|}
_RNvNtCs4qtBjdjJOwX_15rsonpath_syntax6parser7literal:
  698|  12.2k|fn literal(q: &str) -> IResult<&str, Literal, InternalParseError<'_>> {
  699|  12.2k|    alt((
  700|  12.2k|        into(number),
  701|  12.2k|        into(string_literal),
  702|  12.2k|        value(Literal::Bool(true), tag("true")),
  703|  12.2k|        value(Literal::Bool(false), tag("false")),
  704|  12.2k|        value(Literal::Null, tag("null")),
  705|  12.2k|    ))
  706|  12.2k|    .parse(q)
  707|  12.2k|}
_RNvNtCs4qtBjdjJOwX_15rsonpath_syntax6parser7segment:
  140|  2.96k|fn segment<'q>(q: &'q str, ctx: ParseCtx) -> IResult<&'q str, Segment, InternalParseError<'q>> {
  141|       |    // It's important to check descendant first, since we can always cut based on whether the prefix is ".." or not.
  142|  2.96k|    alt((
  143|       |        |q| descendant_segment(q, ctx),
  144|       |        |q| child_segment(q, ctx),
  145|  2.96k|        failed_segment(SyntaxErrorKind::InvalidSegmentStart),
  146|       |    ))
  147|  2.96k|    .parse(q)
  148|  2.96k|}
_RNvNtCs4qtBjdjJOwX_15rsonpath_syntax6parser8selector:
  285|  29.7k|fn selector<'q>(q: &'q str, ctx: ParseCtx) -> IResult<&'q str, Selector, InternalParseError<'q>> {
  286|  29.7k|    alt((
  287|  29.7k|        ignore_whitespace(name_selector),
  288|  29.7k|        ignore_whitespace(wildcard_selector),
  289|  29.7k|        ignore_whitespace(slice_selector),
  290|  29.7k|        ignore_whitespace(index_selector),
  291|  29.7k|        ignore_whitespace(|q| filter_selector(q, ctx)),
  292|       |        failed_selector,
  293|       |    ))
  294|  29.7k|    .parse(q)
  295|  29.7k|}
_RNvNvNtCs4qtBjdjJOwX_15rsonpath_syntax6parser10comparable14singular_query:
  688|  1.88k|    fn singular_query<'q>(q: &'q str, ctx: ParseCtx) -> IResult<&'q str, Comparable, InternalParseError<'q>> {
  689|  1.88k|        let (rest, query) = filter_query(q, ctx)?;
  690|  1.88k|        let Some(cmp) = query.try_to_comparable() else {
  691|      0|            let query_len = q.len() - rest.len();
  692|      0|            return fail(SyntaxErrorKind::NonSingularQueryInComparison, q.len(), query_len, rest);
  693|       |        };
  694|  1.88k|        Ok((rest, cmp))
  695|  1.88k|    }
_RNvNvNtCs4qtBjdjJOwX_15rsonpath_syntax6parser12logical_expr12parse_single:
  474|  10.6k|    fn parse_single<'q>(q: &'q str, ctx: ParseCtx) -> IResult<&'q str, LogicalExpr, InternalParseError<'q>> {
  475|  10.6k|        let (rest, opt_neg) = ignore_whitespace(opt(char('!')))(q)?;
  476|  10.6k|        let negated = opt_neg.is_some();
  477|  10.6k|        if let Ok((rest, _)) = char::<_, ()>('(')(rest) {
  478|  3.19k|            let (rest, nested_filter) = cut(|q| logical_expr(q, ctx)).parse(skip_whitespace(rest))?;
  479|  3.19k|            let rest = skip_whitespace(rest);
  480|  3.19k|            let Ok((rest, _)) = char::<_, ()>(')')(rest) else {
  481|      0|                return failed_filter_expression(SyntaxErrorKind::MissingClosingParenthesis)(rest);
  482|       |            };
  483|  3.19k|            let selector = if negated {
  484|  2.28k|                LogicalExpr::Not(Box::new(nested_filter))
  485|       |            } else {
  486|    906|                nested_filter
  487|       |            };
  488|  3.19k|            return Ok((rest, selector));
  489|  7.44k|        }
  490|       |
  491|  7.44k|        match literal(rest) {
  492|  2.05k|            Ok((rest, lhs)) => {
  493|  2.05k|                let rest = skip_whitespace(rest);
  494|  2.05k|                let (rest, comp_op) = match comparison_operator(rest) {
  495|  2.05k|                    Ok((rest, comp_op)) => (rest, comp_op),
  496|      0|                    Err(Err::Failure(err)) => return Err(Err::Failure(err)),
  497|       |                    _ => {
  498|      0|                        if peek(char::<_, ()>(']')).parse(rest).is_ok() {
  499|      0|                            return fail(SyntaxErrorKind::MissingComparisonOperator, rest.len(), 1, rest);
  500|       |                        } else {
  501|      0|                            return failed_filter_expression(SyntaxErrorKind::InvalidComparisonOperator)(rest);
  502|       |                        };
  503|       |                    }
  504|       |                };
  505|  2.05k|                let rest = skip_whitespace(rest);
  506|  2.05k|                let (rest, rhs) = comparable(rest, ctx)?;
  507|  2.05k|                if negated {
  508|      0|                    return fail(SyntaxErrorKind::InvalidNegation, q.len(), 1, rest);
  509|       |                } else {
  510|  2.05k|                    return Ok((
  511|  2.05k|                        rest,
  512|  2.05k|                        LogicalExpr::Comparison(ComparisonExpr {
  513|  2.05k|                            lhs: Comparable::Literal(lhs),
  514|  2.05k|                            op: comp_op,
  515|  2.05k|                            rhs,
  516|  2.05k|                        }),
  517|  2.05k|                    ));
  518|       |                }
  519|       |            }
  520|      0|            Err(Err::Failure(err)) => return Err(Err::Failure(err)),
  521|  5.38k|            _ => (),
  522|       |        }
  523|       |
  524|  5.38k|        match filter_query(rest, ctx) {
  525|  5.38k|            Ok((rest, query)) => {
  526|  5.38k|                let query_len = q.len() - rest.len();
  527|  5.38k|                let rest = skip_whitespace(rest);
  528|  5.38k|                if let Ok((rest, comp_op)) = comparison_operator(rest) {
  529|  2.71k|                    let rest = skip_whitespace(rest);
  530|  2.71k|                    let (rest, rhs) = comparable(rest, ctx)?;
  531|  2.71k|                    let Some(singular_query) = query.try_to_comparable() else {
  532|      0|                        return fail(SyntaxErrorKind::NonSingularQueryInComparison, q.len(), query_len, rest);
  533|       |                    };
  534|  2.71k|                    if negated {
  535|      0|                        fail(SyntaxErrorKind::InvalidNegation, q.len(), 1, rest)
  536|       |                    } else {
  537|  2.71k|                        Ok((
  538|  2.71k|                            rest,
  539|  2.71k|                            LogicalExpr::Comparison(ComparisonExpr {
  540|  2.71k|                                lhs: singular_query,
  541|  2.71k|                                rhs,
  542|  2.71k|                                op: comp_op,
  543|  2.71k|                            }),
  544|  2.71k|                        ))
  545|       |                    }
  546|       |                } else {
  547|  2.67k|                    let test_expr = LogicalExpr::Test(query.into_test_query());
  548|  2.67k|                    let expr = if negated {
  549|    951|                        LogicalExpr::Not(Box::new(test_expr))
  550|       |                    } else {
  551|  1.72k|                        test_expr
  552|       |                    };
  553|  2.67k|                    Ok((rest, expr))
  554|       |                }
  555|       |            }
  556|      0|            Err(Err::Failure(err)) => Err(Err::Failure(err)),
  557|      0|            _ => failed_filter_expression(SyntaxErrorKind::InvalidFilter)(rest),
  558|       |        }
  559|  10.6k|    }
_RNvNvNtCs4qtBjdjJOwX_15rsonpath_syntax6parser5float10base_float:
  724|  12.2k|    fn base_float(q: &str) -> IResult<&str, &str, InternalParseError<'_>> {
  725|  12.2k|        recognize((
  726|  12.2k|            digit1,
  727|  12.2k|            opt(preceded(char('.'), digit1)),
  728|  12.2k|            opt(preceded(
  729|  12.2k|                tag_no_case("e"),
  730|  12.2k|                preceded(opt(alt((char('+'), char('-')))), digit1),
  731|  12.2k|            )),
  732|  12.2k|        ))
  733|  12.2k|        .parse(q)
  734|  12.2k|    }

_RNvMs3_NtCs4qtBjdjJOwX_15rsonpath_syntax3strNtB5_10JsonString8unquoted:
  201|  34.7k|    pub fn unquoted(&self) -> &str {
  202|  34.7k|        let len = self.quoted.len();
  203|  34.7k|        debug_assert!(len >= 2, "self.quoted must contain at least the two quote characters");
  204|  34.7k|        &self.quoted[1..len - 1]
  205|  34.7k|    }
_RNvXs4_NtCs4qtBjdjJOwX_15rsonpath_syntax3strNtB5_10JsonStringNtNtCs6SNw0SRvItZ_4core3cmp9PartialEq2eq:
  224|  11.5k|    fn eq(&self, other: &Self) -> bool {
  225|  11.5k|        self.unquoted() == other.unquoted()
  226|  11.5k|    }
_RNvNtCs4qtBjdjJOwX_15rsonpath_syntax3str6escapeCs3eoZzJAlGP8_21query_fuzz_round_trip:
  145|  11.5k|pub fn escape(str: &str, mode: EscapeMode) -> String {
  146|       |    use std::fmt::Write as _;
  147|  11.5k|    let mut result = String::new();
  148|  12.8k|    for c in str.chars() {
  149|    229|        match c {
  150|       |            // # Mode-dependent quote escapes.
  151|    544|            '\'' if mode == EscapeMode::SingleQuoted => result.push_str(r"\'"),
  152|    229|            '\'' if mode == EscapeMode::DoubleQuoted => result.push('\''),
  153|    687|            '"' if mode == EscapeMode::SingleQuoted => result.push('"'),
  154|    310|            '"' if mode == EscapeMode::DoubleQuoted => result.push_str(r#"\""#),
  155|       |            // # Mode-independent escapes.
  156|    417|            '\\' => result.push_str(r"\\"),
  157|       |            // ## Special control sequences.
  158|    205|            '\u{0008}' => result.push_str(r"\b"),
  159|    397|            '\u{000C}' => result.push_str(r"\f"),
  160|    342|            '\n' => result.push_str(r"\n"),
  161|    526|            '\r' => result.push_str(r"\r"),
  162|    179|            '\t' => result.push_str(r"\t"),
  163|       |            // ## Other control sequences escaped as Unicode escapes.
  164|  9.53k|            '\u{0000}'..='\u{001F}' => write!(result, "\\u{:0>4x}", c as u8).expect("writing to string never fails"),
  165|       |            // # Non-escapable characters.
  166|  8.22k|            _ => result.push(c),
  167|       |        }
  168|       |    }
  169|       |
  170|  11.5k|    result
  171|  11.5k|}
_RINvXs2_NtCs4qtBjdjJOwX_15rsonpath_syntax3strNtB6_10JsonStringINtNtNtNtCs6SNw0SRvItZ_4core4iter6traits7collect12FromIteratorcE9from_iterINtNtNtB15_8adapters3map3MapINtNtCsdwkGxqAIfJE_9arbitrary12unstructured13ArbitraryItercENCNCNvNtCscZPHoD06VRW_17rsonpath_lib_fuzz5query15generate_string00EEB3I_:
   73|  11.5k|    fn from_iter<T: IntoIterator<Item = char>>(iter: T) -> Self {
   74|  11.5k|        let mut quoted = String::new();
   75|  11.5k|        quoted.push('"');
   76|  24.4k|        for c in iter {
   77|  12.8k|            quoted.push(c);
   78|  12.8k|        }
   79|  11.5k|        quoted.push('"');
   80|  11.5k|        Self { quoted }
   81|  11.5k|    }
_RNvMs_NtCs4qtBjdjJOwX_15rsonpath_syntax3strNtB4_17JsonStringBuilder3new:
   40|  11.5k|    pub(crate) fn new() -> Self {
   41|  11.5k|        Self {
   42|  11.5k|            quoted: String::from('"'),
   43|  11.5k|        }
   44|  11.5k|    }
_RNvMs_NtCs4qtBjdjJOwX_15rsonpath_syntax3strNtB4_17JsonStringBuilder4push:
   46|  12.8k|    pub(crate) fn push(&mut self, char: char) -> &mut Self {
   47|  12.8k|        self.quoted.push(char);
   48|  12.8k|        self
   49|  12.8k|    }
_RNvMs_NtCs4qtBjdjJOwX_15rsonpath_syntax3strNtB4_17JsonStringBuilder6finish:
   51|  11.5k|    pub(crate) fn finish(mut self) -> JsonString {
   52|  11.5k|        self.quoted.push('"');
   53|  11.5k|        JsonString { quoted: self.quoted }
   54|  11.5k|    }

_RNvMNtCscZPHoD06VRW_17rsonpath_lib_fuzz5queryNtB2_16SafeUnstructured3new:
   16|    883|    fn new(u: &'b mut Unstructured<'a>) -> Self {
   17|    883|        Self { u, error: None }
   18|    883|    }
_RNvMs4_NtCscZPHoD06VRW_17rsonpath_lib_fuzz5queryNtB5_23ArbitraryQueryGenerator14generate_query:
  135|  3.55k|    fn generate_query<'a>(
  136|  3.55k|        builder: &'a mut JsonPathQueryBuilder,
  137|  3.55k|        depth: usize,
  138|  3.55k|        u: &mut SafeUnstructured,
  139|  3.55k|    ) -> &'a mut JsonPathQueryBuilder {
  140|  3.55k|        let mut this = ArbitraryQueryGenerator { depth };
  141|       |
  142|  3.55k|        let len = u.access(|u| u.int_in_range(0..=ArbitraryQueryGenerator::MAX_SEGMENTS));
  143|  10.6k|        for _ in 0..len {
  144|  10.6k|            this.generate_segment(builder, u);
  145|  10.6k|        }
  146|  3.55k|        builder
  147|  3.55k|    }
_RNvMs4_NtCscZPHoD06VRW_17rsonpath_lib_fuzz5queryNtB5_23ArbitraryQueryGenerator16generate_segment:
  149|  10.6k|    fn generate_segment(&mut self, builder: &mut JsonPathQueryBuilder, u: &mut SafeUnstructured) {
  150|  10.6k|        let discriminant = u.access(|u| u.int_in_range(0..=1));
  151|  10.6k|        if discriminant == 0 {
  152|  7.08k|            builder.child(|b| self.generate_selectors(b, u));
  153|       |        } else {
  154|  3.59k|            builder.descendant(|b| self.generate_selectors(b, u));
  155|       |        }
  156|  10.6k|    }
_RNvMs4_NtCscZPHoD06VRW_17rsonpath_lib_fuzz5queryNtB5_23ArbitraryQueryGenerator17generate_selector:
  170|  18.5k|    fn generate_selector(&self, builder: &mut JsonPathSelectorsBuilder, u: &mut SafeUnstructured) {
  171|  18.5k|        let discriminant = u.access(|u| u.int_in_range(0..=4));
  172|  18.5k|        match discriminant {
  173|  6.58k|            0 => Self::generate_name_selector(builder, u),
  174|  1.76k|            1 => Self::generate_index_selector(builder, u),
  175|  1.85k|            2 => Self::generate_slice_selector(builder, u),
  176|  4.14k|            3 => Self::generate_wildcard_selector(builder, u),
  177|  4.21k|            4 => self.generate_filter_selector(builder, u),
  178|      0|            _ => unreachable!(),
  179|       |        }
  180|  18.5k|    }
_RNvMs4_NtCscZPHoD06VRW_17rsonpath_lib_fuzz5queryNtB5_23ArbitraryQueryGenerator18generate_selectors:
  158|  10.6k|    fn generate_selectors<'a>(
  159|  10.6k|        &self,
  160|  10.6k|        builder: &'a mut JsonPathSelectorsBuilder,
  161|  10.6k|        u: &mut SafeUnstructured,
  162|  10.6k|    ) -> &'a mut JsonPathSelectorsBuilder {
  163|  10.6k|        let len = u.access(|u| u.int_in_range(1..=Self::MAX_SELECTORS));
  164|  18.5k|        for _ in 0..len {
  165|  18.5k|            self.generate_selector(builder, u);
  166|  18.5k|        }
  167|  10.6k|        builder
  168|  10.6k|    }
_RNvMs4_NtCscZPHoD06VRW_17rsonpath_lib_fuzz5queryNtB5_23ArbitraryQueryGenerator19generate_comparison:
  241|  4.77k|    fn generate_comparison(&self, builder: EmptyComparisonExprBuilder, u: &mut SafeUnstructured) -> ComparisonExpr {
  242|  4.77k|        let discriminant = u.access(|u| u.int_in_range(0..=2));
  243|  4.77k|        let lhs = match discriminant {
  244|       |            0 => {
  245|  2.05k|                let literal = generate_literal(u);
  246|  2.05k|                builder.literal(literal)
  247|       |            }
  248|  1.35k|            1 => builder.query_absolute(|b| self.generate_singular_query(b, u)),
  249|  1.36k|            2 => builder.query_relative(|b| self.generate_singular_query(b, u)),
  250|      0|            _ => unreachable!(),
  251|       |        };
  252|  4.77k|        let discriminant = u.access(|u| u.int_in_range(0..=5));
  253|  4.77k|        let op = match discriminant {
  254|  2.42k|            0 => lhs.equal_to(),
  255|    424|            1 => lhs.greater_or_equal_to(),
  256|    640|            2 => lhs.greater_than(),
  257|    501|            3 => lhs.less_than(),
  258|    419|            4 => lhs.lesser_or_equal_to(),
  259|    370|            5 => lhs.not_equal_to(),
  260|      0|            _ => unreachable!(),
  261|       |        };
  262|  4.77k|        let discriminant = u.access(|u| u.int_in_range(0..=2));
  263|  4.77k|        let result = match discriminant {
  264|       |            0 => {
  265|  2.89k|                let literal = generate_literal(u);
  266|  2.89k|                op.literal(literal)
  267|       |            }
  268|    893|            1 => op.query_absolute(|b| self.generate_singular_query(b, u)),
  269|    990|            2 => op.query_relative(|b| self.generate_singular_query(b, u)),
  270|      0|            _ => unreachable!(),
  271|       |        };
  272|  4.77k|        result
  273|  4.77k|    }
_RNvMs4_NtCscZPHoD06VRW_17rsonpath_lib_fuzz5queryNtB5_23ArbitraryQueryGenerator21generate_logical_expr:
  206|  4.21k|    fn generate_logical_expr(&self, b: EmptyLogicalExprBuilder, u: &mut SafeUnstructured) -> LogicalExprBuilder {
  207|  4.21k|        let target_depth = u.access(|u| u.int_in_range(1..=Self::MAX_LOGICAL_EXPR_SIZE));
  208|  4.21k|        return generate_with_depth(self, b, u, target_depth);
  209|       |
  210|       |        fn generate_with_depth(
  211|       |            this: &ArbitraryQueryGenerator,
  212|       |            builder: EmptyLogicalExprBuilder,
  213|       |            u: &mut SafeUnstructured,
  214|       |            target_depth: usize,
  215|       |        ) -> LogicalExprBuilder {
  216|       |            let discriminant = if this.depth < ArbitraryQueryGenerator::MAX_QUERY_DEPTH {
  217|       |                u.access(|u| u.int_in_range(0..=2))
  218|       |            } else {
  219|       |                0
  220|       |            };
  221|       |            let builder = match discriminant {
  222|       |                0 => builder.comparison(|b| this.generate_comparison(b, u)),
  223|       |                1 => builder.test_absolute(|b| this.generate_nested_query(b, u)),
  224|       |                2 => builder.test_relative(|b| this.generate_nested_query(b, u)),
  225|       |                _ => unreachable!(),
  226|       |            };
  227|       |            if target_depth == 1 {
  228|       |                builder
  229|       |            } else {
  230|       |                let discriminant = u.access(|u| u.int_in_range(0..=2));
  231|       |                match discriminant {
  232|       |                    0 => EmptyLogicalExprBuilder.not(|_| builder),
  233|       |                    1 => builder.and(|b| generate_with_depth(this, b, u, target_depth - 1)),
  234|       |                    2 => builder.or(|b| generate_with_depth(this, b, u, target_depth - 1)),
  235|       |                    _ => unreachable!(),
  236|       |                }
  237|       |            }
  238|       |        }
  239|  4.21k|    }
_RNvMs4_NtCscZPHoD06VRW_17rsonpath_lib_fuzz5queryNtB5_23ArbitraryQueryGenerator21generate_nested_query:
  292|  2.67k|    fn generate_nested_query<'a>(
  293|  2.67k|        &self,
  294|  2.67k|        builder: &'a mut JsonPathQueryBuilder,
  295|  2.67k|        u: &mut SafeUnstructured,
  296|  2.67k|    ) -> &'a mut JsonPathQueryBuilder {
  297|  2.67k|        Self::generate_query(builder, self.depth + 1, u)
  298|  2.67k|    }
_RNvMs4_NtCscZPHoD06VRW_17rsonpath_lib_fuzz5queryNtB5_23ArbitraryQueryGenerator22generate_name_selector:
  182|  6.58k|    fn generate_name_selector(builder: &mut JsonPathSelectorsBuilder, u: &mut SafeUnstructured) {
  183|  6.58k|        let string = generate_string(u);
  184|  6.58k|        builder.name(string);
  185|  6.58k|    }
_RNvMs4_NtCscZPHoD06VRW_17rsonpath_lib_fuzz5queryNtB5_23ArbitraryQueryGenerator23generate_index_selector:
  187|  1.76k|    fn generate_index_selector(builder: &mut JsonPathSelectorsBuilder, u: &mut SafeUnstructured) {
  188|  1.76k|        let index = generate_json_int(u);
  189|  1.76k|        builder.index(index);
  190|  1.76k|    }
_RNvMs4_NtCscZPHoD06VRW_17rsonpath_lib_fuzz5queryNtB5_23ArbitraryQueryGenerator23generate_singular_query:
  275|  4.60k|    fn generate_singular_query<'a>(
  276|  4.60k|        &self,
  277|  4.60k|        builder: &'a mut SingularJsonPathQueryBuilder,
  278|  4.60k|        u: &mut SafeUnstructured,
  279|  4.60k|    ) -> &'a mut SingularJsonPathQueryBuilder {
  280|  4.60k|        let len = u.access(|u| u.int_in_range(0..=Self::MAX_SEGMENTS));
  281|  4.60k|        for _ in 0..len {
  282|  11.1k|            let discriminant = u.access(|u| u.int_in_range(0..=1));
  283|  11.1k|            match discriminant {
  284|  6.71k|                0 => builder.index(generate_json_int(u)),
  285|  4.47k|                1 => builder.name(generate_string(u)),
  286|      0|                _ => unreachable!(),
  287|       |            };
  288|       |        }
  289|  4.60k|        builder
  290|  4.60k|    }
_RNvMs4_NtCscZPHoD06VRW_17rsonpath_lib_fuzz5queryNtB5_23ArbitraryQueryGenerator23generate_slice_selector:
  192|  1.85k|    fn generate_slice_selector(builder: &mut JsonPathSelectorsBuilder, u: &mut SafeUnstructured) {
  193|  1.85k|        let mut slice_builder = Slice::build();
  194|  1.85k|        generate_slice(&mut slice_builder, u);
  195|  1.85k|        builder.slice(Slice::from(slice_builder));
  196|  1.85k|    }
_RNvMs4_NtCscZPHoD06VRW_17rsonpath_lib_fuzz5queryNtB5_23ArbitraryQueryGenerator24generate_filter_selector:
  202|  4.21k|    fn generate_filter_selector(&self, builder: &mut JsonPathSelectorsBuilder, u: &mut SafeUnstructured) {
  203|  4.21k|        builder.filter(|b| self.generate_logical_expr(b, u));
  204|  4.21k|    }
_RNvMs4_NtCscZPHoD06VRW_17rsonpath_lib_fuzz5queryNtB5_23ArbitraryQueryGenerator26generate_wildcard_selector:
  198|  4.14k|    fn generate_wildcard_selector(builder: &mut JsonPathSelectorsBuilder, _u: &mut SafeUnstructured) {
  199|  4.14k|        builder.wildcard();
  200|  4.14k|    }
_RNvNtCscZPHoD06VRW_17rsonpath_lib_fuzz5query14generate_slice:
  405|  1.85k|fn generate_slice<'a>(builder: &'a mut SliceBuilder, u: &mut SafeUnstructured) -> &'a mut SliceBuilder {
  406|  1.85k|    let (has_start, has_end, has_step) = u.access(|u| Ok((u.arbitrary()?, u.arbitrary()?, u.arbitrary()?)));
  407|  1.85k|    if has_start {
  408|    443|        let int = generate_json_int(u);
  409|    443|        builder.with_start(int);
  410|  1.41k|    }
  411|  1.85k|    if has_end {
  412|    540|        let int = generate_json_int(u);
  413|    540|        builder.with_end(int);
  414|  1.31k|    }
  415|  1.85k|    if has_step {
  416|    610|        let int = generate_json_int(u);
  417|    610|        builder.with_step(int);
  418|  1.24k|    }
  419|  1.85k|    builder
  420|  1.85k|}
_RNvNtCscZPHoD06VRW_17rsonpath_lib_fuzz5query15generate_number:
  312|    916|fn generate_number(u: &mut SafeUnstructured) -> JsonNumber {
  313|    916|    let discriminant = u.access(|u| u.int_in_range(0..=1));
  314|    916|    match discriminant {
  315|    581|        0 => JsonNumber::from(generate_json_int(u)),
  316|    335|        1 => JsonNumber::from(generate_json_float(u)),
  317|      0|        _ => unreachable!(),
  318|       |    }
  319|    916|}
_RNvNtCscZPHoD06VRW_17rsonpath_lib_fuzz5query15generate_string:
  372|  11.5k|fn generate_string(u: &mut SafeUnstructured) -> JsonString {
  373|       |    struct SafeString(JsonString);
  374|       |    impl Default for SafeString {
  375|       |        fn default() -> Self {
  376|       |            SafeString(JsonString::new(""))
  377|       |        }
  378|       |    }
  379|       |
  380|  11.5k|    u.access(|u| {
  381|       |        let iter = u.arbitrary_iter::<char>()?.map(|x| x.unwrap_or_default());
  382|       |        Ok(SafeString(JsonString::from_iter(iter)))
  383|       |    })
  384|       |    .0
  385|  11.5k|}
_RNvNtCscZPHoD06VRW_17rsonpath_lib_fuzz5query16generate_literal:
  301|  4.95k|fn generate_literal(u: &mut SafeUnstructured) -> Literal {
  302|  4.95k|    let discriminant = u.access(|u| u.int_in_range(0..=3));
  303|  4.95k|    match discriminant {
  304|  2.92k|        0 => Literal::Null,
  305|    584|        1 => Literal::Bool(u.access(|u| u.arbitrary::<bool>())),
  306|    916|        2 => Literal::Number(generate_number(u)),
  307|    528|        3 => Literal::String(generate_string(u)),
  308|      0|        _ => unreachable!(),
  309|       |    }
  310|  4.95k|}
_RNvNtCscZPHoD06VRW_17rsonpath_lib_fuzz5query17generate_json_int:
  321|  10.6k|fn generate_json_int(u: &mut SafeUnstructured) -> JsonInt {
  322|  10.6k|    u.access(|u| {
  323|       |        let val = u.int_in_range(JsonInt::MIN.as_i64()..=JsonInt::MAX.as_i64())?;
  324|       |        let int = JsonInt::try_from(val).expect("int is in range above and should succeed");
  325|       |        Ok(int)
  326|       |    })
  327|  10.6k|}
_RNvNtCscZPHoD06VRW_17rsonpath_lib_fuzz5query19generate_json_float:
  346|    335|fn generate_json_float(u: &mut SafeUnstructured) -> JsonFloat {
  347|       |    struct SafeFloat(JsonFloat);
  348|       |    impl Default for SafeFloat {
  349|       |        fn default() -> Self {
  350|       |            SafeFloat(JsonFloat::ZERO)
  351|       |        }
  352|       |    }
  353|       |
  354|    335|    u.access(|u| {
  355|       |        let val = u.arbitrary::<f64>()?;
  356|       |        // Wrap NaN, +Inf, -Inf into zero.
  357|       |        let val = if val.is_nan() {
  358|       |            0.0
  359|       |        } else if val.is_infinite() {
  360|       |            0.0_f64.copysign(val)
  361|       |        } else {
  362|       |            val
  363|       |        };
  364|       |
  365|       |        Ok(SafeFloat(
  366|       |            JsonFloat::try_from(val).expect("the above construction should always give correct values"),
  367|       |        ))
  368|       |    })
  369|       |    .0
  370|    335|}
_RNvNvMs4_NtCscZPHoD06VRW_17rsonpath_lib_fuzz5queryNtB7_23ArbitraryQueryGenerator21generate_logical_expr19generate_with_depth:
  210|  7.44k|        fn generate_with_depth(
  211|  7.44k|            this: &ArbitraryQueryGenerator,
  212|  7.44k|            builder: EmptyLogicalExprBuilder,
  213|  7.44k|            u: &mut SafeUnstructured,
  214|  7.44k|            target_depth: usize,
  215|  7.44k|        ) -> LogicalExprBuilder {
  216|  7.44k|            let discriminant = if this.depth < ArbitraryQueryGenerator::MAX_QUERY_DEPTH {
  217|  3.63k|                u.access(|u| u.int_in_range(0..=2))
  218|       |            } else {
  219|  3.81k|                0
  220|       |            };
  221|  7.44k|            let builder = match discriminant {
  222|  4.77k|                0 => builder.comparison(|b| this.generate_comparison(b, u)),
  223|  1.38k|                1 => builder.test_absolute(|b| this.generate_nested_query(b, u)),
  224|  1.29k|                2 => builder.test_relative(|b| this.generate_nested_query(b, u)),
  225|      0|                _ => unreachable!(),
  226|       |            };
  227|  7.44k|            if target_depth == 1 {
  228|    975|                builder
  229|       |            } else {
  230|  6.47k|                let discriminant = u.access(|u| u.int_in_range(0..=2));
  231|  6.47k|                match discriminant {
  232|  3.24k|                    0 => EmptyLogicalExprBuilder.not(|_| builder),
  233|  1.69k|                    1 => builder.and(|b| generate_with_depth(this, b, u, target_depth - 1)),
  234|  1.53k|                    2 => builder.or(|b| generate_with_depth(this, b, u, target_depth - 1)),
  235|      0|                    _ => unreachable!(),
  236|       |                }
  237|       |            }
  238|  7.44k|        }
_RNvXs0_NtCscZPHoD06VRW_17rsonpath_lib_fuzz5queryNtB5_22ArbitraryJsonPathQueryNtCsdwkGxqAIfJE_9arbitrary9Arbitrary9arbitrary:
   92|    883|    fn arbitrary(u: &mut Unstructured<'a>) -> arbitrary::Result<Self> {
   93|    883|        let mut builder = JsonPathQueryBuilder::new();
   94|    883|        let mut u = SafeUnstructured::new(u);
   95|    883|        ArbitraryQueryGenerator::generate_query(&mut builder, 1, &mut u);
   96|    883|        Ok(Self(builder.into_query()))
   97|    883|    }
_RINvMNtCscZPHoD06VRW_17rsonpath_lib_fuzz5queryNtB3_16SafeUnstructured6accessNCNvB3_14generate_slice0TbbbEEB5_:
   28|  1.85k|    fn access<F, T: Default>(&mut self, f: F) -> T
   29|  1.85k|    where
   30|  1.85k|        F: FnOnce(&mut Unstructured<'a>) -> arbitrary::Result<T>,
   31|       |    {
   32|  1.85k|        match f(self.u) {
   33|  1.85k|            Ok(x) => x,
   34|      0|            Err(err) => {
   35|      0|                self.error = Some(err);
   36|      0|                T::default()
   37|       |            }
   38|       |        }
   39|  1.85k|    }
_RINvMNtCscZPHoD06VRW_17rsonpath_lib_fuzz5queryNtB3_16SafeUnstructured6accessNCNvB3_15generate_number0lEB5_:
   28|    916|    fn access<F, T: Default>(&mut self, f: F) -> T
   29|    916|    where
   30|    916|        F: FnOnce(&mut Unstructured<'a>) -> arbitrary::Result<T>,
   31|       |    {
   32|    916|        match f(self.u) {
   33|    916|            Ok(x) => x,
   34|      0|            Err(err) => {
   35|      0|                self.error = Some(err);
   36|      0|                T::default()
   37|       |            }
   38|       |        }
   39|    916|    }
_RINvMNtCscZPHoD06VRW_17rsonpath_lib_fuzz5queryNtB3_16SafeUnstructured6accessNCNvB3_15generate_string0NtB1e_10SafeStringEB5_:
   28|  11.5k|    fn access<F, T: Default>(&mut self, f: F) -> T
   29|  11.5k|    where
   30|  11.5k|        F: FnOnce(&mut Unstructured<'a>) -> arbitrary::Result<T>,
   31|       |    {
   32|  11.5k|        match f(self.u) {
   33|  11.5k|            Ok(x) => x,
   34|      0|            Err(err) => {
   35|      0|                self.error = Some(err);
   36|      0|                T::default()
   37|       |            }
   38|       |        }
   39|  11.5k|    }
_RINvMNtCscZPHoD06VRW_17rsonpath_lib_fuzz5queryNtB3_16SafeUnstructured6accessNCNvB3_16generate_literal0lEB5_:
   28|  4.95k|    fn access<F, T: Default>(&mut self, f: F) -> T
   29|  4.95k|    where
   30|  4.95k|        F: FnOnce(&mut Unstructured<'a>) -> arbitrary::Result<T>,
   31|       |    {
   32|  4.95k|        match f(self.u) {
   33|  4.95k|            Ok(x) => x,
   34|      0|            Err(err) => {
   35|      0|                self.error = Some(err);
   36|      0|                T::default()
   37|       |            }
   38|       |        }
   39|  4.95k|    }
_RINvMNtCscZPHoD06VRW_17rsonpath_lib_fuzz5queryNtB3_16SafeUnstructured6accessNCNvB3_16generate_literals_0bEB5_:
   28|    584|    fn access<F, T: Default>(&mut self, f: F) -> T
   29|    584|    where
   30|    584|        F: FnOnce(&mut Unstructured<'a>) -> arbitrary::Result<T>,
   31|       |    {
   32|    584|        match f(self.u) {
   33|    584|            Ok(x) => x,
   34|      0|            Err(err) => {
   35|      0|                self.error = Some(err);
   36|      0|                T::default()
   37|       |            }
   38|       |        }
   39|    584|    }
_RINvMNtCscZPHoD06VRW_17rsonpath_lib_fuzz5queryNtB3_16SafeUnstructured6accessNCNvB3_17generate_json_int0NtNtCs4qtBjdjJOwX_15rsonpath_syntax3num7JsonIntEB5_:
   28|  10.6k|    fn access<F, T: Default>(&mut self, f: F) -> T
   29|  10.6k|    where
   30|  10.6k|        F: FnOnce(&mut Unstructured<'a>) -> arbitrary::Result<T>,
   31|       |    {
   32|  10.6k|        match f(self.u) {
   33|  10.6k|            Ok(x) => x,
   34|      0|            Err(err) => {
   35|      0|                self.error = Some(err);
   36|      0|                T::default()
   37|       |            }
   38|       |        }
   39|  10.6k|    }
_RINvMNtCscZPHoD06VRW_17rsonpath_lib_fuzz5queryNtB3_16SafeUnstructured6accessNCNvB3_19generate_json_float0NtB1e_9SafeFloatEB5_:
   28|    335|    fn access<F, T: Default>(&mut self, f: F) -> T
   29|    335|    where
   30|    335|        F: FnOnce(&mut Unstructured<'a>) -> arbitrary::Result<T>,
   31|       |    {
   32|    335|        match f(self.u) {
   33|    335|            Ok(x) => x,
   34|      0|            Err(err) => {
   35|      0|                self.error = Some(err);
   36|      0|                T::default()
   37|       |            }
   38|       |        }
   39|    335|    }
_RINvMNtCscZPHoD06VRW_17rsonpath_lib_fuzz5queryNtB3_16SafeUnstructured6accessNCNvMs4_B3_NtB3_23ArbitraryQueryGenerator14generate_query0jEB5_:
   28|  3.55k|    fn access<F, T: Default>(&mut self, f: F) -> T
   29|  3.55k|    where
   30|  3.55k|        F: FnOnce(&mut Unstructured<'a>) -> arbitrary::Result<T>,
   31|       |    {
   32|  3.55k|        match f(self.u) {
   33|  3.55k|            Ok(x) => x,
   34|      0|            Err(err) => {
   35|      0|                self.error = Some(err);
   36|      0|                T::default()
   37|       |            }
   38|       |        }
   39|  3.55k|    }
_RINvMNtCscZPHoD06VRW_17rsonpath_lib_fuzz5queryNtB3_16SafeUnstructured6accessNCNvMs4_B3_NtB3_23ArbitraryQueryGenerator16generate_segment0lEB5_:
   28|  10.6k|    fn access<F, T: Default>(&mut self, f: F) -> T
   29|  10.6k|    where
   30|  10.6k|        F: FnOnce(&mut Unstructured<'a>) -> arbitrary::Result<T>,
   31|       |    {
   32|  10.6k|        match f(self.u) {
   33|  10.6k|            Ok(x) => x,
   34|      0|            Err(err) => {
   35|      0|                self.error = Some(err);
   36|      0|                T::default()
   37|       |            }
   38|       |        }
   39|  10.6k|    }
_RINvMNtCscZPHoD06VRW_17rsonpath_lib_fuzz5queryNtB3_16SafeUnstructured6accessNCNvMs4_B3_NtB3_23ArbitraryQueryGenerator17generate_selector0lEB5_:
   28|  18.5k|    fn access<F, T: Default>(&mut self, f: F) -> T
   29|  18.5k|    where
   30|  18.5k|        F: FnOnce(&mut Unstructured<'a>) -> arbitrary::Result<T>,
   31|       |    {
   32|  18.5k|        match f(self.u) {
   33|  18.5k|            Ok(x) => x,
   34|      0|            Err(err) => {
   35|      0|                self.error = Some(err);
   36|      0|                T::default()
   37|       |            }
   38|       |        }
   39|  18.5k|    }
_RINvMNtCscZPHoD06VRW_17rsonpath_lib_fuzz5queryNtB3_16SafeUnstructured6accessNCNvMs4_B3_NtB3_23ArbitraryQueryGenerator18generate_selectors0jEB5_:
   28|  10.6k|    fn access<F, T: Default>(&mut self, f: F) -> T
   29|  10.6k|    where
   30|  10.6k|        F: FnOnce(&mut Unstructured<'a>) -> arbitrary::Result<T>,
   31|       |    {
   32|  10.6k|        match f(self.u) {
   33|  10.6k|            Ok(x) => x,
   34|      0|            Err(err) => {
   35|      0|                self.error = Some(err);
   36|      0|                T::default()
   37|       |            }
   38|       |        }
   39|  10.6k|    }
_RINvMNtCscZPHoD06VRW_17rsonpath_lib_fuzz5queryNtB3_16SafeUnstructured6accessNCNvMs4_B3_NtB3_23ArbitraryQueryGenerator19generate_comparison0lEB5_:
   28|  4.77k|    fn access<F, T: Default>(&mut self, f: F) -> T
   29|  4.77k|    where
   30|  4.77k|        F: FnOnce(&mut Unstructured<'a>) -> arbitrary::Result<T>,
   31|       |    {
   32|  4.77k|        match f(self.u) {
   33|  4.77k|            Ok(x) => x,
   34|      0|            Err(err) => {
   35|      0|                self.error = Some(err);
   36|      0|                T::default()
   37|       |            }
   38|       |        }
   39|  4.77k|    }
_RINvMNtCscZPHoD06VRW_17rsonpath_lib_fuzz5queryNtB3_16SafeUnstructured6accessNCNvMs4_B3_NtB3_23ArbitraryQueryGenerator19generate_comparisons1_0lEB5_:
   28|  4.77k|    fn access<F, T: Default>(&mut self, f: F) -> T
   29|  4.77k|    where
   30|  4.77k|        F: FnOnce(&mut Unstructured<'a>) -> arbitrary::Result<T>,
   31|       |    {
   32|  4.77k|        match f(self.u) {
   33|  4.77k|            Ok(x) => x,
   34|      0|            Err(err) => {
   35|      0|                self.error = Some(err);
   36|      0|                T::default()
   37|       |            }
   38|       |        }
   39|  4.77k|    }
_RINvMNtCscZPHoD06VRW_17rsonpath_lib_fuzz5queryNtB3_16SafeUnstructured6accessNCNvMs4_B3_NtB3_23ArbitraryQueryGenerator19generate_comparisons2_0lEB5_:
   28|  4.77k|    fn access<F, T: Default>(&mut self, f: F) -> T
   29|  4.77k|    where
   30|  4.77k|        F: FnOnce(&mut Unstructured<'a>) -> arbitrary::Result<T>,
   31|       |    {
   32|  4.77k|        match f(self.u) {
   33|  4.77k|            Ok(x) => x,
   34|      0|            Err(err) => {
   35|      0|                self.error = Some(err);
   36|      0|                T::default()
   37|       |            }
   38|       |        }
   39|  4.77k|    }
_RINvMNtCscZPHoD06VRW_17rsonpath_lib_fuzz5queryNtB3_16SafeUnstructured6accessNCNvMs4_B3_NtB3_23ArbitraryQueryGenerator21generate_logical_expr0jEB5_:
   28|  4.21k|    fn access<F, T: Default>(&mut self, f: F) -> T
   29|  4.21k|    where
   30|  4.21k|        F: FnOnce(&mut Unstructured<'a>) -> arbitrary::Result<T>,
   31|       |    {
   32|  4.21k|        match f(self.u) {
   33|  4.21k|            Ok(x) => x,
   34|      0|            Err(err) => {
   35|      0|                self.error = Some(err);
   36|      0|                T::default()
   37|       |            }
   38|       |        }
   39|  4.21k|    }
_RINvMNtCscZPHoD06VRW_17rsonpath_lib_fuzz5queryNtB3_16SafeUnstructured6accessNCNvMs4_B3_NtB3_23ArbitraryQueryGenerator23generate_singular_query0jEB5_:
   28|  4.60k|    fn access<F, T: Default>(&mut self, f: F) -> T
   29|  4.60k|    where
   30|  4.60k|        F: FnOnce(&mut Unstructured<'a>) -> arbitrary::Result<T>,
   31|       |    {
   32|  4.60k|        match f(self.u) {
   33|  4.60k|            Ok(x) => x,
   34|      0|            Err(err) => {
   35|      0|                self.error = Some(err);
   36|      0|                T::default()
   37|       |            }
   38|       |        }
   39|  4.60k|    }
_RINvMNtCscZPHoD06VRW_17rsonpath_lib_fuzz5queryNtB3_16SafeUnstructured6accessNCNvMs4_B3_NtB3_23ArbitraryQueryGenerator23generate_singular_querys_0lEB5_:
   28|  11.1k|    fn access<F, T: Default>(&mut self, f: F) -> T
   29|  11.1k|    where
   30|  11.1k|        F: FnOnce(&mut Unstructured<'a>) -> arbitrary::Result<T>,
   31|       |    {
   32|  11.1k|        match f(self.u) {
   33|  11.1k|            Ok(x) => x,
   34|      0|            Err(err) => {
   35|      0|                self.error = Some(err);
   36|      0|                T::default()
   37|       |            }
   38|       |        }
   39|  11.1k|    }
_RINvMNtCscZPHoD06VRW_17rsonpath_lib_fuzz5queryNtB3_16SafeUnstructured6accessNCNvNvMs4_B3_NtB3_23ArbitraryQueryGenerator21generate_logical_expr19generate_with_depth0lEB5_:
   28|  3.63k|    fn access<F, T: Default>(&mut self, f: F) -> T
   29|  3.63k|    where
   30|  3.63k|        F: FnOnce(&mut Unstructured<'a>) -> arbitrary::Result<T>,
   31|       |    {
   32|  3.63k|        match f(self.u) {
   33|  3.63k|            Ok(x) => x,
   34|      0|            Err(err) => {
   35|      0|                self.error = Some(err);
   36|      0|                T::default()
   37|       |            }
   38|       |        }
   39|  3.63k|    }
_RINvMNtCscZPHoD06VRW_17rsonpath_lib_fuzz5queryNtB3_16SafeUnstructured6accessNCNvNvMs4_B3_NtB3_23ArbitraryQueryGenerator21generate_logical_expr19generate_with_depths2_0lEB5_:
   28|  6.47k|    fn access<F, T: Default>(&mut self, f: F) -> T
   29|  6.47k|    where
   30|  6.47k|        F: FnOnce(&mut Unstructured<'a>) -> arbitrary::Result<T>,
   31|       |    {
   32|  6.47k|        match f(self.u) {
   33|  6.47k|            Ok(x) => x,
   34|      0|            Err(err) => {
   35|      0|                self.error = Some(err);
   36|      0|                T::default()
   37|       |            }
   38|       |        }
   39|  6.47k|    }
_RNCNCNvNtCscZPHoD06VRW_17rsonpath_lib_fuzz5query15generate_string00B7_:
  381|  12.8k|        let iter = u.arbitrary_iter::<char>()?.map(|x| x.unwrap_or_default());
_RNCNvMs4_NtCscZPHoD06VRW_17rsonpath_lib_fuzz5queryNtB7_23ArbitraryQueryGenerator14generate_query0B9_:
  142|  3.55k|        let len = u.access(|u| u.int_in_range(0..=ArbitraryQueryGenerator::MAX_SEGMENTS));
_RNCNvMs4_NtCscZPHoD06VRW_17rsonpath_lib_fuzz5queryNtB7_23ArbitraryQueryGenerator16generate_segment0B9_:
  150|  10.6k|        let discriminant = u.access(|u| u.int_in_range(0..=1));
_RNCNvMs4_NtCscZPHoD06VRW_17rsonpath_lib_fuzz5queryNtB7_23ArbitraryQueryGenerator16generate_segments0_0B9_:
  154|  3.59k|            builder.descendant(|b| self.generate_selectors(b, u));
_RNCNvMs4_NtCscZPHoD06VRW_17rsonpath_lib_fuzz5queryNtB7_23ArbitraryQueryGenerator16generate_segments_0B9_:
  152|  7.08k|            builder.child(|b| self.generate_selectors(b, u));
_RNCNvMs4_NtCscZPHoD06VRW_17rsonpath_lib_fuzz5queryNtB7_23ArbitraryQueryGenerator17generate_selector0B9_:
  171|  18.5k|        let discriminant = u.access(|u| u.int_in_range(0..=4));
_RNCNvMs4_NtCscZPHoD06VRW_17rsonpath_lib_fuzz5queryNtB7_23ArbitraryQueryGenerator18generate_selectors0B9_:
  163|  10.6k|        let len = u.access(|u| u.int_in_range(1..=Self::MAX_SELECTORS));
_RNCNvMs4_NtCscZPHoD06VRW_17rsonpath_lib_fuzz5queryNtB7_23ArbitraryQueryGenerator19generate_comparison0B9_:
  242|  4.77k|        let discriminant = u.access(|u| u.int_in_range(0..=2));
_RNCNvMs4_NtCscZPHoD06VRW_17rsonpath_lib_fuzz5queryNtB7_23ArbitraryQueryGenerator19generate_comparisons0_0B9_:
  249|  1.36k|            2 => builder.query_relative(|b| self.generate_singular_query(b, u)),
_RNCNvMs4_NtCscZPHoD06VRW_17rsonpath_lib_fuzz5queryNtB7_23ArbitraryQueryGenerator19generate_comparisons1_0B9_:
  252|  4.77k|        let discriminant = u.access(|u| u.int_in_range(0..=5));
_RNCNvMs4_NtCscZPHoD06VRW_17rsonpath_lib_fuzz5queryNtB7_23ArbitraryQueryGenerator19generate_comparisons2_0B9_:
  262|  4.77k|        let discriminant = u.access(|u| u.int_in_range(0..=2));
_RNCNvMs4_NtCscZPHoD06VRW_17rsonpath_lib_fuzz5queryNtB7_23ArbitraryQueryGenerator19generate_comparisons3_0B9_:
  268|    893|            1 => op.query_absolute(|b| self.generate_singular_query(b, u)),
_RNCNvMs4_NtCscZPHoD06VRW_17rsonpath_lib_fuzz5queryNtB7_23ArbitraryQueryGenerator19generate_comparisons4_0B9_:
  269|    990|            2 => op.query_relative(|b| self.generate_singular_query(b, u)),
_RNCNvMs4_NtCscZPHoD06VRW_17rsonpath_lib_fuzz5queryNtB7_23ArbitraryQueryGenerator19generate_comparisons_0B9_:
  248|  1.35k|            1 => builder.query_absolute(|b| self.generate_singular_query(b, u)),
_RNCNvMs4_NtCscZPHoD06VRW_17rsonpath_lib_fuzz5queryNtB7_23ArbitraryQueryGenerator21generate_logical_expr0B9_:
  207|  4.21k|        let target_depth = u.access(|u| u.int_in_range(1..=Self::MAX_LOGICAL_EXPR_SIZE));
_RNCNvMs4_NtCscZPHoD06VRW_17rsonpath_lib_fuzz5queryNtB7_23ArbitraryQueryGenerator23generate_singular_query0B9_:
  280|  4.60k|        let len = u.access(|u| u.int_in_range(0..=Self::MAX_SEGMENTS));
_RNCNvMs4_NtCscZPHoD06VRW_17rsonpath_lib_fuzz5queryNtB7_23ArbitraryQueryGenerator23generate_singular_querys_0B9_:
  282|  11.1k|            let discriminant = u.access(|u| u.int_in_range(0..=1));
_RNCNvMs4_NtCscZPHoD06VRW_17rsonpath_lib_fuzz5queryNtB7_23ArbitraryQueryGenerator24generate_filter_selector0B9_:
  203|  4.21k|        builder.filter(|b| self.generate_logical_expr(b, u));
_RNCNvNtCscZPHoD06VRW_17rsonpath_lib_fuzz5query14generate_slice0B5_:
  406|  1.85k|    let (has_start, has_end, has_step) = u.access(|u| Ok((u.arbitrary()?, u.arbitrary()?, u.arbitrary()?)));
_RNCNvNtCscZPHoD06VRW_17rsonpath_lib_fuzz5query15generate_number0B5_:
  313|    916|    let discriminant = u.access(|u| u.int_in_range(0..=1));
_RNCNvNtCscZPHoD06VRW_17rsonpath_lib_fuzz5query15generate_string0B5_:
  380|  11.5k|    u.access(|u| {
  381|  11.5k|        let iter = u.arbitrary_iter::<char>()?.map(|x| x.unwrap_or_default());
  382|  11.5k|        Ok(SafeString(JsonString::from_iter(iter)))
  383|  11.5k|    })
_RNCNvNtCscZPHoD06VRW_17rsonpath_lib_fuzz5query16generate_literal0B5_:
  302|  4.95k|    let discriminant = u.access(|u| u.int_in_range(0..=3));
_RNCNvNtCscZPHoD06VRW_17rsonpath_lib_fuzz5query16generate_literals_0B5_:
  305|    584|        1 => Literal::Bool(u.access(|u| u.arbitrary::<bool>())),
_RNCNvNtCscZPHoD06VRW_17rsonpath_lib_fuzz5query17generate_json_int0B5_:
  322|  10.6k|    u.access(|u| {
  323|  10.6k|        let val = u.int_in_range(JsonInt::MIN.as_i64()..=JsonInt::MAX.as_i64())?;
  324|  10.6k|        let int = JsonInt::try_from(val).expect("int is in range above and should succeed");
  325|  10.6k|        Ok(int)
  326|  10.6k|    })
_RNCNvNtCscZPHoD06VRW_17rsonpath_lib_fuzz5query19generate_json_float0B5_:
  354|    335|    u.access(|u| {
  355|    335|        let val = u.arbitrary::<f64>()?;
  356|       |        // Wrap NaN, +Inf, -Inf into zero.
  357|    335|        let val = if val.is_nan() {
  358|     21|            0.0
  359|    314|        } else if val.is_infinite() {
  360|      0|            0.0_f64.copysign(val)
  361|       |        } else {
  362|    314|            val
  363|       |        };
  364|       |
  365|    335|        Ok(SafeFloat(
  366|    335|            JsonFloat::try_from(val).expect("the above construction should always give correct values"),
  367|    335|        ))
  368|    335|    })
_RNCNvNvMs4_NtCscZPHoD06VRW_17rsonpath_lib_fuzz5queryNtB9_23ArbitraryQueryGenerator21generate_logical_expr19generate_with_depth0Bb_:
  217|  3.63k|                u.access(|u| u.int_in_range(0..=2))
_RNCNvNvMs4_NtCscZPHoD06VRW_17rsonpath_lib_fuzz5queryNtB9_23ArbitraryQueryGenerator21generate_logical_expr19generate_with_depths0_0Bb_:
  223|  1.38k|                1 => builder.test_absolute(|b| this.generate_nested_query(b, u)),
_RNCNvNvMs4_NtCscZPHoD06VRW_17rsonpath_lib_fuzz5queryNtB9_23ArbitraryQueryGenerator21generate_logical_expr19generate_with_depths1_0Bb_:
  224|  1.29k|                2 => builder.test_relative(|b| this.generate_nested_query(b, u)),
_RNCNvNvMs4_NtCscZPHoD06VRW_17rsonpath_lib_fuzz5queryNtB9_23ArbitraryQueryGenerator21generate_logical_expr19generate_with_depths2_0Bb_:
  230|  6.47k|                let discriminant = u.access(|u| u.int_in_range(0..=2));
_RNCNvNvMs4_NtCscZPHoD06VRW_17rsonpath_lib_fuzz5queryNtB9_23ArbitraryQueryGenerator21generate_logical_expr19generate_with_depths4_0Bb_:
  233|  1.69k|                    1 => builder.and(|b| generate_with_depth(this, b, u, target_depth - 1)),
_RNCNvNvMs4_NtCscZPHoD06VRW_17rsonpath_lib_fuzz5queryNtB9_23ArbitraryQueryGenerator21generate_logical_expr19generate_with_depths5_0Bb_:
  234|  1.53k|                    2 => builder.or(|b| generate_with_depth(this, b, u, target_depth - 1)),
_RNCNvNvMs4_NtCscZPHoD06VRW_17rsonpath_lib_fuzz5queryNtB9_23ArbitraryQueryGenerator21generate_logical_expr19generate_with_depths_0Bb_:
  222|  4.77k|                0 => builder.comparison(|b| this.generate_comparison(b, u)),

